

Microchip Technology PIC18 LITE Macro Assembler V1.43 build -156212558 
                                                                                               Fri Nov 27 19:04:51 2020

Microchip Technology Omniscient Code Generator v1.43 (Free mode) build 201707250354
     1                           	processor	18F4550
     2                           	fnconf	rparam,??,?,0
     3                           	opt	pw 120
     4                           	opt	lm
     5                           	psect	idataBANK0,global,class=CODE,delta=1,noexec
     6                           	psect	mediumconst,global,reloc=2,class=MEDIUMCONST,delta=1,noexec
     7                           	psect	cinit,global,reloc=2,class=CODE,delta=1
     8                           	psect	bssCOMRAM,global,class=COMRAM,space=1,delta=1,noexec
     9                           	psect	bssBANK0,global,class=BANK0,space=1,delta=1,lowdata,noexec
    10                           	psect	dataBANK0,global,class=BANK0,space=1,delta=1,lowdata,noexec
    11                           	psect	cstackBANK0,global,class=BANK0,space=1,delta=1,noexec
    12                           	psect	cstackCOMRAM,global,class=COMRAM,space=1,delta=1,noexec
    13                           	psect	text0,global,reloc=2,class=CODE,delta=1
    14                           	psect	text1,global,reloc=2,class=CODE,delta=1
    15                           	psect	text2,global,reloc=2,class=CODE,delta=1
    16                           	psect	text3,global,reloc=2,class=CODE,delta=1
    17                           	psect	text4,global,reloc=2,class=CODE,delta=1
    18                           	psect	text5,global,reloc=2,class=CODE,delta=1
    19                           	psect	text6,global,reloc=2,class=CODE,delta=1
    20                           	psect	text7,global,reloc=2,class=CODE,delta=1
    21                           	psect	text8,global,reloc=2,class=CODE,delta=1,group=2
    22                           	psect	text9,global,reloc=2,class=CODE,delta=1,group=2
    23                           	psect	text10,global,reloc=2,class=CODE,delta=1
    24                           	psect	text11,global,reloc=2,class=CODE,delta=1
    25                           	psect	text12,global,reloc=2,class=CODE,delta=1
    26                           	psect	text13,global,reloc=2,class=CODE,delta=1
    27                           	psect	text14,global,reloc=2,class=CODE,delta=1
    28                           	psect	text15,global,reloc=2,class=CODE,delta=1
    29                           	psect	text16,global,reloc=2,class=CODE,delta=1
    30                           	psect	text17,global,reloc=2,class=CODE,delta=1,group=2
    31                           	psect	text18,global,reloc=2,class=CODE,delta=1
    32                           	psect	text19,global,reloc=2,class=CODE,delta=1
    33                           	psect	text20,global,reloc=2,class=CODE,delta=1
    34                           	psect	text21,global,reloc=2,class=CODE,delta=1
    35                           	psect	text22,global,reloc=2,class=CODE,delta=1
    36                           	psect	text23,global,reloc=2,class=CODE,delta=1
    37                           	psect	text24,global,reloc=2,class=CODE,delta=1
    38                           	psect	text25,global,reloc=2,class=CODE,delta=1
    39                           	psect	text26,global,reloc=2,class=CODE,delta=1
    40                           	psect	text27,global,reloc=2,class=CODE,delta=1
    41                           	psect	text28,global,reloc=2,class=CODE,delta=1
    42                           	psect	text29,global,reloc=2,class=CODE,delta=1
    43                           	psect	intcode,global,reloc=2,class=CODE,delta=1
    44                           	psect	intcode_body,global,reloc=2,class=CODE,delta=1
    45                           	psect	text31,global,reloc=2,class=CODE,delta=1
    46                           	psect	text32,global,reloc=2,class=CODE,delta=1
    47                           	psect	text33,global,reloc=2,class=CODE,delta=1
    48                           	psect	text34,global,reloc=2,class=CODE,delta=1
    49                           	psect	text35,global,reloc=2,class=CODE,delta=1
    50                           	psect	text36,global,reloc=2,class=CODE,delta=1
    51                           	psect	text37,global,reloc=2,class=CODE,delta=1
    52                           	psect	text38,global,reloc=2,class=CODE,delta=1
    53                           	psect	text39,global,reloc=2,class=CODE,delta=1
    54                           	psect	text40,global,reloc=2,class=CODE,delta=1
    55                           	psect	text41,global,reloc=2,class=CODE,delta=1
    56                           	psect	text42,global,reloc=2,class=CODE,delta=1
    57                           	psect	text43,global,reloc=2,class=CODE,delta=1
    58                           	psect	text44,global,reloc=2,class=CODE,delta=1
    59                           	psect	text45,global,reloc=2,class=CODE,delta=1
    60                           	psect	text46,global,reloc=2,class=CODE,delta=1
    61                           	psect	text47,global,reloc=2,class=CODE,delta=1
    62                           	psect	text48,global,reloc=2,class=CODE,delta=1
    63                           	psect	intsave_regs,global,class=BIGRAM,space=1,delta=1,noexec
    64                           	psect	text49,global,reloc=2,class=CODE,delta=1
    65                           	psect	rparam,global,class=COMRAM,space=1,delta=1,noexec
    66                           	psect	temp,global,ovrld,common,class=COMRAM,space=1,delta=1
    67  0000                     
    68                           ; Version 1.43
    69                           ; Generated 25/07/2017 GMT
    70                           ; 
    71                           ; Copyright © 2017, Microchip Technology Inc. and its subsidiaries ("Microchip")
    72                           ; All rights reserved.
    73                           ; 
    74                           ; This software is developed by Microchip Technology Inc. and its subsidiaries ("Microch
      +                          ip").
    75                           ; 
    76                           ; Redistribution and use in source and binary forms, with or without modification, are
    77                           ; permitted provided that the following conditions are met:
    78                           ; 
    79                           ;     1. Redistributions of source code must retain the above copyright notice, this lis
      +                          t of
    80                           ;        conditions and the following disclaimer.
    81                           ; 
    82                           ;     2. Redistributions in binary form must reproduce the above copyright notice, this 
      +                          list
    83                           ;        of conditions and the following disclaimer in the documentation and/or other
    84                           ;        materials provided with the distribution.
    85                           ; 
    86                           ;     3. Microchip's name may not be used to endorse or promote products derived from th
      +                          is
    87                           ;        software without specific prior written permission.
    88                           ; 
    89                           ; THIS SOFTWARE IS PROVIDED BY MICROCHIP "AS IS" AND ANY EXPRESS OR IMPLIED WARRANTIES,
    90                           ; INCLUDING, BUT NOT LIMITED TO, THE IMPLIED WARRANTIES OF MERCHANTABILITY AND FITNESS F
      +                          OR
    91                           ; PURPOSE ARE DISCLAIMED.  IN NO EVENT SHALL MICROCHIP BE LIABLE FOR ANY DIRECT, INDIREC
      +                          T,
    92                           ; INCIDENTAL, SPECIAL, EXEMPLARY, OR CONSEQUENTIAL DAMAGES (INCLUDING BUT NOT LIMITED TO
    93                           ; PROCUREMENT OF SUBSTITUTE GOODS OR SERVICES; LOSS OF USE, DATA OR PROFITS; OR BUSINESS
    94                           ; INTERRUPTION) HOWSOEVER CAUSED AND ON ANY THEORY OF LIABILITY, WHETHER IN CONTRACT, ST
      +                          RICT
    95                           ; LIABILITY, OR TORT (INCLUDING NEGLIGENCE OR OTHERWISE) ARISING IN ANY WAY OUT OF THE U
      +                          SE OF
    96                           ; THIS SOFTWARE, EVEN IF ADVISED OF THE POSSIBILITY OF SUCH DAMAGE.
    97                           ; 
    98                           ; 
    99                           ; Code-generator required, PIC18F4550 Definitions
   100                           ; 
   101                           ; SFR Addresses
   102  0000                     
   103                           	psect	idataBANK0
   104  002804                     __pidataBANK0:
   105                           	opt stack 0
   106                           
   107                           ;initializer for _data1
   108  002804  06                 	db	6
   109  002805  07                 	db	7
   110  002806  06                 	db	6
   111  002807  06                 	db	6
   112  002808  07                 	db	7
   113  002809  17                 	db	23
   114  00280A  1F                 	db	31
   115  00280B  05                 	db	5
   116                           
   117                           ;initializer for _data0
   118  00280C  04                 	db	4
   119  00280D  0E                 	db	14
   120  00280E  0E                 	db	14
   121  00280F  0E                 	db	14
   122  002810  0E                 	db	14
   123  002811  1F                 	db	31
   124  002812  04                 	db	4
   125  002813  00                 	db	0
   126                           
   127                           	psect	mediumconst
   128  007ED6                     __pmediumconst:
   129                           	opt stack 0
   130  007ED6  00                 	db	0
   131  007ED7                     _dpowers:
   132                           	opt stack 0
   133  007ED7  0001               	dw	1
   134  007ED9  000A               	dw	10
   135  007EDB  0064               	dw	100
   136  007EDD  03E8               	dw	1000
   137  007EDF  2710               	dw	10000
   138  007EE1                     __end_of_dpowers:
   139                           	opt stack 0
   140  0000                     _TMR3	set	4018
   141  0000                     _TMR3L	set	4018
   142  0000                     _TMR3H	set	4019
   143  0000                     _T3CON	set	4017
   144  0000                     _T2CONbits	set	4042
   145  0000                     _TMR2	set	4044
   146  0000                     _PR2	set	4043
   147  0000                     _T2CON	set	4042
   148  0000                     _T3CONbits	set	4017
   149  0000                     _CCPR2H	set	4028
   150  0000                     _CCPR2L	set	4027
   151  0000                     _CCP2CON	set	4026
   152  0000                     _TMR1H	set	4047
   153  0000                     _TMR1L	set	4046
   154  0000                     _T1CONbits	set	4045
   155  0000                     _T1CON	set	4045
   156  0000                     _TMR0H	set	4055
   157  0000                     _TMR0L	set	4054
   158  0000                     _T0CONbits	set	4053
   159  0000                     _T0CON	set	4053
   160  0000                     _SSPSTATbits	set	4039
   161  0000                     _TRISAbits	set	3986
   162  0000                     _EEDATA	set	4008
   163  0000                     _EEADR	set	4009
   164  0000                     _EECON2	set	4007
   165  0000                     _EECON1bits	set	4006
   166  0000                     _TABLAT	set	4085
   167  0000                     _TBLPTRL	set	4086
   168  0000                     _TBLPTRH	set	4087
   169  0000                     _TBLPTRU	set	4088
   170  0000                     _OSCTUNE	set	3995
   171  0000                     _OSCCON	set	4051
   172  0000                     _TRISB	set	3987
   173  0000                     _INTCON3bits	set	4080
   174  0000                     _PORTB	set	3969
   175  0000                     _PIR2bits	set	4001
   176  0000                     _PIE2bits	set	4000
   177  0000                     _INTCONbits	set	4082
   178  0000                     _IPR2bits	set	4002
   179  0000                     _INTCON2bits	set	4081
   180  0000                     _IPR1bits	set	3999
   181  0000                     _SSPBUF	set	4041
   182  0000                     _SSPCON2bits	set	4037
   183  0000                     _SSPCON1bits	set	4038
   184  0000                     _SSPCON2	set	4037
   185  0000                     _SSPADD	set	4040
   186  0000                     _SSPCON1	set	4038
   187  0000                     _SSPSTAT	set	4039
   188  0000                     _TXREG1	set	4013
   189  0000                     _RCSTA1bits	set	4011
   190  0000                     _SPBRGH	set	4016
   191  0000                     _SPBRG1	set	4015
   192  0000                     _TXSTA1	set	4012
   193  0000                     _RCSTA1	set	4011
   194  0000                     _BAUDCON	set	4024
   195  0000                     _ADCON0bits	set	4034
   196  0000                     _PIE1bits	set	3997
   197  0000                     _PIR1bits	set	3998
   198  0000                     _ADRESH	set	4036
   199  0000                     _ADRESL	set	4035
   200  0000                     _ADCON2	set	4032
   201  0000                     _ADCON1bits	set	4033
   202  0000                     _ADCON0	set	4034
   203  0000                     _TRISDbits	set	3989
   204  0000                     _TRISD	set	3989
   205  0000                     _PORTD	set	3971
   206  0000                     _LATDbits	set	3980
   207  0000                     _TRISBbits	set	3987
   208  0000                     _PORTBbits	set	3969
   209  0000                     _RB3	set	31755
   210  0000                     _RB2	set	31754
   211  0000                     _RB1	set	31753
   212  0000                     _RB0	set	31752
   213  0000                     _IPEN	set	32391
   214  007EE1                     STR_1:
   215  007EE1  74                 	db	116	;'t'
   216  007EE2  75                 	db	117	;'u'
   217  007EE3  20                 	db	32
   218  007EE4  73                 	db	115	;'s'
   219  007EE5  63                 	db	99	;'c'
   220  007EE6  6F                 	db	111	;'o'
   221  007EE7  72                 	db	114	;'r'
   222  007EE8  65                 	db	101	;'e'
   223  007EE9  20                 	db	32
   224  007EEA  65                 	db	101	;'e'
   225  007EEB  73                 	db	115	;'s'
   226  007EEC  20                 	db	32
   227  007EED  64                 	db	100	;'d'
   228  007EEE  65                 	db	101	;'e'
   229  007EEF  3A                 	db	58	;':'
   230  007EF0  00                 	db	0
   231  007EF1                     STR_51:
   232  007EF1  20                 	db	32
   233  007EF2  20                 	db	32
   234  007EF3  20                 	db	32
   235  007EF4  20                 	db	32
   236  007EF5  20                 	db	32
   237  007EF6  20                 	db	32
   238  007EF7  20                 	db	32
   239  007EF8  20                 	db	32
   240  007EF9  20                 	db	32
   241  007EFA  20                 	db	32
   242  007EFB  20                 	db	32
   243  007EFC  20                 	db	32
   244  007EFD  00                 	db	0
   245  007EFE                     STR_49:
   246  007EFE  30                 	db	48	;'0'
   247  007EFF  20                 	db	32
   248  007F00  20                 	db	32
   249  007F01  20                 	db	32
   250  007F02  20                 	db	32
   251  007F03  20                 	db	32
   252  007F04  20                 	db	32
   253  007F05  20                 	db	32
   254  007F06  20                 	db	32
   255  007F07  20                 	db	32
   256  007F08  20                 	db	32
   257  007F09  20                 	db	32
   258  007F0A  00                 	db	0
   259  007F0B                     STR_47:
   260  007F0B  20                 	db	32
   261  007F0C  30                 	db	48	;'0'
   262  007F0D  20                 	db	32
   263  007F0E  20                 	db	32
   264  007F0F  20                 	db	32
   265  007F10  20                 	db	32
   266  007F11  20                 	db	32
   267  007F12  20                 	db	32
   268  007F13  20                 	db	32
   269  007F14  20                 	db	32
   270  007F15  20                 	db	32
   271  007F16  20                 	db	32
   272  007F17  00                 	db	0
   273  007F18                     STR_32:
   274  007F18  20                 	db	32
   275  007F19  30                 	db	48	;'0'
   276  007F1A  20                 	db	32
   277  007F1B  20                 	db	32
   278  007F1C  20                 	db	32
   279  007F1D  20                 	db	32
   280  007F1E  20                 	db	32
   281  007F1F  20                 	db	32
   282  007F20  20                 	db	32
   283  007F21  20                 	db	32
   284  007F22  20                 	db	32
   285  007F23  00                 	db	0
   286  007F24                     STR_30:
   287  007F24  20                 	db	32
   288  007F25  20                 	db	32
   289  007F26  30                 	db	48	;'0'
   290  007F27  20                 	db	32
   291  007F28  20                 	db	32
   292  007F29  20                 	db	32
   293  007F2A  20                 	db	32
   294  007F2B  20                 	db	32
   295  007F2C  20                 	db	32
   296  007F2D  20                 	db	32
   297  007F2E  20                 	db	32
   298  007F2F  00                 	db	0
   299  007F30                     STR_25:
   300  007F30  20                 	db	32
   301  007F31  20                 	db	32
   302  007F32  20                 	db	32
   303  007F33  30                 	db	48	;'0'
   304  007F34  20                 	db	32
   305  007F35  20                 	db	32
   306  007F36  20                 	db	32
   307  007F37  20                 	db	32
   308  007F38  20                 	db	32
   309  007F39  20                 	db	32
   310  007F3A  20                 	db	32
   311  007F3B  00                 	db	0
   312  007F3C                     STR_23:
   313  007F3C  20                 	db	32
   314  007F3D  20                 	db	32
   315  007F3E  20                 	db	32
   316  007F3F  20                 	db	32
   317  007F40  30                 	db	48	;'0'
   318  007F41  20                 	db	32
   319  007F42  20                 	db	32
   320  007F43  20                 	db	32
   321  007F44  20                 	db	32
   322  007F45  20                 	db	32
   323  007F46  20                 	db	32
   324  007F47  00                 	db	0
   325  007F48                     STR_21:
   326  007F48  20                 	db	32
   327  007F49  20                 	db	32
   328  007F4A  20                 	db	32
   329  007F4B  20                 	db	32
   330  007F4C  20                 	db	32
   331  007F4D  30                 	db	48	;'0'
   332  007F4E  20                 	db	32
   333  007F4F  20                 	db	32
   334  007F50  20                 	db	32
   335  007F51  20                 	db	32
   336  007F52  20                 	db	32
   337  007F53  00                 	db	0
   338  007F54                     STR_24:
   339  007F54  30                 	db	48	;'0'
   340  007F55  20                 	db	32
   341  007F56  20                 	db	32
   342  007F57  20                 	db	32
   343  007F58  20                 	db	32
   344  007F59  30                 	db	48	;'0'
   345  007F5A  20                 	db	32
   346  007F5B  20                 	db	32
   347  007F5C  20                 	db	32
   348  007F5D  20                 	db	32
   349  007F5E  20                 	db	32
   350  007F5F  00                 	db	0
   351  007F60                     STR_12:
   352  007F60  20                 	db	32
   353  007F61  20                 	db	32
   354  007F62  20                 	db	32
   355  007F63  20                 	db	32
   356  007F64  20                 	db	32
   357  007F65  20                 	db	32
   358  007F66  30                 	db	48	;'0'
   359  007F67  20                 	db	32
   360  007F68  20                 	db	32
   361  007F69  20                 	db	32
   362  007F6A  20                 	db	32
   363  007F6B  00                 	db	0
   364  007F6C                     STR_22:
   365  007F6C  20                 	db	32
   366  007F6D  30                 	db	48	;'0'
   367  007F6E  20                 	db	32
   368  007F6F  20                 	db	32
   369  007F70  20                 	db	32
   370  007F71  20                 	db	32
   371  007F72  30                 	db	48	;'0'
   372  007F73  20                 	db	32
   373  007F74  20                 	db	32
   374  007F75  20                 	db	32
   375  007F76  20                 	db	32
   376  007F77  00                 	db	0
   377  007F78                     STR_10:
   378  007F78  20                 	db	32
   379  007F79  20                 	db	32
   380  007F7A  20                 	db	32
   381  007F7B  20                 	db	32
   382  007F7C  20                 	db	32
   383  007F7D  20                 	db	32
   384  007F7E  20                 	db	32
   385  007F7F  30                 	db	48	;'0'
   386  007F80  20                 	db	32
   387  007F81  20                 	db	32
   388  007F82  20                 	db	32
   389  007F83  00                 	db	0
   390  007F84                     STR_20:
   391  007F84  20                 	db	32
   392  007F85  20                 	db	32
   393  007F86  30                 	db	48	;'0'
   394  007F87  20                 	db	32
   395  007F88  20                 	db	32
   396  007F89  20                 	db	32
   397  007F8A  20                 	db	32
   398  007F8B  30                 	db	48	;'0'
   399  007F8C  20                 	db	32
   400  007F8D  20                 	db	32
   401  007F8E  20                 	db	32
   402  007F8F  00                 	db	0
   403  007F90                     STR_8:
   404  007F90  20                 	db	32
   405  007F91  20                 	db	32
   406  007F92  20                 	db	32
   407  007F93  20                 	db	32
   408  007F94  20                 	db	32
   409  007F95  20                 	db	32
   410  007F96  20                 	db	32
   411  007F97  20                 	db	32
   412  007F98  30                 	db	48	;'0'
   413  007F99  20                 	db	32
   414  007F9A  20                 	db	32
   415  007F9B  00                 	db	0
   416  007F9C                     STR_31:
   417  007F9C  30                 	db	48	;'0'
   418  007F9D  20                 	db	32
   419  007F9E  20                 	db	32
   420  007F9F  20                 	db	32
   421  007FA0  20                 	db	32
   422  007FA1  20                 	db	32
   423  007FA2  20                 	db	32
   424  007FA3  20                 	db	32
   425  007FA4  30                 	db	48	;'0'
   426  007FA5  20                 	db	32
   427  007FA6  20                 	db	32
   428  007FA7  00                 	db	0
   429  007FA8                     STR_18:
   430  007FA8  20                 	db	32
   431  007FA9  20                 	db	32
   432  007FAA  20                 	db	32
   433  007FAB  30                 	db	48	;'0'
   434  007FAC  20                 	db	32
   435  007FAD  20                 	db	32
   436  007FAE  20                 	db	32
   437  007FAF  20                 	db	32
   438  007FB0  30                 	db	48	;'0'
   439  007FB1  20                 	db	32
   440  007FB2  20                 	db	32
   441  007FB3  00                 	db	0
   442  007FB4                     STR_6:
   443  007FB4  20                 	db	32
   444  007FB5  20                 	db	32
   445  007FB6  20                 	db	32
   446  007FB7  20                 	db	32
   447  007FB8  20                 	db	32
   448  007FB9  20                 	db	32
   449  007FBA  20                 	db	32
   450  007FBB  20                 	db	32
   451  007FBC  20                 	db	32
   452  007FBD  30                 	db	48	;'0'
   453  007FBE  20                 	db	32
   454  007FBF  00                 	db	0
   455  007FC0                     STR_29:
   456  007FC0  20                 	db	32
   457  007FC1  30                 	db	48	;'0'
   458  007FC2  20                 	db	32
   459  007FC3  20                 	db	32
   460  007FC4  20                 	db	32
   461  007FC5  20                 	db	32
   462  007FC6  20                 	db	32
   463  007FC7  20                 	db	32
   464  007FC8  20                 	db	32
   465  007FC9  30                 	db	48	;'0'
   466  007FCA  20                 	db	32
   467  007FCB  00                 	db	0
   468  007FCC                     STR_16:
   469  007FCC  20                 	db	32
   470  007FCD  20                 	db	32
   471  007FCE  20                 	db	32
   472  007FCF  20                 	db	32
   473  007FD0  30                 	db	48	;'0'
   474  007FD1  20                 	db	32
   475  007FD2  20                 	db	32
   476  007FD3  20                 	db	32
   477  007FD4  20                 	db	32
   478  007FD5  30                 	db	48	;'0'
   479  007FD6  20                 	db	32
   480  007FD7  00                 	db	0
   481  007FD8                     STR_4:
   482  007FD8  20                 	db	32
   483  007FD9  20                 	db	32
   484  007FDA  20                 	db	32
   485  007FDB  20                 	db	32
   486  007FDC  20                 	db	32
   487  007FDD  20                 	db	32
   488  007FDE  20                 	db	32
   489  007FDF  20                 	db	32
   490  007FE0  20                 	db	32
   491  007FE1  20                 	db	32
   492  007FE2  30                 	db	48	;'0'
   493  007FE3  00                 	db	0
   494  007FE4                     STR_27:
   495  007FE4  20                 	db	32
   496  007FE5  20                 	db	32
   497  007FE6  30                 	db	48	;'0'
   498  007FE7  20                 	db	32
   499  007FE8  20                 	db	32
   500  007FE9  20                 	db	32
   501  007FEA  20                 	db	32
   502  007FEB  20                 	db	32
   503  007FEC  20                 	db	32
   504  007FED  20                 	db	32
   505  007FEE  30                 	db	48	;'0'
   506  007FEF  00                 	db	0
   507  007FF0                     STR_14:
   508  007FF0  20                 	db	32
   509  007FF1  20                 	db	32
   510  007FF2  20                 	db	32
   511  007FF3  20                 	db	32
   512  007FF4  20                 	db	32
   513  007FF5  30                 	db	48	;'0'
   514  007FF6  20                 	db	32
   515  007FF7  20                 	db	32
   516  007FF8  20                 	db	32
   517  007FF9  20                 	db	32
   518  007FFA  30                 	db	48	;'0'
   519  007FFB  00                 	db	0
   520  007FFC                     STR_2:
   521  007FFC  25                 	db	37
   522  007FFD  64                 	db	100	;'d'
   523  007FFE  00                 	db	0
   524  0000                     
   525                           ; #config settings
   526  007FFF  00                 	db	0	; dummy byte at the end
   527  0000                     
   528                           	psect	cinit
   529  002546                     __pcinit:
   530                           	opt stack 0
   531  002546                     start_initialization:
   532                           	opt stack 0
   533  002546                     __initialization:
   534                           	opt stack 0
   535                           
   536                           ; Initialize objects allocated to BANK0 (16 bytes)
   537                           ; load TBLPTR registers with __pidataBANK0
   538  002546  0E04               	movlw	low __pidataBANK0
   539  002548  6EF6               	movwf	tblptrl,c
   540  00254A  0E28               	movlw	high __pidataBANK0
   541  00254C  6EF7               	movwf	tblptrh,c
   542  00254E  0E00               	movlw	low (__pidataBANK0 shr (0+16))
   543  002550  6EF8               	movwf	tblptru,c
   544  002552  EE00  F0EA         	lfsr	0,__pdataBANK0
   545  002556  EE10 F010          	lfsr	1,16
   546  00255A                     copy_data0:
   547  00255A  0009               	tblrd		*+
   548  00255C  CFF5 FFEE          	movff	tablat,postinc0
   549  002560  50E5               	movf	postdec1,w,c
   550  002562  50E1               	movf	fsr1l,w,c
   551  002564  E1FA               	bnz	copy_data0
   552                           
   553                           ; Clear objects allocated to BANK0 (116 bytes)
   554  002566  EE00  F060         	lfsr	0,__pbssBANK0
   555  00256A  0E74               	movlw	116
   556  00256C                     clear_0:
   557  00256C  6AEE               	clrf	postinc0,c
   558  00256E  06E8               	decf	wreg,f,c
   559  002570  E1FD               	bnz	clear_0
   560                           
   561                           ; Clear objects allocated to COMRAM (21 bytes)
   562  002572  EE00  F034         	lfsr	0,__pbssCOMRAM
   563  002576  0E15               	movlw	21
   564  002578                     clear_1:
   565  002578  6AEE               	clrf	postinc0,c
   566  00257A  06E8               	decf	wreg,f,c
   567  00257C  E1FD               	bnz	clear_1
   568  00257E                     end_of_initialization:
   569                           	opt stack 0
   570  00257E                     __end_of__initialization:
   571                           	opt stack 0
   572  00257E  9049               	bcf	int$flags,0,c	;clear compiler interrupt flag (level 1)
   573  002580  9249               	bcf	int$flags,1,c	;clear compiler interrupt flag (level 2)
   574  002582  0E00               	movlw	low (__Lmediumconst shr (0+16))
   575  002584  6EF8               	movwf	tblptru,c
   576  002586  0100               	movlb	0
   577  002588  EF9D  F011         	goto	_main	;jump to C main() function
   578                           tblptru	equ	0xFF8
   579                           tblptrh	equ	0xFF7
   580                           tblptrl	equ	0xFF6
   581                           tablat	equ	0xFF5
   582                           postinc0	equ	0xFEE
   583                           wreg	equ	0xFE8
   584                           postdec1	equ	0xFE5
   585                           fsr1l	equ	0xFE1
   586                           
   587                           	psect	bssCOMRAM
   588  000034                     __pbssCOMRAM:
   589                           	opt stack 0
   590  000034                     _timer3ReloadVal:
   591                           	opt stack 0
   592  000034                     	ds	2
   593  000036                     _timer1ReloadVal:
   594                           	opt stack 0
   595  000036                     	ds	2
   596  000038                     _timer0ReloadVal:
   597                           	opt stack 0
   598  000038                     	ds	2
   599  00003A                     _counter:
   600                           	opt stack 0
   601  00003A                     	ds	2
   602  00003C                     _timer0ReloadVal8bit:
   603                           	opt stack 0
   604  00003C                     	ds	1
   605  00003D                     I2C1_ISR@i2c_10bit_address_restart:
   606                           	opt stack 0
   607  00003D                     	ds	1
   608  00003E                     I2C1_ISR@i2c_bytes_left:
   609                           	opt stack 0
   610  00003E                     	ds	1
   611  00003F                     _i2c1_trb_count:
   612                           	opt stack 0
   613  00003F                     	ds	1
   614  000040                     _i2c1_state:
   615                           	opt stack 0
   616  000040                     	ds	1
   617  000041                     _eusart1RxCount:
   618                           	opt stack 0
   619  000041                     	ds	1
   620  000042                     _eusart1RxTail:
   621                           	opt stack 0
   622  000042                     	ds	1
   623  000043                     _eusart1TxBufferRemaining:
   624                           	opt stack 0
   625  000043                     	ds	1
   626  000044                     _eusart1TxTail:
   627                           	opt stack 0
   628  000044                     	ds	1
   629  000045                     _eusart1TxHead:
   630                           	opt stack 0
   631  000045                     	ds	1
   632  000046                     WriteSWSPI@input:
   633                           	opt stack 0
   634  000046                     	ds	1
   635  000047                     I2C1_ISR@i2c_address:
   636                           	opt stack 0
   637  000047                     	ds	2
   638                           tblptru	equ	0xFF8
   639                           tblptrh	equ	0xFF7
   640                           tblptrl	equ	0xFF6
   641                           tablat	equ	0xFF5
   642                           postinc0	equ	0xFEE
   643                           wreg	equ	0xFE8
   644                           postdec1	equ	0xFE5
   645                           fsr1l	equ	0xFE1
   646                           
   647                           	psect	bssBANK0
   648  000060                     __pbssBANK0:
   649                           	opt stack 0
   650  000060                     _eusart1RxBuffer:
   651                           	opt stack 0
   652  000060                     	ds	50
   653  000092                     _ADC_Buffer:
   654                           	opt stack 0
   655  000092                     	ds	10
   656  00009C                     _eusart1TxBuffer:
   657                           	opt stack 0
   658  00009C                     	ds	8
   659  0000A4                     _i2c1_object:
   660                           	opt stack 0
   661  0000A4                     	ds	7
   662  0000AB                     _Temp:
   663                           	opt stack 0
   664  0000AB                     	ds	2
   665  0000AD                     _ADC_Value2:
   666                           	opt stack 0
   667  0000AD                     	ds	2
   668  0000AF                     _porcHumidity:
   669                           	opt stack 0
   670  0000AF                     	ds	2
   671  0000B1                     _ADC_Value:
   672                           	opt stack 0
   673  0000B1                     	ds	2
   674  0000B3                     I2C1_ISR@pi2c_buf_ptr:
   675                           	opt stack 0
   676  0000B3                     	ds	2
   677  0000B5                     _p_i2c1_current:
   678                           	opt stack 0
   679  0000B5                     	ds	2
   680  0000B7                     _p_i2c1_trb_current:
   681                           	opt stack 0
   682  0000B7                     	ds	2
   683  0000B9                     _TMR3_InterruptHandler:
   684                           	opt stack 0
   685  0000B9                     	ds	2
   686  0000BB                     _TMR2_InterruptHandler:
   687                           	opt stack 0
   688  0000BB                     	ds	2
   689  0000BD                     _TMR1_InterruptHandler:
   690                           	opt stack 0
   691  0000BD                     	ds	2
   692  0000BF                     	ds	1
   693  0000C0                     _Timer0_Flag:
   694                           	opt stack 0
   695  0000C0                     	ds	1
   696  0000C1                     _Timer0_Counter:
   697                           	opt stack 0
   698  0000C1                     	ds	1
   699  0000C2                     I2C1_MasterRead@trBlock:
   700                           	opt stack 0
   701  0000C2                     	ds	6
   702  0000C8                     I2C1_MasterWrite@trBlock:
   703                           	opt stack 0
   704  0000C8                     	ds	6
   705  0000CE                     _i2c1_tr_queue:
   706                           	opt stack 0
   707  0000CE                     	ds	6
   708                           tblptru	equ	0xFF8
   709                           tblptrh	equ	0xFF7
   710                           tblptrl	equ	0xFF6
   711                           tablat	equ	0xFF5
   712                           postinc0	equ	0xFEE
   713                           wreg	equ	0xFE8
   714                           postdec1	equ	0xFE5
   715                           fsr1l	equ	0xFE1
   716                           
   717                           	psect	dataBANK0
   718  0000EA                     __pdataBANK0:
   719                           	opt stack 0
   720  0000EA                     _data1:
   721                           	opt stack 0
   722  0000EA                     	ds	8
   723  0000F2                     _data0:
   724                           	opt stack 0
   725  0000F2                     	ds	8
   726                           tblptru	equ	0xFF8
   727                           tblptrh	equ	0xFF7
   728                           tblptrl	equ	0xFF6
   729                           tablat	equ	0xFF5
   730                           postinc0	equ	0xFEE
   731                           wreg	equ	0xFE8
   732                           postdec1	equ	0xFE5
   733                           fsr1l	equ	0xFE1
   734                           
   735                           	psect	cstackBANK0
   736  0000D4                     __pcstackBANK0:
   737                           	opt stack 0
   738  0000D4                     ?_changeStages:
   739                           	opt stack 0
   740  0000D4                     changeStages@parameter1:
   741                           	opt stack 0
   742  0000D4                     printscore@buffer2:
   743                           	opt stack 0
   744                           
   745                           ; 10 bytes @ 0x0
   746  0000D4                     	ds	2
   747  0000D6                     changeStages@parameter2:
   748                           	opt stack 0
   749                           
   750                           ; 2 bytes @ 0x2
   751  0000D6                     	ds	2
   752  0000D8                     changeStages@enemPos:
   753                           	opt stack 0
   754                           
   755                           ; 2 bytes @ 0x4
   756  0000D8                     	ds	2
   757  0000DA                     changeStages@buffer:
   758                           	opt stack 0
   759                           
   760                           ; 10 bytes @ 0x6
   761  0000DA                     	ds	10
   762  0000E4                     changeStages@pos:
   763                           	opt stack 0
   764                           
   765                           ; 2 bytes @ 0x10
   766  0000E4                     	ds	2
   767  0000E6                     juego4@score:
   768                           	opt stack 0
   769                           
   770                           ; 2 bytes @ 0x12
   771  0000E6                     	ds	2
   772  0000E8                     main@score:
   773                           	opt stack 0
   774                           
   775                           ; 2 bytes @ 0x14
   776  0000E8                     	ds	2
   777                           tblptru	equ	0xFF8
   778                           tblptrh	equ	0xFF7
   779                           tblptrl	equ	0xFF6
   780                           tablat	equ	0xFF5
   781                           postinc0	equ	0xFEE
   782                           wreg	equ	0xFE8
   783                           postdec1	equ	0xFE5
   784                           fsr1l	equ	0xFE1
   785                           
   786                           	psect	cstackCOMRAM
   787  000001                     __pcstackCOMRAM:
   788                           	opt stack 0
   789  000001                     ??_I2C1_ISR:
   790  000001                     i2TMR0_WriteTimer@timerVal:
   791                           	opt stack 0
   792                           
   793                           ; 2 bytes @ 0x0
   794  000001                     	ds	2
   795  000003                     ??_INTERRUPT_InterruptManager:
   796  000003                     
   797                           ; 1 bytes @ 0x2
   798  000003                     	ds	18
   799  000015                     INTERRUPT_InterruptManager@__portb__:
   800                           	opt stack 0
   801                           
   802                           ; 1 bytes @ 0x14
   803  000015                     	ds	1
   804  000016                     ??_DelayPORXLCD:
   805  000016                     ??_Delay10KTCYx:
   806  000016                     ??_SetDDRamAddr:
   807  000016                     ?_ADC_GetConversion:
   808                           	opt stack 0
   809  000016                     ?___lwdiv:
   810                           	opt stack 0
   811  000016                     WriteCmdXLCD@cmd:
   812                           	opt stack 0
   813  000016                     WriteDataXLCD@data:
   814                           	opt stack 0
   815  000016                     TMR0_WriteTimer@timerVal:
   816                           	opt stack 0
   817  000016                     ___lwdiv@dividend:
   818                           	opt stack 0
   819                           
   820                           ; 2 bytes @ 0x15
   821  000016                     	ds	1
   822  000017                     Delay10KTCYx@unit:
   823                           	opt stack 0
   824  000017                     putsXLCD@buffer:
   825                           	opt stack 0
   826  000017                     createCharacter@data:
   827                           	opt stack 0
   828  000017                     printCharacter@number:
   829                           	opt stack 0
   830                           
   831                           ; 2 bytes @ 0x16
   832  000017                     	ds	1
   833  000018                     ??_ADC_GetConversion:
   834  000018                     ___lwdiv@divisor:
   835                           	opt stack 0
   836                           
   837                           ; 2 bytes @ 0x17
   838  000018                     	ds	1
   839  000019                     SetDDRamAddr@DDaddr:
   840                           	opt stack 0
   841  000019                     createCharacter@number:
   842                           	opt stack 0
   843                           
   844                           ; 1 bytes @ 0x18
   845  000019                     	ds	1
   846  00001A                     OpenXLCD@lcdtype:
   847                           	opt stack 0
   848  00001A                     ADC_GetConversion@channel:
   849                           	opt stack 0
   850  00001A                     createCharacter@i:
   851                           	opt stack 0
   852  00001A                     ___lwdiv@counter:
   853                           	opt stack 0
   854                           
   855                           ; 1 bytes @ 0x19
   856  00001A                     	ds	1
   857  00001B                     createCharacter@i_1981:
   858                           	opt stack 0
   859  00001B                     ___lwdiv@quotient:
   860                           	opt stack 0
   861                           
   862                           ; 2 bytes @ 0x1A
   863  00001B                     	ds	2
   864  00001D                     ?___lwmod:
   865                           	opt stack 0
   866  00001D                     ___lwmod@dividend:
   867                           	opt stack 0
   868                           
   869                           ; 2 bytes @ 0x1C
   870  00001D                     	ds	2
   871  00001F                     ___lwmod@divisor:
   872                           	opt stack 0
   873                           
   874                           ; 2 bytes @ 0x1E
   875  00001F                     	ds	2
   876  000021                     ___lwmod@counter:
   877                           	opt stack 0
   878                           
   879                           ; 1 bytes @ 0x20
   880  000021                     	ds	1
   881  000022                     ?_sprintf:
   882                           	opt stack 0
   883  000022                     sprintf@sp:
   884                           	opt stack 0
   885                           
   886                           ; 2 bytes @ 0x21
   887  000022                     	ds	2
   888  000024                     sprintf@f:
   889                           	opt stack 0
   890                           
   891                           ; 2 bytes @ 0x23
   892  000024                     	ds	4
   893  000028                     ??_sprintf:
   894                           
   895                           ; 1 bytes @ 0x27
   896  000028                     	ds	1
   897  000029                     sprintf@ap:
   898                           	opt stack 0
   899                           
   900                           ; 2 bytes @ 0x28
   901  000029                     	ds	2
   902  00002B                     sprintf@flag:
   903                           	opt stack 0
   904                           
   905                           ; 1 bytes @ 0x2A
   906  00002B                     	ds	1
   907  00002C                     sprintf@prec:
   908                           	opt stack 0
   909                           
   910                           ; 1 bytes @ 0x2B
   911  00002C                     	ds	1
   912  00002D                     sprintf@val:
   913                           	opt stack 0
   914                           
   915                           ; 2 bytes @ 0x2C
   916  00002D                     	ds	2
   917  00002F                     sprintf@c:
   918                           	opt stack 0
   919                           
   920                           ; 1 bytes @ 0x2E
   921  00002F                     	ds	1
   922  000030                     ??_juego1:
   923  000030                     ??_juego2:
   924  000030                     ??_juego3:
   925  000030                     ?_juego4:
   926                           	opt stack 0
   927  000030                     printscore@score:
   928                           	opt stack 0
   929                           
   930                           ; 2 bytes @ 0x2F
   931  000030                     	ds	2
   932  000032                     ??_juego4:
   933  000032                     
   934                           ; 1 bytes @ 0x31
   935  000032                     	ds	2
   936  000034                     tblptru	equ	0xFF8
   937                           tblptrh	equ	0xFF7
   938                           tblptrl	equ	0xFF6
   939                           tablat	equ	0xFF5
   940                           postinc0	equ	0xFEE
   941                           wreg	equ	0xFE8
   942                           postdec1	equ	0xFE5
   943                           fsr1l	equ	0xFE1
   944                           
   945                           ; 1 bytes @ 0x33
   946 ;;
   947 ;;Main: autosize = 0, tempsize = 0, incstack = 0, save=0
   948 ;;
   949 ;; *************** function _main *****************
   950 ;; Defined at:
   951 ;;		line 86 in file "main.c"
   952 ;; Parameters:    Size  Location     Type
   953 ;;		None
   954 ;; Auto vars:     Size  Location     Type
   955 ;;  score           2   20[BANK0 ] int 
   956 ;; Return value:  Size  Location     Type
   957 ;;                  1    wreg      void 
   958 ;; Registers used:
   959 ;;		wreg, fsr0l, fsr0h, fsr2l, fsr2h, status,2, status,0, tblptrl, tblptrh, tblptru, prodl, prodh, cstack
   960 ;; Tracked objects:
   961 ;;		On entry : 0/0
   962 ;;		On exit  : 0/0
   963 ;;		Unchanged: 0/0
   964 ;; Data sizes:     COMRAM   BANK0   BANK1   BANK2   BANK3   BANK4   BANK5   BANK6   BANK7
   965 ;;      Params:         0       0       0       0       0       0       0       0       0
   966 ;;      Locals:         0       2       0       0       0       0       0       0       0
   967 ;;      Temps:          0       0       0       0       0       0       0       0       0
   968 ;;      Totals:         0       2       0       0       0       0       0       0       0
   969 ;;Total ram usage:        2 bytes
   970 ;; Hardware stack levels required when called:   10
   971 ;; This function calls:
   972 ;;		_SYSTEM_Initialize
   973 ;;		_createCharacter
   974 ;;		_juego1
   975 ;;		_juego2
   976 ;;		_juego3
   977 ;;		_juego4
   978 ;;		_printscore
   979 ;; This function is called by:
   980 ;;		Startup code after reset
   981 ;; This function uses a non-reentrant model
   982 ;;
   983                           
   984                           	psect	text0
   985  00233A                     __ptext0:
   986                           	opt stack 0
   987  00233A                     _main:
   988                           	opt stack 21
   989                           
   990                           ;main.c: 90: SYSTEM_Initialize();
   991                           
   992                           ;incstack = 0
   993  00233A  ECDA  F013         	call	_SYSTEM_Initialize	;wreg free
   994                           
   995                           ;main.c: 93: (INTCONbits.GIE = 1);
   996  00233E  8EF2               	bsf	intcon,7,c	;volatile
   997                           
   998                           ;main.c: 96: (INTCONbits.PEIE = 1);
   999  002340  8CF2               	bsf	intcon,6,c	;volatile
  1000                           
  1001                           ;main.c: 104: createCharacter(data0, 0);
  1002  002342  0EF2               	movlw	low _data0
  1003  002344  6E17               	movwf	createCharacter@data,c
  1004  002346  0E00               	movlw	high _data0
  1005  002348  6E18               	movwf	createCharacter@data+1,c
  1006  00234A  0E00               	movlw	0
  1007  00234C  6E19               	movwf	createCharacter@number,c
  1008  00234E  EC26  F012         	call	_createCharacter	;wreg free
  1009                           
  1010                           ;main.c: 105: createCharacter(data1 , 1);
  1011  002352  0EEA               	movlw	low _data1
  1012  002354  6E17               	movwf	createCharacter@data,c
  1013  002356  0E00               	movlw	high _data1
  1014  002358  6E18               	movwf	createCharacter@data+1,c
  1015  00235A  0E01               	movlw	1
  1016  00235C  6E19               	movwf	createCharacter@number,c
  1017  00235E  EC26  F012         	call	_createCharacter	;wreg free
  1018                           
  1019                           ;main.c: 107: TRISB = 0b0000000;
  1020  002362  0E00               	movlw	0
  1021  002364  6E93               	movwf	3987,c	;volatile
  1022                           
  1023                           ;main.c: 109: RB0 = 1;
  1024  002366  8081               	bsf	3969,0,c	;volatile
  1025                           
  1026                           ;main.c: 110: juego1();
  1027  002368  ECBE  F00A         	call	_juego1	;wreg free
  1028                           
  1029                           ;main.c: 111: RB0 = 0;
  1030  00236C  9081               	bcf	3969,0,c	;volatile
  1031                           
  1032                           ;main.c: 112: RB1 = 1;
  1033  00236E  8281               	bsf	3969,1,c	;volatile
  1034                           
  1035                           ;main.c: 113: juego2();
  1036  002370  EC39  F007         	call	_juego2	;wreg free
  1037                           
  1038                           ;main.c: 114: RB1 = 0;
  1039  002374  9281               	bcf	3969,1,c	;volatile
  1040                           
  1041                           ;main.c: 115: RB2 = 1;
  1042  002376  8481               	bsf	3969,2,c	;volatile
  1043                           
  1044                           ;main.c: 116: juego3();
  1045  002378  EC09  F000         	call	_juego3	;wreg free
  1046                           
  1047                           ;main.c: 117: RB2 = 0;
  1048  00237C  9481               	bcf	3969,2,c	;volatile
  1049                           
  1050                           ;main.c: 118: RB3 = 1;
  1051  00237E  8681               	bsf	3969,3,c	;volatile
  1052                           
  1053                           ;main.c: 119: int score = juego4();
  1054  002380  ECAC  F003         	call	_juego4	;wreg free
  1055  002384  C030  F0E8         	movff	?_juego4,main@score
  1056  002388  C031  F0E9         	movff	?_juego4+1,main@score+1
  1057  00238C                     
  1058                           ;main.c: 122: printscore(score);
  1059  00238C  C0E8  F030         	movff	main@score,printscore@score
  1060  002390  C0E9  F031         	movff	main@score+1,printscore@score+1
  1061  002394  ECFB  F011         	call	_printscore	;wreg free
  1062  002398  D7F9               	goto	l636
  1063  00239A                     __end_of_main:
  1064                           	opt stack 0
  1065                           tblptru	equ	0xFF8
  1066                           tblptrh	equ	0xFF7
  1067                           tblptrl	equ	0xFF6
  1068                           tablat	equ	0xFF5
  1069                           intcon	equ	0xFF2
  1070                           postinc0	equ	0xFEE
  1071                           wreg	equ	0xFE8
  1072                           postdec1	equ	0xFE5
  1073                           fsr1l	equ	0xFE1
  1074                           
  1075 ;; *************** function _printscore *****************
  1076 ;; Defined at:
  1077 ;;		line 130 in file "main.c"
  1078 ;; Parameters:    Size  Location     Type
  1079 ;;  score           2   47[COMRAM] int 
  1080 ;; Auto vars:     Size  Location     Type
  1081 ;;  buffer2        10    0[BANK0 ] unsigned char [10]
  1082 ;; Return value:  Size  Location     Type
  1083 ;;                  1    wreg      void 
  1084 ;; Registers used:
  1085 ;;		wreg, fsr0l, fsr0h, fsr2l, fsr2h, status,2, status,0, tblptrl, tblptrh, tblptru, prodl, prodh, cstack
  1086 ;; Tracked objects:
  1087 ;;		On entry : 0/0
  1088 ;;		On exit  : 0/0
  1089 ;;		Unchanged: 0/0
  1090 ;; Data sizes:     COMRAM   BANK0   BANK1   BANK2   BANK3   BANK4   BANK5   BANK6   BANK7
  1091 ;;      Params:         2       0       0       0       0       0       0       0       0
  1092 ;;      Locals:         0      10       0       0       0       0       0       0       0
  1093 ;;      Temps:          0       0       0       0       0       0       0       0       0
  1094 ;;      Totals:         2      10       0       0       0       0       0       0       0
  1095 ;;Total ram usage:       12 bytes
  1096 ;; Hardware stack levels used:    1
  1097 ;; Hardware stack levels required when called:    6
  1098 ;; This function calls:
  1099 ;;		_BusyXLCD
  1100 ;;		_SetDDRamAddr
  1101 ;;		_putsXLCD
  1102 ;;		_sprintf
  1103 ;; This function is called by:
  1104 ;;		_main
  1105 ;; This function uses a non-reentrant model
  1106 ;;
  1107                           
  1108                           	psect	text1
  1109  0023F6                     __ptext1:
  1110                           	opt stack 0
  1111  0023F6                     _printscore:
  1112                           	opt stack 24
  1113                           
  1114                           ;main.c: 132: char buffer2[10];
  1115                           ;main.c: 133: while(BusyXLCD());
  1116                           
  1117                           ;incstack = 0
  1118  0023F6  EC43  F013         	call	_BusyXLCD	;wreg free
  1119  0023FA  0900               	iorlw	0
  1120  0023FC  A4D8               	btfss	status,2,c
  1121  0023FE  D7FB               	goto	_printscore
  1122                           
  1123                           ;main.c: 134: SetDDRamAddr(0x0);
  1124  002400  0E00               	movlw	0
  1125  002402  EC7A  F012         	call	_SetDDRamAddr
  1126                           
  1127                           ;main.c: 135: putsXLCD("tu score es de:");
  1128  002406  0EE1               	movlw	low STR_1
  1129  002408  6E17               	movwf	putsXLCD@buffer,c
  1130  00240A  0E7E               	movlw	high STR_1
  1131  00240C  6E18               	movwf	putsXLCD@buffer+1,c
  1132  00240E  ECCD  F011         	call	_putsXLCD	;wreg free
  1133  002412  EC43  F013         	call	_BusyXLCD	;wreg free
  1134  002416  0900               	iorlw	0
  1135  002418  A4D8               	btfss	status,2,c
  1136  00241A  D7FB               	goto	l646
  1137                           
  1138                           ;main.c: 137: SetDDRamAddr(0x40);
  1139  00241C  0E40               	movlw	64
  1140  00241E  EC7A  F012         	call	_SetDDRamAddr
  1141                           
  1142                           ;main.c: 138: sprintf(buffer2,"%d",score);
  1143  002422  0ED4               	movlw	low printscore@buffer2
  1144  002424  6E22               	movwf	sprintf@sp,c
  1145  002426  0E00               	movlw	high printscore@buffer2
  1146  002428  6E23               	movwf	sprintf@sp+1,c
  1147  00242A  0EFC               	movlw	low STR_2
  1148  00242C  6E24               	movwf	sprintf@f,c
  1149  00242E  0E7F               	movlw	high STR_2
  1150  002430  6E25               	movwf	sprintf@f+1,c
  1151  002432  C030  F026         	movff	printscore@score,?_sprintf+4
  1152  002436  C031  F027         	movff	printscore@score+1,?_sprintf+5
  1153  00243A  EC1F  F010         	call	_sprintf	;wreg free
  1154                           
  1155                           ;main.c: 139: putsXLCD(buffer2);
  1156  00243E  0ED4               	movlw	low printscore@buffer2
  1157  002440  6E17               	movwf	putsXLCD@buffer,c
  1158  002442  0E00               	movlw	high printscore@buffer2
  1159  002444  6E18               	movwf	putsXLCD@buffer+1,c
  1160  002446  ECCD  F011         	call	_putsXLCD	;wreg free
  1161  00244A  0012               	return		;funcret
  1162  00244C                     __end_of_printscore:
  1163                           	opt stack 0
  1164                           tblptru	equ	0xFF8
  1165                           tblptrh	equ	0xFF7
  1166                           tblptrl	equ	0xFF6
  1167                           tablat	equ	0xFF5
  1168                           intcon	equ	0xFF2
  1169                           postinc0	equ	0xFEE
  1170                           wreg	equ	0xFE8
  1171                           postdec1	equ	0xFE5
  1172                           fsr1l	equ	0xFE1
  1173                           status	equ	0xFD8
  1174                           
  1175 ;; *************** function _juego4 *****************
  1176 ;; Defined at:
  1177 ;;		line 476 in file "main.c"
  1178 ;; Parameters:    Size  Location     Type
  1179 ;;		None
  1180 ;; Auto vars:     Size  Location     Type
  1181 ;;  score           2   18[BANK0 ] int 
  1182 ;;  pos             2    0        int 
  1183 ;; Return value:  Size  Location     Type
  1184 ;;                  2   47[COMRAM] int 
  1185 ;; Registers used:
  1186 ;;		wreg, fsr0l, fsr0h, fsr2l, fsr2h, status,2, status,0, tblptrl, tblptrh, tblptru, prodl, prodh, cstack
  1187 ;; Tracked objects:
  1188 ;;		On entry : 0/0
  1189 ;;		On exit  : 0/0
  1190 ;;		Unchanged: 0/0
  1191 ;; Data sizes:     COMRAM   BANK0   BANK1   BANK2   BANK3   BANK4   BANK5   BANK6   BANK7
  1192 ;;      Params:         2       0       0       0       0       0       0       0       0
  1193 ;;      Locals:         0       2       0       0       0       0       0       0       0
  1194 ;;      Temps:          2       0       0       0       0       0       0       0       0
  1195 ;;      Totals:         4       2       0       0       0       0       0       0       0
  1196 ;;Total ram usage:        6 bytes
  1197 ;; Hardware stack levels used:    1
  1198 ;; Hardware stack levels required when called:    9
  1199 ;; This function calls:
  1200 ;;		_changeStages
  1201 ;; This function is called by:
  1202 ;;		_main
  1203 ;; This function uses a non-reentrant model
  1204 ;;
  1205                           
  1206                           	psect	text2
  1207  000758                     __ptext2:
  1208                           	opt stack 0
  1209  000758                     _juego4:
  1210                           	opt stack 21
  1211                           
  1212                           ;main.c: 477: int pos;
  1213                           ;main.c: 478: _delay((unsigned long)((100)*(24000000ul/4000.0)));
  1214                           
  1215                           ;incstack = 0
  1216  000758  0E04               	movlw	4
  1217  00075A  6E33               	movwf	(??_juego4+1)& (0+255),c
  1218  00075C  0E0C               	movlw	12
  1219  00075E  6E32               	movwf	??_juego4& (0+255),c
  1220  000760  0E34               	movlw	52
  1221  000762                     u3987:
  1222  000762  2EE8               	decfsz	wreg,f,c
  1223  000764  D7FE               	bra	u3987
  1224  000766  2E32               	decfsz	??_juego4& (0+255),f,c
  1225  000768  D7FC               	bra	u3987
  1226  00076A  2E33               	decfsz	(??_juego4+1)& (0+255),f,c
  1227  00076C  D7FA               	bra	u3987
  1228                           
  1229                           ;main.c: 479: changeStages("          0","           ", 0);
  1230  00076E  0ED8               	movlw	low STR_4
  1231  000770  0100               	movlb	0	; () banked
  1232  000772  6FD4               	movwf	changeStages@parameter1& (0+255),b
  1233  000774  0E7F               	movlw	high STR_4
  1234  000776  0100               	movlb	0	; () banked
  1235  000778  6FD5               	movwf	(changeStages@parameter1+1)& (0+255),b
  1236  00077A  0EF2               	movlw	low (STR_51+1)
  1237  00077C  0100               	movlb	0	; () banked
  1238  00077E  6FD6               	movwf	changeStages@parameter2& (0+255),b
  1239  000780  0E7E               	movlw	high (STR_51+1)
  1240  000782  0100               	movlb	0	; () banked
  1241  000784  6FD7               	movwf	(changeStages@parameter2+1)& (0+255),b
  1242  000786  0E00               	movlw	0
  1243  000788  0100               	movlb	0	; () banked
  1244  00078A  6FD9               	movwf	(changeStages@enemPos+1)& (0+255),b
  1245  00078C  0E00               	movlw	0
  1246  00078E  6FD8               	movwf	changeStages@enemPos& (0+255),b
  1247  000790  ECC3  F010         	call	_changeStages	;wreg free
  1248                           
  1249                           ;main.c: 481: _delay((unsigned long)((100)*(24000000ul/4000.0)));
  1250  000794  0E04               	movlw	4
  1251  000796  6E33               	movwf	(??_juego4+1)& (0+255),c
  1252  000798  0E0C               	movlw	12
  1253  00079A  6E32               	movwf	??_juego4& (0+255),c
  1254  00079C  0E34               	movlw	52
  1255  00079E                     u3997:
  1256  00079E  2EE8               	decfsz	wreg,f,c
  1257  0007A0  D7FE               	bra	u3997
  1258  0007A2  2E32               	decfsz	??_juego4& (0+255),f,c
  1259  0007A4  D7FC               	bra	u3997
  1260  0007A6  2E33               	decfsz	(??_juego4+1)& (0+255),f,c
  1261  0007A8  D7FA               	bra	u3997
  1262                           
  1263                           ;main.c: 482: changeStages("         0 ","           ", 0);
  1264  0007AA  0EB4               	movlw	low STR_6
  1265  0007AC  0100               	movlb	0	; () banked
  1266  0007AE  6FD4               	movwf	changeStages@parameter1& (0+255),b
  1267  0007B0  0E7F               	movlw	high STR_6
  1268  0007B2  0100               	movlb	0	; () banked
  1269  0007B4  6FD5               	movwf	(changeStages@parameter1+1)& (0+255),b
  1270  0007B6  0EF2               	movlw	low (STR_51+1)
  1271  0007B8  0100               	movlb	0	; () banked
  1272  0007BA  6FD6               	movwf	changeStages@parameter2& (0+255),b
  1273  0007BC  0E7E               	movlw	high (STR_51+1)
  1274  0007BE  0100               	movlb	0	; () banked
  1275  0007C0  6FD7               	movwf	(changeStages@parameter2+1)& (0+255),b
  1276  0007C2  0E00               	movlw	0
  1277  0007C4  0100               	movlb	0	; () banked
  1278  0007C6  6FD9               	movwf	(changeStages@enemPos+1)& (0+255),b
  1279  0007C8  0E00               	movlw	0
  1280  0007CA  6FD8               	movwf	changeStages@enemPos& (0+255),b
  1281  0007CC  ECC3  F010         	call	_changeStages	;wreg free
  1282                           
  1283                           ;main.c: 483: _delay((unsigned long)((100)*(24000000ul/4000.0)));
  1284  0007D0  0E04               	movlw	4
  1285  0007D2  6E33               	movwf	(??_juego4+1)& (0+255),c
  1286  0007D4  0E0C               	movlw	12
  1287  0007D6  6E32               	movwf	??_juego4& (0+255),c
  1288  0007D8  0E34               	movlw	52
  1289  0007DA                     u4007:
  1290  0007DA  2EE8               	decfsz	wreg,f,c
  1291  0007DC  D7FE               	bra	u4007
  1292  0007DE  2E32               	decfsz	??_juego4& (0+255),f,c
  1293  0007E0  D7FC               	bra	u4007
  1294  0007E2  2E33               	decfsz	(??_juego4+1)& (0+255),f,c
  1295  0007E4  D7FA               	bra	u4007
  1296                           
  1297                           ;main.c: 485: changeStages("        0  ","           ", 0);
  1298  0007E6  0E90               	movlw	low STR_8
  1299  0007E8  0100               	movlb	0	; () banked
  1300  0007EA  6FD4               	movwf	changeStages@parameter1& (0+255),b
  1301  0007EC  0E7F               	movlw	high STR_8
  1302  0007EE  0100               	movlb	0	; () banked
  1303  0007F0  6FD5               	movwf	(changeStages@parameter1+1)& (0+255),b
  1304  0007F2  0EF2               	movlw	low (STR_51+1)
  1305  0007F4  0100               	movlb	0	; () banked
  1306  0007F6  6FD6               	movwf	changeStages@parameter2& (0+255),b
  1307  0007F8  0E7E               	movlw	high (STR_51+1)
  1308  0007FA  0100               	movlb	0	; () banked
  1309  0007FC  6FD7               	movwf	(changeStages@parameter2+1)& (0+255),b
  1310  0007FE  0E00               	movlw	0
  1311  000800  0100               	movlb	0	; () banked
  1312  000802  6FD9               	movwf	(changeStages@enemPos+1)& (0+255),b
  1313  000804  0E00               	movlw	0
  1314  000806  6FD8               	movwf	changeStages@enemPos& (0+255),b
  1315  000808  ECC3  F010         	call	_changeStages	;wreg free
  1316                           
  1317                           ;main.c: 486: _delay((unsigned long)((100)*(24000000ul/4000.0)));
  1318  00080C  0E04               	movlw	4
  1319  00080E  6E33               	movwf	(??_juego4+1)& (0+255),c
  1320  000810  0E0C               	movlw	12
  1321  000812  6E32               	movwf	??_juego4& (0+255),c
  1322  000814  0E34               	movlw	52
  1323  000816                     u4017:
  1324  000816  2EE8               	decfsz	wreg,f,c
  1325  000818  D7FE               	bra	u4017
  1326  00081A  2E32               	decfsz	??_juego4& (0+255),f,c
  1327  00081C  D7FC               	bra	u4017
  1328  00081E  2E33               	decfsz	(??_juego4+1)& (0+255),f,c
  1329  000820  D7FA               	bra	u4017
  1330                           
  1331                           ;main.c: 488: changeStages("       0   ","          0", 0);
  1332  000822  0E78               	movlw	low STR_10
  1333  000824  0100               	movlb	0	; () banked
  1334  000826  6FD4               	movwf	changeStages@parameter1& (0+255),b
  1335  000828  0E7F               	movlw	high STR_10
  1336  00082A  0100               	movlb	0	; () banked
  1337  00082C  6FD5               	movwf	(changeStages@parameter1+1)& (0+255),b
  1338  00082E  0ED8               	movlw	low STR_4
  1339  000830  0100               	movlb	0	; () banked
  1340  000832  6FD6               	movwf	changeStages@parameter2& (0+255),b
  1341  000834  0E7F               	movlw	high STR_4
  1342  000836  0100               	movlb	0	; () banked
  1343  000838  6FD7               	movwf	(changeStages@parameter2+1)& (0+255),b
  1344  00083A  0E00               	movlw	0
  1345  00083C  0100               	movlb	0	; () banked
  1346  00083E  6FD9               	movwf	(changeStages@enemPos+1)& (0+255),b
  1347  000840  0E00               	movlw	0
  1348  000842  6FD8               	movwf	changeStages@enemPos& (0+255),b
  1349  000844  ECC3  F010         	call	_changeStages	;wreg free
  1350                           
  1351                           ;main.c: 489: _delay((unsigned long)((100)*(24000000ul/4000.0)));
  1352  000848  0E04               	movlw	4
  1353  00084A  6E33               	movwf	(??_juego4+1)& (0+255),c
  1354  00084C  0E0C               	movlw	12
  1355  00084E  6E32               	movwf	??_juego4& (0+255),c
  1356  000850  0E34               	movlw	52
  1357  000852                     u4027:
  1358  000852  2EE8               	decfsz	wreg,f,c
  1359  000854  D7FE               	bra	u4027
  1360  000856  2E32               	decfsz	??_juego4& (0+255),f,c
  1361  000858  D7FC               	bra	u4027
  1362  00085A  2E33               	decfsz	(??_juego4+1)& (0+255),f,c
  1363  00085C  D7FA               	bra	u4027
  1364                           
  1365                           ;main.c: 491: changeStages("      0    ","         0 ", 0);
  1366  00085E  0E60               	movlw	low STR_12
  1367  000860  0100               	movlb	0	; () banked
  1368  000862  6FD4               	movwf	changeStages@parameter1& (0+255),b
  1369  000864  0E7F               	movlw	high STR_12
  1370  000866  0100               	movlb	0	; () banked
  1371  000868  6FD5               	movwf	(changeStages@parameter1+1)& (0+255),b
  1372  00086A  0EB4               	movlw	low STR_6
  1373  00086C  0100               	movlb	0	; () banked
  1374  00086E  6FD6               	movwf	changeStages@parameter2& (0+255),b
  1375  000870  0E7F               	movlw	high STR_6
  1376  000872  0100               	movlb	0	; () banked
  1377  000874  6FD7               	movwf	(changeStages@parameter2+1)& (0+255),b
  1378  000876  0E00               	movlw	0
  1379  000878  0100               	movlb	0	; () banked
  1380  00087A  6FD9               	movwf	(changeStages@enemPos+1)& (0+255),b
  1381  00087C  0E00               	movlw	0
  1382  00087E  6FD8               	movwf	changeStages@enemPos& (0+255),b
  1383  000880  ECC3  F010         	call	_changeStages	;wreg free
  1384                           
  1385                           ;main.c: 492: _delay((unsigned long)((100)*(24000000ul/4000.0)));
  1386  000884  0E04               	movlw	4
  1387  000886  6E33               	movwf	(??_juego4+1)& (0+255),c
  1388  000888  0E0C               	movlw	12
  1389  00088A  6E32               	movwf	??_juego4& (0+255),c
  1390  00088C  0E34               	movlw	52
  1391  00088E                     u4037:
  1392  00088E  2EE8               	decfsz	wreg,f,c
  1393  000890  D7FE               	bra	u4037
  1394  000892  2E32               	decfsz	??_juego4& (0+255),f,c
  1395  000894  D7FC               	bra	u4037
  1396  000896  2E33               	decfsz	(??_juego4+1)& (0+255),f,c
  1397  000898  D7FA               	bra	u4037
  1398                           
  1399                           ;main.c: 494: changeStages("     0    0","        0  ", 0);
  1400  00089A  0EF0               	movlw	low STR_14
  1401  00089C  0100               	movlb	0	; () banked
  1402  00089E  6FD4               	movwf	changeStages@parameter1& (0+255),b
  1403  0008A0  0E7F               	movlw	high STR_14
  1404  0008A2  0100               	movlb	0	; () banked
  1405  0008A4  6FD5               	movwf	(changeStages@parameter1+1)& (0+255),b
  1406  0008A6  0E90               	movlw	low STR_8
  1407  0008A8  0100               	movlb	0	; () banked
  1408  0008AA  6FD6               	movwf	changeStages@parameter2& (0+255),b
  1409  0008AC  0E7F               	movlw	high STR_8
  1410  0008AE  0100               	movlb	0	; () banked
  1411  0008B0  6FD7               	movwf	(changeStages@parameter2+1)& (0+255),b
  1412  0008B2  0E00               	movlw	0
  1413  0008B4  0100               	movlb	0	; () banked
  1414  0008B6  6FD9               	movwf	(changeStages@enemPos+1)& (0+255),b
  1415  0008B8  0E00               	movlw	0
  1416  0008BA  6FD8               	movwf	changeStages@enemPos& (0+255),b
  1417  0008BC  ECC3  F010         	call	_changeStages	;wreg free
  1418                           
  1419                           ;main.c: 495: _delay((unsigned long)((100)*(24000000ul/4000.0)));
  1420  0008C0  0E04               	movlw	4
  1421  0008C2  6E33               	movwf	(??_juego4+1)& (0+255),c
  1422  0008C4  0E0C               	movlw	12
  1423  0008C6  6E32               	movwf	??_juego4& (0+255),c
  1424  0008C8  0E34               	movlw	52
  1425  0008CA                     u4047:
  1426  0008CA  2EE8               	decfsz	wreg,f,c
  1427  0008CC  D7FE               	bra	u4047
  1428  0008CE  2E32               	decfsz	??_juego4& (0+255),f,c
  1429  0008D0  D7FC               	bra	u4047
  1430  0008D2  2E33               	decfsz	(??_juego4+1)& (0+255),f,c
  1431  0008D4  D7FA               	bra	u4047
  1432                           
  1433                           ;main.c: 497: changeStages("    0    0 ","       0   ", 0);
  1434  0008D6  0ECC               	movlw	low STR_16
  1435  0008D8  0100               	movlb	0	; () banked
  1436  0008DA  6FD4               	movwf	changeStages@parameter1& (0+255),b
  1437  0008DC  0E7F               	movlw	high STR_16
  1438  0008DE  0100               	movlb	0	; () banked
  1439  0008E0  6FD5               	movwf	(changeStages@parameter1+1)& (0+255),b
  1440  0008E2  0E78               	movlw	low STR_10
  1441  0008E4  0100               	movlb	0	; () banked
  1442  0008E6  6FD6               	movwf	changeStages@parameter2& (0+255),b
  1443  0008E8  0E7F               	movlw	high STR_10
  1444  0008EA  0100               	movlb	0	; () banked
  1445  0008EC  6FD7               	movwf	(changeStages@parameter2+1)& (0+255),b
  1446  0008EE  0E00               	movlw	0
  1447  0008F0  0100               	movlb	0	; () banked
  1448  0008F2  6FD9               	movwf	(changeStages@enemPos+1)& (0+255),b
  1449  0008F4  0E00               	movlw	0
  1450  0008F6  6FD8               	movwf	changeStages@enemPos& (0+255),b
  1451  0008F8  ECC3  F010         	call	_changeStages	;wreg free
  1452                           
  1453                           ;main.c: 498: _delay((unsigned long)((100)*(24000000ul/4000.0)));
  1454  0008FC  0E04               	movlw	4
  1455  0008FE  6E33               	movwf	(??_juego4+1)& (0+255),c
  1456  000900  0E0C               	movlw	12
  1457  000902  6E32               	movwf	??_juego4& (0+255),c
  1458  000904  0E34               	movlw	52
  1459  000906                     u4057:
  1460  000906  2EE8               	decfsz	wreg,f,c
  1461  000908  D7FE               	bra	u4057
  1462  00090A  2E32               	decfsz	??_juego4& (0+255),f,c
  1463  00090C  D7FC               	bra	u4057
  1464  00090E  2E33               	decfsz	(??_juego4+1)& (0+255),f,c
  1465  000910  D7FA               	bra	u4057
  1466                           
  1467                           ;main.c: 500: changeStages("   0    0  ","      0    ", 0);
  1468  000912  0EA8               	movlw	low STR_18
  1469  000914  0100               	movlb	0	; () banked
  1470  000916  6FD4               	movwf	changeStages@parameter1& (0+255),b
  1471  000918  0E7F               	movlw	high STR_18
  1472  00091A  0100               	movlb	0	; () banked
  1473  00091C  6FD5               	movwf	(changeStages@parameter1+1)& (0+255),b
  1474  00091E  0E60               	movlw	low STR_12
  1475  000920  0100               	movlb	0	; () banked
  1476  000922  6FD6               	movwf	changeStages@parameter2& (0+255),b
  1477  000924  0E7F               	movlw	high STR_12
  1478  000926  0100               	movlb	0	; () banked
  1479  000928  6FD7               	movwf	(changeStages@parameter2+1)& (0+255),b
  1480  00092A  0E00               	movlw	0
  1481  00092C  0100               	movlb	0	; () banked
  1482  00092E  6FD9               	movwf	(changeStages@enemPos+1)& (0+255),b
  1483  000930  0E00               	movlw	0
  1484  000932  6FD8               	movwf	changeStages@enemPos& (0+255),b
  1485  000934  ECC3  F010         	call	_changeStages	;wreg free
  1486                           
  1487                           ;main.c: 501: _delay((unsigned long)((100)*(24000000ul/4000.0)));
  1488  000938  0E04               	movlw	4
  1489  00093A  6E33               	movwf	(??_juego4+1)& (0+255),c
  1490  00093C  0E0C               	movlw	12
  1491  00093E  6E32               	movwf	??_juego4& (0+255),c
  1492  000940  0E34               	movlw	52
  1493  000942                     u4067:
  1494  000942  2EE8               	decfsz	wreg,f,c
  1495  000944  D7FE               	bra	u4067
  1496  000946  2E32               	decfsz	??_juego4& (0+255),f,c
  1497  000948  D7FC               	bra	u4067
  1498  00094A  2E33               	decfsz	(??_juego4+1)& (0+255),f,c
  1499  00094C  D7FA               	bra	u4067
  1500                           
  1501                           ;main.c: 503: changeStages("  0    0   ","     0     ", 0);
  1502  00094E  0E84               	movlw	low STR_20
  1503  000950  0100               	movlb	0	; () banked
  1504  000952  6FD4               	movwf	changeStages@parameter1& (0+255),b
  1505  000954  0E7F               	movlw	high STR_20
  1506  000956  0100               	movlb	0	; () banked
  1507  000958  6FD5               	movwf	(changeStages@parameter1+1)& (0+255),b
  1508  00095A  0E48               	movlw	low STR_21
  1509  00095C  0100               	movlb	0	; () banked
  1510  00095E  6FD6               	movwf	changeStages@parameter2& (0+255),b
  1511  000960  0E7F               	movlw	high STR_21
  1512  000962  0100               	movlb	0	; () banked
  1513  000964  6FD7               	movwf	(changeStages@parameter2+1)& (0+255),b
  1514  000966  0E00               	movlw	0
  1515  000968  0100               	movlb	0	; () banked
  1516  00096A  6FD9               	movwf	(changeStages@enemPos+1)& (0+255),b
  1517  00096C  0E00               	movlw	0
  1518  00096E  6FD8               	movwf	changeStages@enemPos& (0+255),b
  1519  000970  ECC3  F010         	call	_changeStages	;wreg free
  1520                           
  1521                           ;main.c: 504: _delay((unsigned long)((100)*(24000000ul/4000.0)));
  1522  000974  0E04               	movlw	4
  1523  000976  6E33               	movwf	(??_juego4+1)& (0+255),c
  1524  000978  0E0C               	movlw	12
  1525  00097A  6E32               	movwf	??_juego4& (0+255),c
  1526  00097C  0E34               	movlw	52
  1527  00097E                     u4077:
  1528  00097E  2EE8               	decfsz	wreg,f,c
  1529  000980  D7FE               	bra	u4077
  1530  000982  2E32               	decfsz	??_juego4& (0+255),f,c
  1531  000984  D7FC               	bra	u4077
  1532  000986  2E33               	decfsz	(??_juego4+1)& (0+255),f,c
  1533  000988  D7FA               	bra	u4077
  1534                           
  1535                           ;main.c: 506: changeStages(" 0    0    ","    0      ", 0);
  1536  00098A  0E6C               	movlw	low STR_22
  1537  00098C  0100               	movlb	0	; () banked
  1538  00098E  6FD4               	movwf	changeStages@parameter1& (0+255),b
  1539  000990  0E7F               	movlw	high STR_22
  1540  000992  0100               	movlb	0	; () banked
  1541  000994  6FD5               	movwf	(changeStages@parameter1+1)& (0+255),b
  1542  000996  0E3C               	movlw	low STR_23
  1543  000998  0100               	movlb	0	; () banked
  1544  00099A  6FD6               	movwf	changeStages@parameter2& (0+255),b
  1545  00099C  0E7F               	movlw	high STR_23
  1546  00099E  0100               	movlb	0	; () banked
  1547  0009A0  6FD7               	movwf	(changeStages@parameter2+1)& (0+255),b
  1548  0009A2  0E00               	movlw	0
  1549  0009A4  0100               	movlb	0	; () banked
  1550  0009A6  6FD9               	movwf	(changeStages@enemPos+1)& (0+255),b
  1551  0009A8  0E00               	movlw	0
  1552  0009AA  6FD8               	movwf	changeStages@enemPos& (0+255),b
  1553  0009AC  ECC3  F010         	call	_changeStages	;wreg free
  1554                           
  1555                           ;main.c: 507: _delay((unsigned long)((100)*(24000000ul/4000.0)));
  1556  0009B0  0E04               	movlw	4
  1557  0009B2  6E33               	movwf	(??_juego4+1)& (0+255),c
  1558  0009B4  0E0C               	movlw	12
  1559  0009B6  6E32               	movwf	??_juego4& (0+255),c
  1560  0009B8  0E34               	movlw	52
  1561  0009BA                     u4087:
  1562  0009BA  2EE8               	decfsz	wreg,f,c
  1563  0009BC  D7FE               	bra	u4087
  1564  0009BE  2E32               	decfsz	??_juego4& (0+255),f,c
  1565  0009C0  D7FC               	bra	u4087
  1566  0009C2  2E33               	decfsz	(??_juego4+1)& (0+255),f,c
  1567  0009C4  D7FA               	bra	u4087
  1568                           
  1569                           ;main.c: 509: changeStages("0    0     ","   0       ", 1);
  1570  0009C6  0E54               	movlw	low STR_24
  1571  0009C8  0100               	movlb	0	; () banked
  1572  0009CA  6FD4               	movwf	changeStages@parameter1& (0+255),b
  1573  0009CC  0E7F               	movlw	high STR_24
  1574  0009CE  0100               	movlb	0	; () banked
  1575  0009D0  6FD5               	movwf	(changeStages@parameter1+1)& (0+255),b
  1576  0009D2  0E30               	movlw	low STR_25
  1577  0009D4  0100               	movlb	0	; () banked
  1578  0009D6  6FD6               	movwf	changeStages@parameter2& (0+255),b
  1579  0009D8  0E7F               	movlw	high STR_25
  1580  0009DA  0100               	movlb	0	; () banked
  1581  0009DC  6FD7               	movwf	(changeStages@parameter2+1)& (0+255),b
  1582  0009DE  0E00               	movlw	0
  1583  0009E0  0100               	movlb	0	; () banked
  1584  0009E2  6FD9               	movwf	(changeStages@enemPos+1)& (0+255),b
  1585  0009E4  0E01               	movlw	1
  1586  0009E6  6FD8               	movwf	changeStages@enemPos& (0+255),b
  1587  0009E8  ECC3  F010         	call	_changeStages	;wreg free
  1588                           
  1589                           ;main.c: 510: _delay((unsigned long)((100)*(24000000ul/4000.0)));
  1590  0009EC  0E04               	movlw	4
  1591  0009EE  6E33               	movwf	(??_juego4+1)& (0+255),c
  1592  0009F0  0E0C               	movlw	12
  1593  0009F2  6E32               	movwf	??_juego4& (0+255),c
  1594  0009F4  0E34               	movlw	52
  1595  0009F6                     u4097:
  1596  0009F6  2EE8               	decfsz	wreg,f,c
  1597  0009F8  D7FE               	bra	u4097
  1598  0009FA  2E32               	decfsz	??_juego4& (0+255),f,c
  1599  0009FC  D7FC               	bra	u4097
  1600  0009FE  2E33               	decfsz	(??_juego4+1)& (0+255),f,c
  1601  000A00  D7FA               	bra	u4097
  1602                           
  1603                           ;main.c: 512: changeStages("    0      ","  0       0", 0);
  1604  000A02  0E3C               	movlw	low STR_23
  1605  000A04  0100               	movlb	0	; () banked
  1606  000A06  6FD4               	movwf	changeStages@parameter1& (0+255),b
  1607  000A08  0E7F               	movlw	high STR_23
  1608  000A0A  0100               	movlb	0	; () banked
  1609  000A0C  6FD5               	movwf	(changeStages@parameter1+1)& (0+255),b
  1610  000A0E  0EE4               	movlw	low STR_27
  1611  000A10  0100               	movlb	0	; () banked
  1612  000A12  6FD6               	movwf	changeStages@parameter2& (0+255),b
  1613  000A14  0E7F               	movlw	high STR_27
  1614  000A16  0100               	movlb	0	; () banked
  1615  000A18  6FD7               	movwf	(changeStages@parameter2+1)& (0+255),b
  1616  000A1A  0E00               	movlw	0
  1617  000A1C  0100               	movlb	0	; () banked
  1618  000A1E  6FD9               	movwf	(changeStages@enemPos+1)& (0+255),b
  1619  000A20  0E00               	movlw	0
  1620  000A22  6FD8               	movwf	changeStages@enemPos& (0+255),b
  1621  000A24  ECC3  F010         	call	_changeStages	;wreg free
  1622                           
  1623                           ;main.c: 513: _delay((unsigned long)((100)*(24000000ul/4000.0)));
  1624  000A28  0E04               	movlw	4
  1625  000A2A  6E33               	movwf	(??_juego4+1)& (0+255),c
  1626  000A2C  0E0C               	movlw	12
  1627  000A2E  6E32               	movwf	??_juego4& (0+255),c
  1628  000A30  0E34               	movlw	52
  1629  000A32                     u4107:
  1630  000A32  2EE8               	decfsz	wreg,f,c
  1631  000A34  D7FE               	bra	u4107
  1632  000A36  2E32               	decfsz	??_juego4& (0+255),f,c
  1633  000A38  D7FC               	bra	u4107
  1634  000A3A  2E33               	decfsz	(??_juego4+1)& (0+255),f,c
  1635  000A3C  D7FA               	bra	u4107
  1636                           
  1637                           ;main.c: 515: changeStages("   0       "," 0       0 ", 0);
  1638  000A3E  0E30               	movlw	low STR_25
  1639  000A40  0100               	movlb	0	; () banked
  1640  000A42  6FD4               	movwf	changeStages@parameter1& (0+255),b
  1641  000A44  0E7F               	movlw	high STR_25
  1642  000A46  0100               	movlb	0	; () banked
  1643  000A48  6FD5               	movwf	(changeStages@parameter1+1)& (0+255),b
  1644  000A4A  0EC0               	movlw	low STR_29
  1645  000A4C  0100               	movlb	0	; () banked
  1646  000A4E  6FD6               	movwf	changeStages@parameter2& (0+255),b
  1647  000A50  0E7F               	movlw	high STR_29
  1648  000A52  0100               	movlb	0	; () banked
  1649  000A54  6FD7               	movwf	(changeStages@parameter2+1)& (0+255),b
  1650  000A56  0E00               	movlw	0
  1651  000A58  0100               	movlb	0	; () banked
  1652  000A5A  6FD9               	movwf	(changeStages@enemPos+1)& (0+255),b
  1653  000A5C  0E00               	movlw	0
  1654  000A5E  6FD8               	movwf	changeStages@enemPos& (0+255),b
  1655  000A60  ECC3  F010         	call	_changeStages	;wreg free
  1656                           
  1657                           ;main.c: 516: _delay((unsigned long)((100)*(24000000ul/4000.0)));
  1658  000A64  0E04               	movlw	4
  1659  000A66  6E33               	movwf	(??_juego4+1)& (0+255),c
  1660  000A68  0E0C               	movlw	12
  1661  000A6A  6E32               	movwf	??_juego4& (0+255),c
  1662  000A6C  0E34               	movlw	52
  1663  000A6E                     u4117:
  1664  000A6E  2EE8               	decfsz	wreg,f,c
  1665  000A70  D7FE               	bra	u4117
  1666  000A72  2E32               	decfsz	??_juego4& (0+255),f,c
  1667  000A74  D7FC               	bra	u4117
  1668  000A76  2E33               	decfsz	(??_juego4+1)& (0+255),f,c
  1669  000A78  D7FA               	bra	u4117
  1670                           
  1671                           ;main.c: 518: changeStages("  0        ","0       0  ", 2);
  1672  000A7A  0E24               	movlw	low STR_30
  1673  000A7C  0100               	movlb	0	; () banked
  1674  000A7E  6FD4               	movwf	changeStages@parameter1& (0+255),b
  1675  000A80  0E7F               	movlw	high STR_30
  1676  000A82  0100               	movlb	0	; () banked
  1677  000A84  6FD5               	movwf	(changeStages@parameter1+1)& (0+255),b
  1678  000A86  0E9C               	movlw	low STR_31
  1679  000A88  0100               	movlb	0	; () banked
  1680  000A8A  6FD6               	movwf	changeStages@parameter2& (0+255),b
  1681  000A8C  0E7F               	movlw	high STR_31
  1682  000A8E  0100               	movlb	0	; () banked
  1683  000A90  6FD7               	movwf	(changeStages@parameter2+1)& (0+255),b
  1684  000A92  0E00               	movlw	0
  1685  000A94  0100               	movlb	0	; () banked
  1686  000A96  6FD9               	movwf	(changeStages@enemPos+1)& (0+255),b
  1687  000A98  0E02               	movlw	2
  1688  000A9A  6FD8               	movwf	changeStages@enemPos& (0+255),b
  1689  000A9C  ECC3  F010         	call	_changeStages	;wreg free
  1690                           
  1691                           ;main.c: 519: _delay((unsigned long)((100)*(24000000ul/4000.0)));
  1692  000AA0  0E04               	movlw	4
  1693  000AA2  6E33               	movwf	(??_juego4+1)& (0+255),c
  1694  000AA4  0E0C               	movlw	12
  1695  000AA6  6E32               	movwf	??_juego4& (0+255),c
  1696  000AA8  0E34               	movlw	52
  1697  000AAA                     u4127:
  1698  000AAA  2EE8               	decfsz	wreg,f,c
  1699  000AAC  D7FE               	bra	u4127
  1700  000AAE  2E32               	decfsz	??_juego4& (0+255),f,c
  1701  000AB0  D7FC               	bra	u4127
  1702  000AB2  2E33               	decfsz	(??_juego4+1)& (0+255),f,c
  1703  000AB4  D7FA               	bra	u4127
  1704                           
  1705                           ;main.c: 521: changeStages(" 0         ","       0   ", 0);
  1706  000AB6  0E18               	movlw	low STR_32
  1707  000AB8  0100               	movlb	0	; () banked
  1708  000ABA  6FD4               	movwf	changeStages@parameter1& (0+255),b
  1709  000ABC  0E7F               	movlw	high STR_32
  1710  000ABE  0100               	movlb	0	; () banked
  1711  000AC0  6FD5               	movwf	(changeStages@parameter1+1)& (0+255),b
  1712  000AC2  0E78               	movlw	low STR_10
  1713  000AC4  0100               	movlb	0	; () banked
  1714  000AC6  6FD6               	movwf	changeStages@parameter2& (0+255),b
  1715  000AC8  0E7F               	movlw	high STR_10
  1716  000ACA  0100               	movlb	0	; () banked
  1717  000ACC  6FD7               	movwf	(changeStages@parameter2+1)& (0+255),b
  1718  000ACE  0E00               	movlw	0
  1719  000AD0  0100               	movlb	0	; () banked
  1720  000AD2  6FD9               	movwf	(changeStages@enemPos+1)& (0+255),b
  1721  000AD4  0E00               	movlw	0
  1722  000AD6  6FD8               	movwf	changeStages@enemPos& (0+255),b
  1723  000AD8  ECC3  F010         	call	_changeStages	;wreg free
  1724                           
  1725                           ;main.c: 522: _delay((unsigned long)((100)*(24000000ul/4000.0)));
  1726  000ADC  0E04               	movlw	4
  1727  000ADE  6E33               	movwf	(??_juego4+1)& (0+255),c
  1728  000AE0  0E0C               	movlw	12
  1729  000AE2  6E32               	movwf	??_juego4& (0+255),c
  1730  000AE4  0E34               	movlw	52
  1731  000AE6                     u4137:
  1732  000AE6  2EE8               	decfsz	wreg,f,c
  1733  000AE8  D7FE               	bra	u4137
  1734  000AEA  2E32               	decfsz	??_juego4& (0+255),f,c
  1735  000AEC  D7FC               	bra	u4137
  1736  000AEE  2E33               	decfsz	(??_juego4+1)& (0+255),f,c
  1737  000AF0  D7FA               	bra	u4137
  1738                           
  1739                           ;main.c: 524: changeStages("0          ","      0    ", 1);
  1740  000AF2  0E0C               	movlw	low (STR_47+1)
  1741  000AF4  0100               	movlb	0	; () banked
  1742  000AF6  6FD4               	movwf	changeStages@parameter1& (0+255),b
  1743  000AF8  0E7F               	movlw	high (STR_47+1)
  1744  000AFA  0100               	movlb	0	; () banked
  1745  000AFC  6FD5               	movwf	(changeStages@parameter1+1)& (0+255),b
  1746  000AFE  0E60               	movlw	low STR_12
  1747  000B00  0100               	movlb	0	; () banked
  1748  000B02  6FD6               	movwf	changeStages@parameter2& (0+255),b
  1749  000B04  0E7F               	movlw	high STR_12
  1750  000B06  0100               	movlb	0	; () banked
  1751  000B08  6FD7               	movwf	(changeStages@parameter2+1)& (0+255),b
  1752  000B0A  0E00               	movlw	0
  1753  000B0C  0100               	movlb	0	; () banked
  1754  000B0E  6FD9               	movwf	(changeStages@enemPos+1)& (0+255),b
  1755  000B10  0E01               	movlw	1
  1756  000B12  6FD8               	movwf	changeStages@enemPos& (0+255),b
  1757  000B14  ECC3  F010         	call	_changeStages	;wreg free
  1758                           
  1759                           ;main.c: 525: _delay((unsigned long)((100)*(24000000ul/4000.0)));
  1760  000B18  0E04               	movlw	4
  1761  000B1A  6E33               	movwf	(??_juego4+1)& (0+255),c
  1762  000B1C  0E0C               	movlw	12
  1763  000B1E  6E32               	movwf	??_juego4& (0+255),c
  1764  000B20  0E34               	movlw	52
  1765  000B22                     u4147:
  1766  000B22  2EE8               	decfsz	wreg,f,c
  1767  000B24  D7FE               	bra	u4147
  1768  000B26  2E32               	decfsz	??_juego4& (0+255),f,c
  1769  000B28  D7FC               	bra	u4147
  1770  000B2A  2E33               	decfsz	(??_juego4+1)& (0+255),f,c
  1771  000B2C  D7FA               	bra	u4147
  1772                           
  1773                           ;main.c: 527: changeStages("           ","     0     ", 0);
  1774  000B2E  0EF2               	movlw	low (STR_51+1)
  1775  000B30  0100               	movlb	0	; () banked
  1776  000B32  6FD4               	movwf	changeStages@parameter1& (0+255),b
  1777  000B34  0E7E               	movlw	high (STR_51+1)
  1778  000B36  0100               	movlb	0	; () banked
  1779  000B38  6FD5               	movwf	(changeStages@parameter1+1)& (0+255),b
  1780  000B3A  0E48               	movlw	low STR_21
  1781  000B3C  0100               	movlb	0	; () banked
  1782  000B3E  6FD6               	movwf	changeStages@parameter2& (0+255),b
  1783  000B40  0E7F               	movlw	high STR_21
  1784  000B42  0100               	movlb	0	; () banked
  1785  000B44  6FD7               	movwf	(changeStages@parameter2+1)& (0+255),b
  1786  000B46  0E00               	movlw	0
  1787  000B48  0100               	movlb	0	; () banked
  1788  000B4A  6FD9               	movwf	(changeStages@enemPos+1)& (0+255),b
  1789  000B4C  0E00               	movlw	0
  1790  000B4E  6FD8               	movwf	changeStages@enemPos& (0+255),b
  1791  000B50  ECC3  F010         	call	_changeStages	;wreg free
  1792                           
  1793                           ;main.c: 528: _delay((unsigned long)((100)*(24000000ul/4000.0)));
  1794  000B54  0E04               	movlw	4
  1795  000B56  6E33               	movwf	(??_juego4+1)& (0+255),c
  1796  000B58  0E0C               	movlw	12
  1797  000B5A  6E32               	movwf	??_juego4& (0+255),c
  1798  000B5C  0E34               	movlw	52
  1799  000B5E                     u4157:
  1800  000B5E  2EE8               	decfsz	wreg,f,c
  1801  000B60  D7FE               	bra	u4157
  1802  000B62  2E32               	decfsz	??_juego4& (0+255),f,c
  1803  000B64  D7FC               	bra	u4157
  1804  000B66  2E33               	decfsz	(??_juego4+1)& (0+255),f,c
  1805  000B68  D7FA               	bra	u4157
  1806                           
  1807                           ;main.c: 530: changeStages("           ","    0      ", 0);
  1808  000B6A  0EF2               	movlw	low (STR_51+1)
  1809  000B6C  0100               	movlb	0	; () banked
  1810  000B6E  6FD4               	movwf	changeStages@parameter1& (0+255),b
  1811  000B70  0E7E               	movlw	high (STR_51+1)
  1812  000B72  0100               	movlb	0	; () banked
  1813  000B74  6FD5               	movwf	(changeStages@parameter1+1)& (0+255),b
  1814  000B76  0E3C               	movlw	low STR_23
  1815  000B78  0100               	movlb	0	; () banked
  1816  000B7A  6FD6               	movwf	changeStages@parameter2& (0+255),b
  1817  000B7C  0E7F               	movlw	high STR_23
  1818  000B7E  0100               	movlb	0	; () banked
  1819  000B80  6FD7               	movwf	(changeStages@parameter2+1)& (0+255),b
  1820  000B82  0E00               	movlw	0
  1821  000B84  0100               	movlb	0	; () banked
  1822  000B86  6FD9               	movwf	(changeStages@enemPos+1)& (0+255),b
  1823  000B88  0E00               	movlw	0
  1824  000B8A  6FD8               	movwf	changeStages@enemPos& (0+255),b
  1825  000B8C  ECC3  F010         	call	_changeStages	;wreg free
  1826                           
  1827                           ;main.c: 531: _delay((unsigned long)((100)*(24000000ul/4000.0)));
  1828  000B90  0E04               	movlw	4
  1829  000B92  6E33               	movwf	(??_juego4+1)& (0+255),c
  1830  000B94  0E0C               	movlw	12
  1831  000B96  6E32               	movwf	??_juego4& (0+255),c
  1832  000B98  0E34               	movlw	52
  1833  000B9A                     u4167:
  1834  000B9A  2EE8               	decfsz	wreg,f,c
  1835  000B9C  D7FE               	bra	u4167
  1836  000B9E  2E32               	decfsz	??_juego4& (0+255),f,c
  1837  000BA0  D7FC               	bra	u4167
  1838  000BA2  2E33               	decfsz	(??_juego4+1)& (0+255),f,c
  1839  000BA4  D7FA               	bra	u4167
  1840                           
  1841                           ;main.c: 533: changeStages("          0","   0       ", 0);
  1842  000BA6  0ED8               	movlw	low STR_4
  1843  000BA8  0100               	movlb	0	; () banked
  1844  000BAA  6FD4               	movwf	changeStages@parameter1& (0+255),b
  1845  000BAC  0E7F               	movlw	high STR_4
  1846  000BAE  0100               	movlb	0	; () banked
  1847  000BB0  6FD5               	movwf	(changeStages@parameter1+1)& (0+255),b
  1848  000BB2  0E30               	movlw	low STR_25
  1849  000BB4  0100               	movlb	0	; () banked
  1850  000BB6  6FD6               	movwf	changeStages@parameter2& (0+255),b
  1851  000BB8  0E7F               	movlw	high STR_25
  1852  000BBA  0100               	movlb	0	; () banked
  1853  000BBC  6FD7               	movwf	(changeStages@parameter2+1)& (0+255),b
  1854  000BBE  0E00               	movlw	0
  1855  000BC0  0100               	movlb	0	; () banked
  1856  000BC2  6FD9               	movwf	(changeStages@enemPos+1)& (0+255),b
  1857  000BC4  0E00               	movlw	0
  1858  000BC6  6FD8               	movwf	changeStages@enemPos& (0+255),b
  1859  000BC8  ECC3  F010         	call	_changeStages	;wreg free
  1860                           
  1861                           ;main.c: 534: _delay((unsigned long)((100)*(24000000ul/4000.0)));
  1862  000BCC  0E04               	movlw	4
  1863  000BCE  6E33               	movwf	(??_juego4+1)& (0+255),c
  1864  000BD0  0E0C               	movlw	12
  1865  000BD2  6E32               	movwf	??_juego4& (0+255),c
  1866  000BD4  0E34               	movlw	52
  1867  000BD6                     u4177:
  1868  000BD6  2EE8               	decfsz	wreg,f,c
  1869  000BD8  D7FE               	bra	u4177
  1870  000BDA  2E32               	decfsz	??_juego4& (0+255),f,c
  1871  000BDC  D7FC               	bra	u4177
  1872  000BDE  2E33               	decfsz	(??_juego4+1)& (0+255),f,c
  1873  000BE0  D7FA               	bra	u4177
  1874                           
  1875                           ;main.c: 536: changeStages("         0 ","  0        ", 0);
  1876  000BE2  0EB4               	movlw	low STR_6
  1877  000BE4  0100               	movlb	0	; () banked
  1878  000BE6  6FD4               	movwf	changeStages@parameter1& (0+255),b
  1879  000BE8  0E7F               	movlw	high STR_6
  1880  000BEA  0100               	movlb	0	; () banked
  1881  000BEC  6FD5               	movwf	(changeStages@parameter1+1)& (0+255),b
  1882  000BEE  0E24               	movlw	low STR_30
  1883  000BF0  0100               	movlb	0	; () banked
  1884  000BF2  6FD6               	movwf	changeStages@parameter2& (0+255),b
  1885  000BF4  0E7F               	movlw	high STR_30
  1886  000BF6  0100               	movlb	0	; () banked
  1887  000BF8  6FD7               	movwf	(changeStages@parameter2+1)& (0+255),b
  1888  000BFA  0E00               	movlw	0
  1889  000BFC  0100               	movlb	0	; () banked
  1890  000BFE  6FD9               	movwf	(changeStages@enemPos+1)& (0+255),b
  1891  000C00  0E00               	movlw	0
  1892  000C02  6FD8               	movwf	changeStages@enemPos& (0+255),b
  1893  000C04  ECC3  F010         	call	_changeStages	;wreg free
  1894                           
  1895                           ;main.c: 537: _delay((unsigned long)((100)*(24000000ul/4000.0)));
  1896  000C08  0E04               	movlw	4
  1897  000C0A  6E33               	movwf	(??_juego4+1)& (0+255),c
  1898  000C0C  0E0C               	movlw	12
  1899  000C0E  6E32               	movwf	??_juego4& (0+255),c
  1900  000C10  0E34               	movlw	52
  1901  000C12                     u4187:
  1902  000C12  2EE8               	decfsz	wreg,f,c
  1903  000C14  D7FE               	bra	u4187
  1904  000C16  2E32               	decfsz	??_juego4& (0+255),f,c
  1905  000C18  D7FC               	bra	u4187
  1906  000C1A  2E33               	decfsz	(??_juego4+1)& (0+255),f,c
  1907  000C1C  D7FA               	bra	u4187
  1908                           
  1909                           ;main.c: 539: changeStages("        0  "," 0         ", 0);
  1910  000C1E  0E90               	movlw	low STR_8
  1911  000C20  0100               	movlb	0	; () banked
  1912  000C22  6FD4               	movwf	changeStages@parameter1& (0+255),b
  1913  000C24  0E7F               	movlw	high STR_8
  1914  000C26  0100               	movlb	0	; () banked
  1915  000C28  6FD5               	movwf	(changeStages@parameter1+1)& (0+255),b
  1916  000C2A  0E18               	movlw	low STR_32
  1917  000C2C  0100               	movlb	0	; () banked
  1918  000C2E  6FD6               	movwf	changeStages@parameter2& (0+255),b
  1919  000C30  0E7F               	movlw	high STR_32
  1920  000C32  0100               	movlb	0	; () banked
  1921  000C34  6FD7               	movwf	(changeStages@parameter2+1)& (0+255),b
  1922  000C36  0E00               	movlw	0
  1923  000C38  0100               	movlb	0	; () banked
  1924  000C3A  6FD9               	movwf	(changeStages@enemPos+1)& (0+255),b
  1925  000C3C  0E00               	movlw	0
  1926  000C3E  6FD8               	movwf	changeStages@enemPos& (0+255),b
  1927  000C40  ECC3  F010         	call	_changeStages	;wreg free
  1928                           
  1929                           ;main.c: 540: _delay((unsigned long)((100)*(24000000ul/4000.0)));
  1930  000C44  0E04               	movlw	4
  1931  000C46  6E33               	movwf	(??_juego4+1)& (0+255),c
  1932  000C48  0E0C               	movlw	12
  1933  000C4A  6E32               	movwf	??_juego4& (0+255),c
  1934  000C4C  0E34               	movlw	52
  1935  000C4E                     u4197:
  1936  000C4E  2EE8               	decfsz	wreg,f,c
  1937  000C50  D7FE               	bra	u4197
  1938  000C52  2E32               	decfsz	??_juego4& (0+255),f,c
  1939  000C54  D7FC               	bra	u4197
  1940  000C56  2E33               	decfsz	(??_juego4+1)& (0+255),f,c
  1941  000C58  D7FA               	bra	u4197
  1942                           
  1943                           ;main.c: 542: changeStages("       0  "," 0          ", 0);
  1944  000C5A  0E91               	movlw	low (STR_8+1)
  1945  000C5C  0100               	movlb	0	; () banked
  1946  000C5E  6FD4               	movwf	changeStages@parameter1& (0+255),b
  1947  000C60  0E7F               	movlw	high (STR_8+1)
  1948  000C62  0100               	movlb	0	; () banked
  1949  000C64  6FD5               	movwf	(changeStages@parameter1+1)& (0+255),b
  1950  000C66  0E0B               	movlw	low STR_47
  1951  000C68  0100               	movlb	0	; () banked
  1952  000C6A  6FD6               	movwf	changeStages@parameter2& (0+255),b
  1953  000C6C  0E7F               	movlw	high STR_47
  1954  000C6E  0100               	movlb	0	; () banked
  1955  000C70  6FD7               	movwf	(changeStages@parameter2+1)& (0+255),b
  1956  000C72  0E00               	movlw	0
  1957  000C74  0100               	movlb	0	; () banked
  1958  000C76  6FD9               	movwf	(changeStages@enemPos+1)& (0+255),b
  1959  000C78  0E00               	movlw	0
  1960  000C7A  6FD8               	movwf	changeStages@enemPos& (0+255),b
  1961  000C7C  ECC3  F010         	call	_changeStages	;wreg free
  1962                           
  1963                           ;main.c: 543: _delay((unsigned long)((100)*(24000000ul/4000.0)));
  1964  000C80  0E04               	movlw	4
  1965  000C82  6E33               	movwf	(??_juego4+1)& (0+255),c
  1966  000C84  0E0C               	movlw	12
  1967  000C86  6E32               	movwf	??_juego4& (0+255),c
  1968  000C88  0E34               	movlw	52
  1969  000C8A                     u4207:
  1970  000C8A  2EE8               	decfsz	wreg,f,c
  1971  000C8C  D7FE               	bra	u4207
  1972  000C8E  2E32               	decfsz	??_juego4& (0+255),f,c
  1973  000C90  D7FC               	bra	u4207
  1974  000C92  2E33               	decfsz	(??_juego4+1)& (0+255),f,c
  1975  000C94  D7FA               	bra	u4207
  1976                           
  1977                           ;main.c: 545: changeStages("      0   ","0           ", 2);
  1978  000C96  0E79               	movlw	low (STR_10+1)
  1979  000C98  0100               	movlb	0	; () banked
  1980  000C9A  6FD4               	movwf	changeStages@parameter1& (0+255),b
  1981  000C9C  0E7F               	movlw	high (STR_10+1)
  1982  000C9E  0100               	movlb	0	; () banked
  1983  000CA0  6FD5               	movwf	(changeStages@parameter1+1)& (0+255),b
  1984  000CA2  0EFE               	movlw	low STR_49
  1985  000CA4  0100               	movlb	0	; () banked
  1986  000CA6  6FD6               	movwf	changeStages@parameter2& (0+255),b
  1987  000CA8  0E7E               	movlw	high STR_49
  1988  000CAA  0100               	movlb	0	; () banked
  1989  000CAC  6FD7               	movwf	(changeStages@parameter2+1)& (0+255),b
  1990  000CAE  0E00               	movlw	0
  1991  000CB0  0100               	movlb	0	; () banked
  1992  000CB2  6FD9               	movwf	(changeStages@enemPos+1)& (0+255),b
  1993  000CB4  0E02               	movlw	2
  1994  000CB6  6FD8               	movwf	changeStages@enemPos& (0+255),b
  1995  000CB8  ECC3  F010         	call	_changeStages	;wreg free
  1996                           
  1997                           ;main.c: 546: _delay((unsigned long)((100)*(24000000ul/4000.0)));
  1998  000CBC  0E04               	movlw	4
  1999  000CBE  6E33               	movwf	(??_juego4+1)& (0+255),c
  2000  000CC0  0E0C               	movlw	12
  2001  000CC2  6E32               	movwf	??_juego4& (0+255),c
  2002  000CC4  0E34               	movlw	52
  2003  000CC6                     u4217:
  2004  000CC6  2EE8               	decfsz	wreg,f,c
  2005  000CC8  D7FE               	bra	u4217
  2006  000CCA  2E32               	decfsz	??_juego4& (0+255),f,c
  2007  000CCC  D7FC               	bra	u4217
  2008  000CCE  2E33               	decfsz	(??_juego4+1)& (0+255),f,c
  2009  000CD0  D7FA               	bra	u4217
  2010                           
  2011                           ;main.c: 548: changeStages("     0    ","            ", 0);
  2012  000CD2  0E61               	movlw	low (STR_12+1)
  2013  000CD4  0100               	movlb	0	; () banked
  2014  000CD6  6FD4               	movwf	changeStages@parameter1& (0+255),b
  2015  000CD8  0E7F               	movlw	high (STR_12+1)
  2016  000CDA  0100               	movlb	0	; () banked
  2017  000CDC  6FD5               	movwf	(changeStages@parameter1+1)& (0+255),b
  2018  000CDE  0EF1               	movlw	low STR_51
  2019  000CE0  0100               	movlb	0	; () banked
  2020  000CE2  6FD6               	movwf	changeStages@parameter2& (0+255),b
  2021  000CE4  0E7E               	movlw	high STR_51
  2022  000CE6  0100               	movlb	0	; () banked
  2023  000CE8  6FD7               	movwf	(changeStages@parameter2+1)& (0+255),b
  2024  000CEA  0E00               	movlw	0
  2025  000CEC  0100               	movlb	0	; () banked
  2026  000CEE  6FD9               	movwf	(changeStages@enemPos+1)& (0+255),b
  2027  000CF0  0E00               	movlw	0
  2028  000CF2  6FD8               	movwf	changeStages@enemPos& (0+255),b
  2029  000CF4  ECC3  F010         	call	_changeStages	;wreg free
  2030                           
  2031                           ;main.c: 549: _delay((unsigned long)((100)*(24000000ul/4000.0)));
  2032  000CF8  0E04               	movlw	4
  2033  000CFA  6E33               	movwf	(??_juego4+1)& (0+255),c
  2034  000CFC  0E0C               	movlw	12
  2035  000CFE  6E32               	movwf	??_juego4& (0+255),c
  2036  000D00  0E34               	movlw	52
  2037  000D02                     u4227:
  2038  000D02  2EE8               	decfsz	wreg,f,c
  2039  000D04  D7FE               	bra	u4227
  2040  000D06  2E32               	decfsz	??_juego4& (0+255),f,c
  2041  000D08  D7FC               	bra	u4227
  2042  000D0A  2E33               	decfsz	(??_juego4+1)& (0+255),f,c
  2043  000D0C  D7FA               	bra	u4227
  2044                           
  2045                           ;main.c: 551: changeStages("    0     ","            ", 0);
  2046  000D0E  0E49               	movlw	low (STR_21+1)
  2047  000D10  0100               	movlb	0	; () banked
  2048  000D12  6FD4               	movwf	changeStages@parameter1& (0+255),b
  2049  000D14  0E7F               	movlw	high (STR_21+1)
  2050  000D16  0100               	movlb	0	; () banked
  2051  000D18  6FD5               	movwf	(changeStages@parameter1+1)& (0+255),b
  2052  000D1A  0EF1               	movlw	low STR_51
  2053  000D1C  0100               	movlb	0	; () banked
  2054  000D1E  6FD6               	movwf	changeStages@parameter2& (0+255),b
  2055  000D20  0E7E               	movlw	high STR_51
  2056  000D22  0100               	movlb	0	; () banked
  2057  000D24  6FD7               	movwf	(changeStages@parameter2+1)& (0+255),b
  2058  000D26  0E00               	movlw	0
  2059  000D28  0100               	movlb	0	; () banked
  2060  000D2A  6FD9               	movwf	(changeStages@enemPos+1)& (0+255),b
  2061  000D2C  0E00               	movlw	0
  2062  000D2E  6FD8               	movwf	changeStages@enemPos& (0+255),b
  2063  000D30  ECC3  F010         	call	_changeStages	;wreg free
  2064                           
  2065                           ;main.c: 552: _delay((unsigned long)((100)*(24000000ul/4000.0)));
  2066  000D34  0E04               	movlw	4
  2067  000D36  6E33               	movwf	(??_juego4+1)& (0+255),c
  2068  000D38  0E0C               	movlw	12
  2069  000D3A  6E32               	movwf	??_juego4& (0+255),c
  2070  000D3C  0E34               	movlw	52
  2071  000D3E                     u4237:
  2072  000D3E  2EE8               	decfsz	wreg,f,c
  2073  000D40  D7FE               	bra	u4237
  2074  000D42  2E32               	decfsz	??_juego4& (0+255),f,c
  2075  000D44  D7FC               	bra	u4237
  2076  000D46  2E33               	decfsz	(??_juego4+1)& (0+255),f,c
  2077  000D48  D7FA               	bra	u4237
  2078                           
  2079                           ;main.c: 554: changeStages("   0      ","            ", 0);
  2080  000D4A  0E3D               	movlw	low (STR_23+1)
  2081  000D4C  0100               	movlb	0	; () banked
  2082  000D4E  6FD4               	movwf	changeStages@parameter1& (0+255),b
  2083  000D50  0E7F               	movlw	high (STR_23+1)
  2084  000D52  0100               	movlb	0	; () banked
  2085  000D54  6FD5               	movwf	(changeStages@parameter1+1)& (0+255),b
  2086  000D56  0EF1               	movlw	low STR_51
  2087  000D58  0100               	movlb	0	; () banked
  2088  000D5A  6FD6               	movwf	changeStages@parameter2& (0+255),b
  2089  000D5C  0E7E               	movlw	high STR_51
  2090  000D5E  0100               	movlb	0	; () banked
  2091  000D60  6FD7               	movwf	(changeStages@parameter2+1)& (0+255),b
  2092  000D62  0E00               	movlw	0
  2093  000D64  0100               	movlb	0	; () banked
  2094  000D66  6FD9               	movwf	(changeStages@enemPos+1)& (0+255),b
  2095  000D68  0E00               	movlw	0
  2096  000D6A  6FD8               	movwf	changeStages@enemPos& (0+255),b
  2097  000D6C  ECC3  F010         	call	_changeStages	;wreg free
  2098                           
  2099                           ;main.c: 555: _delay((unsigned long)((100)*(24000000ul/4000.0)));
  2100  000D70  0E04               	movlw	4
  2101  000D72  6E33               	movwf	(??_juego4+1)& (0+255),c
  2102  000D74  0E0C               	movlw	12
  2103  000D76  6E32               	movwf	??_juego4& (0+255),c
  2104  000D78  0E34               	movlw	52
  2105  000D7A                     u4247:
  2106  000D7A  2EE8               	decfsz	wreg,f,c
  2107  000D7C  D7FE               	bra	u4247
  2108  000D7E  2E32               	decfsz	??_juego4& (0+255),f,c
  2109  000D80  D7FC               	bra	u4247
  2110  000D82  2E33               	decfsz	(??_juego4+1)& (0+255),f,c
  2111  000D84  D7FA               	bra	u4247
  2112                           
  2113                           ;main.c: 557: changeStages("  0       ","            ", 0);
  2114  000D86  0E31               	movlw	low (STR_25+1)
  2115  000D88  0100               	movlb	0	; () banked
  2116  000D8A  6FD4               	movwf	changeStages@parameter1& (0+255),b
  2117  000D8C  0E7F               	movlw	high (STR_25+1)
  2118  000D8E  0100               	movlb	0	; () banked
  2119  000D90  6FD5               	movwf	(changeStages@parameter1+1)& (0+255),b
  2120  000D92  0EF1               	movlw	low STR_51
  2121  000D94  0100               	movlb	0	; () banked
  2122  000D96  6FD6               	movwf	changeStages@parameter2& (0+255),b
  2123  000D98  0E7E               	movlw	high STR_51
  2124  000D9A  0100               	movlb	0	; () banked
  2125  000D9C  6FD7               	movwf	(changeStages@parameter2+1)& (0+255),b
  2126  000D9E  0E00               	movlw	0
  2127  000DA0  0100               	movlb	0	; () banked
  2128  000DA2  6FD9               	movwf	(changeStages@enemPos+1)& (0+255),b
  2129  000DA4  0E00               	movlw	0
  2130  000DA6  6FD8               	movwf	changeStages@enemPos& (0+255),b
  2131  000DA8  ECC3  F010         	call	_changeStages	;wreg free
  2132                           
  2133                           ;main.c: 558: _delay((unsigned long)((100)*(24000000ul/4000.0)));
  2134  000DAC  0E04               	movlw	4
  2135  000DAE  6E33               	movwf	(??_juego4+1)& (0+255),c
  2136  000DB0  0E0C               	movlw	12
  2137  000DB2  6E32               	movwf	??_juego4& (0+255),c
  2138  000DB4  0E34               	movlw	52
  2139  000DB6                     u4257:
  2140  000DB6  2EE8               	decfsz	wreg,f,c
  2141  000DB8  D7FE               	bra	u4257
  2142  000DBA  2E32               	decfsz	??_juego4& (0+255),f,c
  2143  000DBC  D7FC               	bra	u4257
  2144  000DBE  2E33               	decfsz	(??_juego4+1)& (0+255),f,c
  2145  000DC0  D7FA               	bra	u4257
  2146                           
  2147                           ;main.c: 560: changeStages(" 0        ","            ", 0);
  2148  000DC2  0E25               	movlw	low (STR_30+1)
  2149  000DC4  0100               	movlb	0	; () banked
  2150  000DC6  6FD4               	movwf	changeStages@parameter1& (0+255),b
  2151  000DC8  0E7F               	movlw	high (STR_30+1)
  2152  000DCA  0100               	movlb	0	; () banked
  2153  000DCC  6FD5               	movwf	(changeStages@parameter1+1)& (0+255),b
  2154  000DCE  0EF1               	movlw	low STR_51
  2155  000DD0  0100               	movlb	0	; () banked
  2156  000DD2  6FD6               	movwf	changeStages@parameter2& (0+255),b
  2157  000DD4  0E7E               	movlw	high STR_51
  2158  000DD6  0100               	movlb	0	; () banked
  2159  000DD8  6FD7               	movwf	(changeStages@parameter2+1)& (0+255),b
  2160  000DDA  0E00               	movlw	0
  2161  000DDC  0100               	movlb	0	; () banked
  2162  000DDE  6FD9               	movwf	(changeStages@enemPos+1)& (0+255),b
  2163  000DE0  0E00               	movlw	0
  2164  000DE2  6FD8               	movwf	changeStages@enemPos& (0+255),b
  2165  000DE4  ECC3  F010         	call	_changeStages	;wreg free
  2166                           
  2167                           ;main.c: 561: _delay((unsigned long)((100)*(24000000ul/4000.0)));
  2168  000DE8  0E04               	movlw	4
  2169  000DEA  6E33               	movwf	(??_juego4+1)& (0+255),c
  2170  000DEC  0E0C               	movlw	12
  2171  000DEE  6E32               	movwf	??_juego4& (0+255),c
  2172  000DF0  0E34               	movlw	52
  2173  000DF2                     u4267:
  2174  000DF2  2EE8               	decfsz	wreg,f,c
  2175  000DF4  D7FE               	bra	u4267
  2176  000DF6  2E32               	decfsz	??_juego4& (0+255),f,c
  2177  000DF8  D7FC               	bra	u4267
  2178  000DFA  2E33               	decfsz	(??_juego4+1)& (0+255),f,c
  2179  000DFC  D7FA               	bra	u4267
  2180                           
  2181                           ;main.c: 563: changeStages("0         ","            ", 1);
  2182  000DFE  0E19               	movlw	low (STR_32+1)
  2183  000E00  0100               	movlb	0	; () banked
  2184  000E02  6FD4               	movwf	changeStages@parameter1& (0+255),b
  2185  000E04  0E7F               	movlw	high (STR_32+1)
  2186  000E06  0100               	movlb	0	; () banked
  2187  000E08  6FD5               	movwf	(changeStages@parameter1+1)& (0+255),b
  2188  000E0A  0EF1               	movlw	low STR_51
  2189  000E0C  0100               	movlb	0	; () banked
  2190  000E0E  6FD6               	movwf	changeStages@parameter2& (0+255),b
  2191  000E10  0E7E               	movlw	high STR_51
  2192  000E12  0100               	movlb	0	; () banked
  2193  000E14  6FD7               	movwf	(changeStages@parameter2+1)& (0+255),b
  2194  000E16  0E00               	movlw	0
  2195  000E18  0100               	movlb	0	; () banked
  2196  000E1A  6FD9               	movwf	(changeStages@enemPos+1)& (0+255),b
  2197  000E1C  0E01               	movlw	1
  2198  000E1E  6FD8               	movwf	changeStages@enemPos& (0+255),b
  2199  000E20  ECC3  F010         	call	_changeStages	;wreg free
  2200                           
  2201                           ;main.c: 564: _delay((unsigned long)((100)*(24000000ul/4000.0)));
  2202  000E24  0E04               	movlw	4
  2203  000E26  6E33               	movwf	(??_juego4+1)& (0+255),c
  2204  000E28  0E0C               	movlw	12
  2205  000E2A  6E32               	movwf	??_juego4& (0+255),c
  2206  000E2C  0E34               	movlw	52
  2207  000E2E                     u4277:
  2208  000E2E  2EE8               	decfsz	wreg,f,c
  2209  000E30  D7FE               	bra	u4277
  2210  000E32  2E32               	decfsz	??_juego4& (0+255),f,c
  2211  000E34  D7FC               	bra	u4277
  2212  000E36  2E33               	decfsz	(??_juego4+1)& (0+255),f,c
  2213  000E38  D7FA               	bra	u4277
  2214                           
  2215                           ;main.c: 566: int score = changeStages("          ","            ", 0);
  2216  000E3A  0EF3               	movlw	low (STR_51+2)
  2217  000E3C  0100               	movlb	0	; () banked
  2218  000E3E  6FD4               	movwf	changeStages@parameter1& (0+255),b
  2219  000E40  0E7E               	movlw	high (STR_51+2)
  2220  000E42  0100               	movlb	0	; () banked
  2221  000E44  6FD5               	movwf	(changeStages@parameter1+1)& (0+255),b
  2222  000E46  0EF1               	movlw	low STR_51
  2223  000E48  0100               	movlb	0	; () banked
  2224  000E4A  6FD6               	movwf	changeStages@parameter2& (0+255),b
  2225  000E4C  0E7E               	movlw	high STR_51
  2226  000E4E  0100               	movlb	0	; () banked
  2227  000E50  6FD7               	movwf	(changeStages@parameter2+1)& (0+255),b
  2228  000E52  0E00               	movlw	0
  2229  000E54  0100               	movlb	0	; () banked
  2230  000E56  6FD9               	movwf	(changeStages@enemPos+1)& (0+255),b
  2231  000E58  0E00               	movlw	0
  2232  000E5A  6FD8               	movwf	changeStages@enemPos& (0+255),b
  2233  000E5C  ECC3  F010         	call	_changeStages	;wreg free
  2234  000E60  C0D4  F0E6         	movff	?_changeStages,juego4@score
  2235  000E64  C0D5  F0E7         	movff	?_changeStages+1,juego4@score+1
  2236                           
  2237                           ;main.c: 568: return score;
  2238  000E68  C0E6  F030         	movff	juego4@score,?_juego4
  2239  000E6C  C0E7  F031         	movff	juego4@score+1,?_juego4+1
  2240  000E70  0012               	return	
  2241  000E72                     __end_of_juego4:
  2242                           	opt stack 0
  2243                           tblptru	equ	0xFF8
  2244                           tblptrh	equ	0xFF7
  2245                           tblptrl	equ	0xFF6
  2246                           tablat	equ	0xFF5
  2247                           intcon	equ	0xFF2
  2248                           postinc0	equ	0xFEE
  2249                           wreg	equ	0xFE8
  2250                           postdec1	equ	0xFE5
  2251                           fsr1l	equ	0xFE1
  2252                           status	equ	0xFD8
  2253                           
  2254 ;; *************** function _juego3 *****************
  2255 ;; Defined at:
  2256 ;;		line 383 in file "main.c"
  2257 ;; Parameters:    Size  Location     Type
  2258 ;;		None
  2259 ;; Auto vars:     Size  Location     Type
  2260 ;;  pos             2    0        int 
  2261 ;; Return value:  Size  Location     Type
  2262 ;;                  1    wreg      void 
  2263 ;; Registers used:
  2264 ;;		wreg, fsr0l, fsr0h, fsr2l, fsr2h, status,2, status,0, tblptrl, tblptrh, tblptru, prodl, prodh, cstack
  2265 ;; Tracked objects:
  2266 ;;		On entry : 0/0
  2267 ;;		On exit  : 0/0
  2268 ;;		Unchanged: 0/0
  2269 ;; Data sizes:     COMRAM   BANK0   BANK1   BANK2   BANK3   BANK4   BANK5   BANK6   BANK7
  2270 ;;      Params:         0       0       0       0       0       0       0       0       0
  2271 ;;      Locals:         0       0       0       0       0       0       0       0       0
  2272 ;;      Temps:          2       0       0       0       0       0       0       0       0
  2273 ;;      Totals:         2       0       0       0       0       0       0       0       0
  2274 ;;Total ram usage:        2 bytes
  2275 ;; Hardware stack levels used:    1
  2276 ;; Hardware stack levels required when called:    9
  2277 ;; This function calls:
  2278 ;;		_changeStages
  2279 ;; This function is called by:
  2280 ;;		_main
  2281 ;; This function uses a non-reentrant model
  2282 ;;
  2283                           
  2284                           	psect	text3
  2285  000012                     __ptext3:
  2286                           	opt stack 0
  2287  000012                     _juego3:
  2288                           	opt stack 21
  2289                           
  2290                           ;main.c: 384: int pos;
  2291                           ;main.c: 385: _delay((unsigned long)((200)*(24000000ul/4000.0)));
  2292                           
  2293                           ;incstack = 0
  2294  000012  0E07               	movlw	7
  2295  000014  6E31               	movwf	(??_juego3+1)& (0+255),c
  2296  000016  0E17               	movlw	23
  2297  000018  6E30               	movwf	??_juego3& (0+255),c
  2298  00001A  0E6A               	movlw	106
  2299  00001C                     u4287:
  2300  00001C  2EE8               	decfsz	wreg,f,c
  2301  00001E  D7FE               	bra	u4287
  2302  000020  2E30               	decfsz	??_juego3& (0+255),f,c
  2303  000022  D7FC               	bra	u4287
  2304  000024  2E31               	decfsz	(??_juego3+1)& (0+255),f,c
  2305  000026  D7FA               	bra	u4287
  2306  000028  D000               	nop2	
  2307                           
  2308                           ;main.c: 386: changeStages("          0","           ", 0);
  2309  00002A  0ED8               	movlw	low STR_4
  2310  00002C  0100               	movlb	0	; () banked
  2311  00002E  6FD4               	movwf	changeStages@parameter1& (0+255),b
  2312  000030  0E7F               	movlw	high STR_4
  2313  000032  0100               	movlb	0	; () banked
  2314  000034  6FD5               	movwf	(changeStages@parameter1+1)& (0+255),b
  2315  000036  0EF2               	movlw	low (STR_51+1)
  2316  000038  0100               	movlb	0	; () banked
  2317  00003A  6FD6               	movwf	changeStages@parameter2& (0+255),b
  2318  00003C  0E7E               	movlw	high (STR_51+1)
  2319  00003E  0100               	movlb	0	; () banked
  2320  000040  6FD7               	movwf	(changeStages@parameter2+1)& (0+255),b
  2321  000042  0E00               	movlw	0
  2322  000044  0100               	movlb	0	; () banked
  2323  000046  6FD9               	movwf	(changeStages@enemPos+1)& (0+255),b
  2324  000048  0E00               	movlw	0
  2325  00004A  6FD8               	movwf	changeStages@enemPos& (0+255),b
  2326  00004C  ECC3  F010         	call	_changeStages	;wreg free
  2327                           
  2328                           ;main.c: 388: _delay((unsigned long)((200)*(24000000ul/4000.0)));
  2329  000050  0E07               	movlw	7
  2330  000052  6E31               	movwf	(??_juego3+1)& (0+255),c
  2331  000054  0E17               	movlw	23
  2332  000056  6E30               	movwf	??_juego3& (0+255),c
  2333  000058  0E6A               	movlw	106
  2334  00005A                     u4297:
  2335  00005A  2EE8               	decfsz	wreg,f,c
  2336  00005C  D7FE               	bra	u4297
  2337  00005E  2E30               	decfsz	??_juego3& (0+255),f,c
  2338  000060  D7FC               	bra	u4297
  2339  000062  2E31               	decfsz	(??_juego3+1)& (0+255),f,c
  2340  000064  D7FA               	bra	u4297
  2341  000066  D000               	nop2	
  2342                           
  2343                           ;main.c: 389: changeStages("         0 ","           ", 0);
  2344  000068  0EB4               	movlw	low STR_6
  2345  00006A  0100               	movlb	0	; () banked
  2346  00006C  6FD4               	movwf	changeStages@parameter1& (0+255),b
  2347  00006E  0E7F               	movlw	high STR_6
  2348  000070  0100               	movlb	0	; () banked
  2349  000072  6FD5               	movwf	(changeStages@parameter1+1)& (0+255),b
  2350  000074  0EF2               	movlw	low (STR_51+1)
  2351  000076  0100               	movlb	0	; () banked
  2352  000078  6FD6               	movwf	changeStages@parameter2& (0+255),b
  2353  00007A  0E7E               	movlw	high (STR_51+1)
  2354  00007C  0100               	movlb	0	; () banked
  2355  00007E  6FD7               	movwf	(changeStages@parameter2+1)& (0+255),b
  2356  000080  0E00               	movlw	0
  2357  000082  0100               	movlb	0	; () banked
  2358  000084  6FD9               	movwf	(changeStages@enemPos+1)& (0+255),b
  2359  000086  0E00               	movlw	0
  2360  000088  6FD8               	movwf	changeStages@enemPos& (0+255),b
  2361  00008A  ECC3  F010         	call	_changeStages	;wreg free
  2362                           
  2363                           ;main.c: 390: _delay((unsigned long)((200)*(24000000ul/4000.0)));
  2364  00008E  0E07               	movlw	7
  2365  000090  6E31               	movwf	(??_juego3+1)& (0+255),c
  2366  000092  0E17               	movlw	23
  2367  000094  6E30               	movwf	??_juego3& (0+255),c
  2368  000096  0E6A               	movlw	106
  2369  000098                     u4307:
  2370  000098  2EE8               	decfsz	wreg,f,c
  2371  00009A  D7FE               	bra	u4307
  2372  00009C  2E30               	decfsz	??_juego3& (0+255),f,c
  2373  00009E  D7FC               	bra	u4307
  2374  0000A0  2E31               	decfsz	(??_juego3+1)& (0+255),f,c
  2375  0000A2  D7FA               	bra	u4307
  2376  0000A4  D000               	nop2	
  2377                           
  2378                           ;main.c: 392: changeStages("        0  ","           ", 0);
  2379  0000A6  0E90               	movlw	low STR_8
  2380  0000A8  0100               	movlb	0	; () banked
  2381  0000AA  6FD4               	movwf	changeStages@parameter1& (0+255),b
  2382  0000AC  0E7F               	movlw	high STR_8
  2383  0000AE  0100               	movlb	0	; () banked
  2384  0000B0  6FD5               	movwf	(changeStages@parameter1+1)& (0+255),b
  2385  0000B2  0EF2               	movlw	low (STR_51+1)
  2386  0000B4  0100               	movlb	0	; () banked
  2387  0000B6  6FD6               	movwf	changeStages@parameter2& (0+255),b
  2388  0000B8  0E7E               	movlw	high (STR_51+1)
  2389  0000BA  0100               	movlb	0	; () banked
  2390  0000BC  6FD7               	movwf	(changeStages@parameter2+1)& (0+255),b
  2391  0000BE  0E00               	movlw	0
  2392  0000C0  0100               	movlb	0	; () banked
  2393  0000C2  6FD9               	movwf	(changeStages@enemPos+1)& (0+255),b
  2394  0000C4  0E00               	movlw	0
  2395  0000C6  6FD8               	movwf	changeStages@enemPos& (0+255),b
  2396  0000C8  ECC3  F010         	call	_changeStages	;wreg free
  2397                           
  2398                           ;main.c: 393: _delay((unsigned long)((200)*(24000000ul/4000.0)));
  2399  0000CC  0E07               	movlw	7
  2400  0000CE  6E31               	movwf	(??_juego3+1)& (0+255),c
  2401  0000D0  0E17               	movlw	23
  2402  0000D2  6E30               	movwf	??_juego3& (0+255),c
  2403  0000D4  0E6A               	movlw	106
  2404  0000D6                     u4317:
  2405  0000D6  2EE8               	decfsz	wreg,f,c
  2406  0000D8  D7FE               	bra	u4317
  2407  0000DA  2E30               	decfsz	??_juego3& (0+255),f,c
  2408  0000DC  D7FC               	bra	u4317
  2409  0000DE  2E31               	decfsz	(??_juego3+1)& (0+255),f,c
  2410  0000E0  D7FA               	bra	u4317
  2411  0000E2  D000               	nop2	
  2412                           
  2413                           ;main.c: 395: changeStages("       0   ","          0", 0);
  2414  0000E4  0E78               	movlw	low STR_10
  2415  0000E6  0100               	movlb	0	; () banked
  2416  0000E8  6FD4               	movwf	changeStages@parameter1& (0+255),b
  2417  0000EA  0E7F               	movlw	high STR_10
  2418  0000EC  0100               	movlb	0	; () banked
  2419  0000EE  6FD5               	movwf	(changeStages@parameter1+1)& (0+255),b
  2420  0000F0  0ED8               	movlw	low STR_4
  2421  0000F2  0100               	movlb	0	; () banked
  2422  0000F4  6FD6               	movwf	changeStages@parameter2& (0+255),b
  2423  0000F6  0E7F               	movlw	high STR_4
  2424  0000F8  0100               	movlb	0	; () banked
  2425  0000FA  6FD7               	movwf	(changeStages@parameter2+1)& (0+255),b
  2426  0000FC  0E00               	movlw	0
  2427  0000FE  0100               	movlb	0	; () banked
  2428  000100  6FD9               	movwf	(changeStages@enemPos+1)& (0+255),b
  2429  000102  0E00               	movlw	0
  2430  000104  6FD8               	movwf	changeStages@enemPos& (0+255),b
  2431  000106  ECC3  F010         	call	_changeStages	;wreg free
  2432                           
  2433                           ;main.c: 396: _delay((unsigned long)((200)*(24000000ul/4000.0)));
  2434  00010A  0E07               	movlw	7
  2435  00010C  6E31               	movwf	(??_juego3+1)& (0+255),c
  2436  00010E  0E17               	movlw	23
  2437  000110  6E30               	movwf	??_juego3& (0+255),c
  2438  000112  0E6A               	movlw	106
  2439  000114                     u4327:
  2440  000114  2EE8               	decfsz	wreg,f,c
  2441  000116  D7FE               	bra	u4327
  2442  000118  2E30               	decfsz	??_juego3& (0+255),f,c
  2443  00011A  D7FC               	bra	u4327
  2444  00011C  2E31               	decfsz	(??_juego3+1)& (0+255),f,c
  2445  00011E  D7FA               	bra	u4327
  2446  000120  D000               	nop2	
  2447                           
  2448                           ;main.c: 398: changeStages("      0    ","         0 ", 0);
  2449  000122  0E60               	movlw	low STR_12
  2450  000124  0100               	movlb	0	; () banked
  2451  000126  6FD4               	movwf	changeStages@parameter1& (0+255),b
  2452  000128  0E7F               	movlw	high STR_12
  2453  00012A  0100               	movlb	0	; () banked
  2454  00012C  6FD5               	movwf	(changeStages@parameter1+1)& (0+255),b
  2455  00012E  0EB4               	movlw	low STR_6
  2456  000130  0100               	movlb	0	; () banked
  2457  000132  6FD6               	movwf	changeStages@parameter2& (0+255),b
  2458  000134  0E7F               	movlw	high STR_6
  2459  000136  0100               	movlb	0	; () banked
  2460  000138  6FD7               	movwf	(changeStages@parameter2+1)& (0+255),b
  2461  00013A  0E00               	movlw	0
  2462  00013C  0100               	movlb	0	; () banked
  2463  00013E  6FD9               	movwf	(changeStages@enemPos+1)& (0+255),b
  2464  000140  0E00               	movlw	0
  2465  000142  6FD8               	movwf	changeStages@enemPos& (0+255),b
  2466  000144  ECC3  F010         	call	_changeStages	;wreg free
  2467                           
  2468                           ;main.c: 399: _delay((unsigned long)((200)*(24000000ul/4000.0)));
  2469  000148  0E07               	movlw	7
  2470  00014A  6E31               	movwf	(??_juego3+1)& (0+255),c
  2471  00014C  0E17               	movlw	23
  2472  00014E  6E30               	movwf	??_juego3& (0+255),c
  2473  000150  0E6A               	movlw	106
  2474  000152                     u4337:
  2475  000152  2EE8               	decfsz	wreg,f,c
  2476  000154  D7FE               	bra	u4337
  2477  000156  2E30               	decfsz	??_juego3& (0+255),f,c
  2478  000158  D7FC               	bra	u4337
  2479  00015A  2E31               	decfsz	(??_juego3+1)& (0+255),f,c
  2480  00015C  D7FA               	bra	u4337
  2481  00015E  D000               	nop2	
  2482                           
  2483                           ;main.c: 401: changeStages("     0    0","        0  ", 0);
  2484  000160  0EF0               	movlw	low STR_14
  2485  000162  0100               	movlb	0	; () banked
  2486  000164  6FD4               	movwf	changeStages@parameter1& (0+255),b
  2487  000166  0E7F               	movlw	high STR_14
  2488  000168  0100               	movlb	0	; () banked
  2489  00016A  6FD5               	movwf	(changeStages@parameter1+1)& (0+255),b
  2490  00016C  0E90               	movlw	low STR_8
  2491  00016E  0100               	movlb	0	; () banked
  2492  000170  6FD6               	movwf	changeStages@parameter2& (0+255),b
  2493  000172  0E7F               	movlw	high STR_8
  2494  000174  0100               	movlb	0	; () banked
  2495  000176  6FD7               	movwf	(changeStages@parameter2+1)& (0+255),b
  2496  000178  0E00               	movlw	0
  2497  00017A  0100               	movlb	0	; () banked
  2498  00017C  6FD9               	movwf	(changeStages@enemPos+1)& (0+255),b
  2499  00017E  0E00               	movlw	0
  2500  000180  6FD8               	movwf	changeStages@enemPos& (0+255),b
  2501  000182  ECC3  F010         	call	_changeStages	;wreg free
  2502                           
  2503                           ;main.c: 402: _delay((unsigned long)((200)*(24000000ul/4000.0)));
  2504  000186  0E07               	movlw	7
  2505  000188  6E31               	movwf	(??_juego3+1)& (0+255),c
  2506  00018A  0E17               	movlw	23
  2507  00018C  6E30               	movwf	??_juego3& (0+255),c
  2508  00018E  0E6A               	movlw	106
  2509  000190                     u4347:
  2510  000190  2EE8               	decfsz	wreg,f,c
  2511  000192  D7FE               	bra	u4347
  2512  000194  2E30               	decfsz	??_juego3& (0+255),f,c
  2513  000196  D7FC               	bra	u4347
  2514  000198  2E31               	decfsz	(??_juego3+1)& (0+255),f,c
  2515  00019A  D7FA               	bra	u4347
  2516  00019C  D000               	nop2	
  2517                           
  2518                           ;main.c: 404: changeStages("    0    0 ","       0   ", 0);
  2519  00019E  0ECC               	movlw	low STR_16
  2520  0001A0  0100               	movlb	0	; () banked
  2521  0001A2  6FD4               	movwf	changeStages@parameter1& (0+255),b
  2522  0001A4  0E7F               	movlw	high STR_16
  2523  0001A6  0100               	movlb	0	; () banked
  2524  0001A8  6FD5               	movwf	(changeStages@parameter1+1)& (0+255),b
  2525  0001AA  0E78               	movlw	low STR_10
  2526  0001AC  0100               	movlb	0	; () banked
  2527  0001AE  6FD6               	movwf	changeStages@parameter2& (0+255),b
  2528  0001B0  0E7F               	movlw	high STR_10
  2529  0001B2  0100               	movlb	0	; () banked
  2530  0001B4  6FD7               	movwf	(changeStages@parameter2+1)& (0+255),b
  2531  0001B6  0E00               	movlw	0
  2532  0001B8  0100               	movlb	0	; () banked
  2533  0001BA  6FD9               	movwf	(changeStages@enemPos+1)& (0+255),b
  2534  0001BC  0E00               	movlw	0
  2535  0001BE  6FD8               	movwf	changeStages@enemPos& (0+255),b
  2536  0001C0  ECC3  F010         	call	_changeStages	;wreg free
  2537                           
  2538                           ;main.c: 405: _delay((unsigned long)((200)*(24000000ul/4000.0)));
  2539  0001C4  0E07               	movlw	7
  2540  0001C6  6E31               	movwf	(??_juego3+1)& (0+255),c
  2541  0001C8  0E17               	movlw	23
  2542  0001CA  6E30               	movwf	??_juego3& (0+255),c
  2543  0001CC  0E6A               	movlw	106
  2544  0001CE                     u4357:
  2545  0001CE  2EE8               	decfsz	wreg,f,c
  2546  0001D0  D7FE               	bra	u4357
  2547  0001D2  2E30               	decfsz	??_juego3& (0+255),f,c
  2548  0001D4  D7FC               	bra	u4357
  2549  0001D6  2E31               	decfsz	(??_juego3+1)& (0+255),f,c
  2550  0001D8  D7FA               	bra	u4357
  2551  0001DA  D000               	nop2	
  2552                           
  2553                           ;main.c: 407: changeStages("   0    0  ","      0    ", 0);
  2554  0001DC  0EA8               	movlw	low STR_18
  2555  0001DE  0100               	movlb	0	; () banked
  2556  0001E0  6FD4               	movwf	changeStages@parameter1& (0+255),b
  2557  0001E2  0E7F               	movlw	high STR_18
  2558  0001E4  0100               	movlb	0	; () banked
  2559  0001E6  6FD5               	movwf	(changeStages@parameter1+1)& (0+255),b
  2560  0001E8  0E60               	movlw	low STR_12
  2561  0001EA  0100               	movlb	0	; () banked
  2562  0001EC  6FD6               	movwf	changeStages@parameter2& (0+255),b
  2563  0001EE  0E7F               	movlw	high STR_12
  2564  0001F0  0100               	movlb	0	; () banked
  2565  0001F2  6FD7               	movwf	(changeStages@parameter2+1)& (0+255),b
  2566  0001F4  0E00               	movlw	0
  2567  0001F6  0100               	movlb	0	; () banked
  2568  0001F8  6FD9               	movwf	(changeStages@enemPos+1)& (0+255),b
  2569  0001FA  0E00               	movlw	0
  2570  0001FC  6FD8               	movwf	changeStages@enemPos& (0+255),b
  2571  0001FE  ECC3  F010         	call	_changeStages	;wreg free
  2572                           
  2573                           ;main.c: 408: _delay((unsigned long)((200)*(24000000ul/4000.0)));
  2574  000202  0E07               	movlw	7
  2575  000204  6E31               	movwf	(??_juego3+1)& (0+255),c
  2576  000206  0E17               	movlw	23
  2577  000208  6E30               	movwf	??_juego3& (0+255),c
  2578  00020A  0E6A               	movlw	106
  2579  00020C                     u4367:
  2580  00020C  2EE8               	decfsz	wreg,f,c
  2581  00020E  D7FE               	bra	u4367
  2582  000210  2E30               	decfsz	??_juego3& (0+255),f,c
  2583  000212  D7FC               	bra	u4367
  2584  000214  2E31               	decfsz	(??_juego3+1)& (0+255),f,c
  2585  000216  D7FA               	bra	u4367
  2586  000218  D000               	nop2	
  2587                           
  2588                           ;main.c: 410: changeStages("  0    0   ","     0     ", 0);
  2589  00021A  0E84               	movlw	low STR_20
  2590  00021C  0100               	movlb	0	; () banked
  2591  00021E  6FD4               	movwf	changeStages@parameter1& (0+255),b
  2592  000220  0E7F               	movlw	high STR_20
  2593  000222  0100               	movlb	0	; () banked
  2594  000224  6FD5               	movwf	(changeStages@parameter1+1)& (0+255),b
  2595  000226  0E48               	movlw	low STR_21
  2596  000228  0100               	movlb	0	; () banked
  2597  00022A  6FD6               	movwf	changeStages@parameter2& (0+255),b
  2598  00022C  0E7F               	movlw	high STR_21
  2599  00022E  0100               	movlb	0	; () banked
  2600  000230  6FD7               	movwf	(changeStages@parameter2+1)& (0+255),b
  2601  000232  0E00               	movlw	0
  2602  000234  0100               	movlb	0	; () banked
  2603  000236  6FD9               	movwf	(changeStages@enemPos+1)& (0+255),b
  2604  000238  0E00               	movlw	0
  2605  00023A  6FD8               	movwf	changeStages@enemPos& (0+255),b
  2606  00023C  ECC3  F010         	call	_changeStages	;wreg free
  2607                           
  2608                           ;main.c: 411: _delay((unsigned long)((200)*(24000000ul/4000.0)));
  2609  000240  0E07               	movlw	7
  2610  000242  6E31               	movwf	(??_juego3+1)& (0+255),c
  2611  000244  0E17               	movlw	23
  2612  000246  6E30               	movwf	??_juego3& (0+255),c
  2613  000248  0E6A               	movlw	106
  2614  00024A                     u4377:
  2615  00024A  2EE8               	decfsz	wreg,f,c
  2616  00024C  D7FE               	bra	u4377
  2617  00024E  2E30               	decfsz	??_juego3& (0+255),f,c
  2618  000250  D7FC               	bra	u4377
  2619  000252  2E31               	decfsz	(??_juego3+1)& (0+255),f,c
  2620  000254  D7FA               	bra	u4377
  2621  000256  D000               	nop2	
  2622                           
  2623                           ;main.c: 413: changeStages(" 0    0    ","    0      ", 0);
  2624  000258  0E6C               	movlw	low STR_22
  2625  00025A  0100               	movlb	0	; () banked
  2626  00025C  6FD4               	movwf	changeStages@parameter1& (0+255),b
  2627  00025E  0E7F               	movlw	high STR_22
  2628  000260  0100               	movlb	0	; () banked
  2629  000262  6FD5               	movwf	(changeStages@parameter1+1)& (0+255),b
  2630  000264  0E3C               	movlw	low STR_23
  2631  000266  0100               	movlb	0	; () banked
  2632  000268  6FD6               	movwf	changeStages@parameter2& (0+255),b
  2633  00026A  0E7F               	movlw	high STR_23
  2634  00026C  0100               	movlb	0	; () banked
  2635  00026E  6FD7               	movwf	(changeStages@parameter2+1)& (0+255),b
  2636  000270  0E00               	movlw	0
  2637  000272  0100               	movlb	0	; () banked
  2638  000274  6FD9               	movwf	(changeStages@enemPos+1)& (0+255),b
  2639  000276  0E00               	movlw	0
  2640  000278  6FD8               	movwf	changeStages@enemPos& (0+255),b
  2641  00027A  ECC3  F010         	call	_changeStages	;wreg free
  2642                           
  2643                           ;main.c: 414: _delay((unsigned long)((200)*(24000000ul/4000.0)));
  2644  00027E  0E07               	movlw	7
  2645  000280  6E31               	movwf	(??_juego3+1)& (0+255),c
  2646  000282  0E17               	movlw	23
  2647  000284  6E30               	movwf	??_juego3& (0+255),c
  2648  000286  0E6A               	movlw	106
  2649  000288                     u4387:
  2650  000288  2EE8               	decfsz	wreg,f,c
  2651  00028A  D7FE               	bra	u4387
  2652  00028C  2E30               	decfsz	??_juego3& (0+255),f,c
  2653  00028E  D7FC               	bra	u4387
  2654  000290  2E31               	decfsz	(??_juego3+1)& (0+255),f,c
  2655  000292  D7FA               	bra	u4387
  2656  000294  D000               	nop2	
  2657                           
  2658                           ;main.c: 416: changeStages("0    0     ","   0       ", 1);
  2659  000296  0E54               	movlw	low STR_24
  2660  000298  0100               	movlb	0	; () banked
  2661  00029A  6FD4               	movwf	changeStages@parameter1& (0+255),b
  2662  00029C  0E7F               	movlw	high STR_24
  2663  00029E  0100               	movlb	0	; () banked
  2664  0002A0  6FD5               	movwf	(changeStages@parameter1+1)& (0+255),b
  2665  0002A2  0E30               	movlw	low STR_25
  2666  0002A4  0100               	movlb	0	; () banked
  2667  0002A6  6FD6               	movwf	changeStages@parameter2& (0+255),b
  2668  0002A8  0E7F               	movlw	high STR_25
  2669  0002AA  0100               	movlb	0	; () banked
  2670  0002AC  6FD7               	movwf	(changeStages@parameter2+1)& (0+255),b
  2671  0002AE  0E00               	movlw	0
  2672  0002B0  0100               	movlb	0	; () banked
  2673  0002B2  6FD9               	movwf	(changeStages@enemPos+1)& (0+255),b
  2674  0002B4  0E01               	movlw	1
  2675  0002B6  6FD8               	movwf	changeStages@enemPos& (0+255),b
  2676  0002B8  ECC3  F010         	call	_changeStages	;wreg free
  2677                           
  2678                           ;main.c: 417: _delay((unsigned long)((200)*(24000000ul/4000.0)));
  2679  0002BC  0E07               	movlw	7
  2680  0002BE  6E31               	movwf	(??_juego3+1)& (0+255),c
  2681  0002C0  0E17               	movlw	23
  2682  0002C2  6E30               	movwf	??_juego3& (0+255),c
  2683  0002C4  0E6A               	movlw	106
  2684  0002C6                     u4397:
  2685  0002C6  2EE8               	decfsz	wreg,f,c
  2686  0002C8  D7FE               	bra	u4397
  2687  0002CA  2E30               	decfsz	??_juego3& (0+255),f,c
  2688  0002CC  D7FC               	bra	u4397
  2689  0002CE  2E31               	decfsz	(??_juego3+1)& (0+255),f,c
  2690  0002D0  D7FA               	bra	u4397
  2691  0002D2  D000               	nop2	
  2692                           
  2693                           ;main.c: 419: changeStages("    0      ","  0       0", 0);
  2694  0002D4  0E3C               	movlw	low STR_23
  2695  0002D6  0100               	movlb	0	; () banked
  2696  0002D8  6FD4               	movwf	changeStages@parameter1& (0+255),b
  2697  0002DA  0E7F               	movlw	high STR_23
  2698  0002DC  0100               	movlb	0	; () banked
  2699  0002DE  6FD5               	movwf	(changeStages@parameter1+1)& (0+255),b
  2700  0002E0  0EE4               	movlw	low STR_27
  2701  0002E2  0100               	movlb	0	; () banked
  2702  0002E4  6FD6               	movwf	changeStages@parameter2& (0+255),b
  2703  0002E6  0E7F               	movlw	high STR_27
  2704  0002E8  0100               	movlb	0	; () banked
  2705  0002EA  6FD7               	movwf	(changeStages@parameter2+1)& (0+255),b
  2706  0002EC  0E00               	movlw	0
  2707  0002EE  0100               	movlb	0	; () banked
  2708  0002F0  6FD9               	movwf	(changeStages@enemPos+1)& (0+255),b
  2709  0002F2  0E00               	movlw	0
  2710  0002F4  6FD8               	movwf	changeStages@enemPos& (0+255),b
  2711  0002F6  ECC3  F010         	call	_changeStages	;wreg free
  2712                           
  2713                           ;main.c: 420: _delay((unsigned long)((200)*(24000000ul/4000.0)));
  2714  0002FA  0E07               	movlw	7
  2715  0002FC  6E31               	movwf	(??_juego3+1)& (0+255),c
  2716  0002FE  0E17               	movlw	23
  2717  000300  6E30               	movwf	??_juego3& (0+255),c
  2718  000302  0E6A               	movlw	106
  2719  000304                     u4407:
  2720  000304  2EE8               	decfsz	wreg,f,c
  2721  000306  D7FE               	bra	u4407
  2722  000308  2E30               	decfsz	??_juego3& (0+255),f,c
  2723  00030A  D7FC               	bra	u4407
  2724  00030C  2E31               	decfsz	(??_juego3+1)& (0+255),f,c
  2725  00030E  D7FA               	bra	u4407
  2726  000310  D000               	nop2	
  2727                           
  2728                           ;main.c: 422: changeStages("   0       "," 0       0 ", 0);
  2729  000312  0E30               	movlw	low STR_25
  2730  000314  0100               	movlb	0	; () banked
  2731  000316  6FD4               	movwf	changeStages@parameter1& (0+255),b
  2732  000318  0E7F               	movlw	high STR_25
  2733  00031A  0100               	movlb	0	; () banked
  2734  00031C  6FD5               	movwf	(changeStages@parameter1+1)& (0+255),b
  2735  00031E  0EC0               	movlw	low STR_29
  2736  000320  0100               	movlb	0	; () banked
  2737  000322  6FD6               	movwf	changeStages@parameter2& (0+255),b
  2738  000324  0E7F               	movlw	high STR_29
  2739  000326  0100               	movlb	0	; () banked
  2740  000328  6FD7               	movwf	(changeStages@parameter2+1)& (0+255),b
  2741  00032A  0E00               	movlw	0
  2742  00032C  0100               	movlb	0	; () banked
  2743  00032E  6FD9               	movwf	(changeStages@enemPos+1)& (0+255),b
  2744  000330  0E00               	movlw	0
  2745  000332  6FD8               	movwf	changeStages@enemPos& (0+255),b
  2746  000334  ECC3  F010         	call	_changeStages	;wreg free
  2747                           
  2748                           ;main.c: 423: _delay((unsigned long)((200)*(24000000ul/4000.0)));
  2749  000338  0E07               	movlw	7
  2750  00033A  6E31               	movwf	(??_juego3+1)& (0+255),c
  2751  00033C  0E17               	movlw	23
  2752  00033E  6E30               	movwf	??_juego3& (0+255),c
  2753  000340  0E6A               	movlw	106
  2754  000342                     u4417:
  2755  000342  2EE8               	decfsz	wreg,f,c
  2756  000344  D7FE               	bra	u4417
  2757  000346  2E30               	decfsz	??_juego3& (0+255),f,c
  2758  000348  D7FC               	bra	u4417
  2759  00034A  2E31               	decfsz	(??_juego3+1)& (0+255),f,c
  2760  00034C  D7FA               	bra	u4417
  2761  00034E  D000               	nop2	
  2762                           
  2763                           ;main.c: 425: changeStages("  0        ","0       0  ", 2);
  2764  000350  0E24               	movlw	low STR_30
  2765  000352  0100               	movlb	0	; () banked
  2766  000354  6FD4               	movwf	changeStages@parameter1& (0+255),b
  2767  000356  0E7F               	movlw	high STR_30
  2768  000358  0100               	movlb	0	; () banked
  2769  00035A  6FD5               	movwf	(changeStages@parameter1+1)& (0+255),b
  2770  00035C  0E9C               	movlw	low STR_31
  2771  00035E  0100               	movlb	0	; () banked
  2772  000360  6FD6               	movwf	changeStages@parameter2& (0+255),b
  2773  000362  0E7F               	movlw	high STR_31
  2774  000364  0100               	movlb	0	; () banked
  2775  000366  6FD7               	movwf	(changeStages@parameter2+1)& (0+255),b
  2776  000368  0E00               	movlw	0
  2777  00036A  0100               	movlb	0	; () banked
  2778  00036C  6FD9               	movwf	(changeStages@enemPos+1)& (0+255),b
  2779  00036E  0E02               	movlw	2
  2780  000370  6FD8               	movwf	changeStages@enemPos& (0+255),b
  2781  000372  ECC3  F010         	call	_changeStages	;wreg free
  2782                           
  2783                           ;main.c: 426: _delay((unsigned long)((200)*(24000000ul/4000.0)));
  2784  000376  0E07               	movlw	7
  2785  000378  6E31               	movwf	(??_juego3+1)& (0+255),c
  2786  00037A  0E17               	movlw	23
  2787  00037C  6E30               	movwf	??_juego3& (0+255),c
  2788  00037E  0E6A               	movlw	106
  2789  000380                     u4427:
  2790  000380  2EE8               	decfsz	wreg,f,c
  2791  000382  D7FE               	bra	u4427
  2792  000384  2E30               	decfsz	??_juego3& (0+255),f,c
  2793  000386  D7FC               	bra	u4427
  2794  000388  2E31               	decfsz	(??_juego3+1)& (0+255),f,c
  2795  00038A  D7FA               	bra	u4427
  2796  00038C  D000               	nop2	
  2797                           
  2798                           ;main.c: 428: changeStages(" 0         ","       0   ", 0);
  2799  00038E  0E18               	movlw	low STR_32
  2800  000390  0100               	movlb	0	; () banked
  2801  000392  6FD4               	movwf	changeStages@parameter1& (0+255),b
  2802  000394  0E7F               	movlw	high STR_32
  2803  000396  0100               	movlb	0	; () banked
  2804  000398  6FD5               	movwf	(changeStages@parameter1+1)& (0+255),b
  2805  00039A  0E78               	movlw	low STR_10
  2806  00039C  0100               	movlb	0	; () banked
  2807  00039E  6FD6               	movwf	changeStages@parameter2& (0+255),b
  2808  0003A0  0E7F               	movlw	high STR_10
  2809  0003A2  0100               	movlb	0	; () banked
  2810  0003A4  6FD7               	movwf	(changeStages@parameter2+1)& (0+255),b
  2811  0003A6  0E00               	movlw	0
  2812  0003A8  0100               	movlb	0	; () banked
  2813  0003AA  6FD9               	movwf	(changeStages@enemPos+1)& (0+255),b
  2814  0003AC  0E00               	movlw	0
  2815  0003AE  6FD8               	movwf	changeStages@enemPos& (0+255),b
  2816  0003B0  ECC3  F010         	call	_changeStages	;wreg free
  2817                           
  2818                           ;main.c: 429: _delay((unsigned long)((200)*(24000000ul/4000.0)));
  2819  0003B4  0E07               	movlw	7
  2820  0003B6  6E31               	movwf	(??_juego3+1)& (0+255),c
  2821  0003B8  0E17               	movlw	23
  2822  0003BA  6E30               	movwf	??_juego3& (0+255),c
  2823  0003BC  0E6A               	movlw	106
  2824  0003BE                     u4437:
  2825  0003BE  2EE8               	decfsz	wreg,f,c
  2826  0003C0  D7FE               	bra	u4437
  2827  0003C2  2E30               	decfsz	??_juego3& (0+255),f,c
  2828  0003C4  D7FC               	bra	u4437
  2829  0003C6  2E31               	decfsz	(??_juego3+1)& (0+255),f,c
  2830  0003C8  D7FA               	bra	u4437
  2831  0003CA  D000               	nop2	
  2832                           
  2833                           ;main.c: 431: changeStages("0          ","      0    ", 1);
  2834  0003CC  0E0C               	movlw	low (STR_47+1)
  2835  0003CE  0100               	movlb	0	; () banked
  2836  0003D0  6FD4               	movwf	changeStages@parameter1& (0+255),b
  2837  0003D2  0E7F               	movlw	high (STR_47+1)
  2838  0003D4  0100               	movlb	0	; () banked
  2839  0003D6  6FD5               	movwf	(changeStages@parameter1+1)& (0+255),b
  2840  0003D8  0E60               	movlw	low STR_12
  2841  0003DA  0100               	movlb	0	; () banked
  2842  0003DC  6FD6               	movwf	changeStages@parameter2& (0+255),b
  2843  0003DE  0E7F               	movlw	high STR_12
  2844  0003E0  0100               	movlb	0	; () banked
  2845  0003E2  6FD7               	movwf	(changeStages@parameter2+1)& (0+255),b
  2846  0003E4  0E00               	movlw	0
  2847  0003E6  0100               	movlb	0	; () banked
  2848  0003E8  6FD9               	movwf	(changeStages@enemPos+1)& (0+255),b
  2849  0003EA  0E01               	movlw	1
  2850  0003EC  6FD8               	movwf	changeStages@enemPos& (0+255),b
  2851  0003EE  ECC3  F010         	call	_changeStages	;wreg free
  2852                           
  2853                           ;main.c: 432: _delay((unsigned long)((200)*(24000000ul/4000.0)));
  2854  0003F2  0E07               	movlw	7
  2855  0003F4  6E31               	movwf	(??_juego3+1)& (0+255),c
  2856  0003F6  0E17               	movlw	23
  2857  0003F8  6E30               	movwf	??_juego3& (0+255),c
  2858  0003FA  0E6A               	movlw	106
  2859  0003FC                     u4447:
  2860  0003FC  2EE8               	decfsz	wreg,f,c
  2861  0003FE  D7FE               	bra	u4447
  2862  000400  2E30               	decfsz	??_juego3& (0+255),f,c
  2863  000402  D7FC               	bra	u4447
  2864  000404  2E31               	decfsz	(??_juego3+1)& (0+255),f,c
  2865  000406  D7FA               	bra	u4447
  2866  000408  D000               	nop2	
  2867                           
  2868                           ;main.c: 434: changeStages("           ","     0     ", 0);
  2869  00040A  0EF2               	movlw	low (STR_51+1)
  2870  00040C  0100               	movlb	0	; () banked
  2871  00040E  6FD4               	movwf	changeStages@parameter1& (0+255),b
  2872  000410  0E7E               	movlw	high (STR_51+1)
  2873  000412  0100               	movlb	0	; () banked
  2874  000414  6FD5               	movwf	(changeStages@parameter1+1)& (0+255),b
  2875  000416  0E48               	movlw	low STR_21
  2876  000418  0100               	movlb	0	; () banked
  2877  00041A  6FD6               	movwf	changeStages@parameter2& (0+255),b
  2878  00041C  0E7F               	movlw	high STR_21
  2879  00041E  0100               	movlb	0	; () banked
  2880  000420  6FD7               	movwf	(changeStages@parameter2+1)& (0+255),b
  2881  000422  0E00               	movlw	0
  2882  000424  0100               	movlb	0	; () banked
  2883  000426  6FD9               	movwf	(changeStages@enemPos+1)& (0+255),b
  2884  000428  0E00               	movlw	0
  2885  00042A  6FD8               	movwf	changeStages@enemPos& (0+255),b
  2886  00042C  ECC3  F010         	call	_changeStages	;wreg free
  2887                           
  2888                           ;main.c: 435: _delay((unsigned long)((200)*(24000000ul/4000.0)));
  2889  000430  0E07               	movlw	7
  2890  000432  6E31               	movwf	(??_juego3+1)& (0+255),c
  2891  000434  0E17               	movlw	23
  2892  000436  6E30               	movwf	??_juego3& (0+255),c
  2893  000438  0E6A               	movlw	106
  2894  00043A                     u4457:
  2895  00043A  2EE8               	decfsz	wreg,f,c
  2896  00043C  D7FE               	bra	u4457
  2897  00043E  2E30               	decfsz	??_juego3& (0+255),f,c
  2898  000440  D7FC               	bra	u4457
  2899  000442  2E31               	decfsz	(??_juego3+1)& (0+255),f,c
  2900  000444  D7FA               	bra	u4457
  2901  000446  D000               	nop2	
  2902                           
  2903                           ;main.c: 437: changeStages("           ","    0      ", 0);
  2904  000448  0EF2               	movlw	low (STR_51+1)
  2905  00044A  0100               	movlb	0	; () banked
  2906  00044C  6FD4               	movwf	changeStages@parameter1& (0+255),b
  2907  00044E  0E7E               	movlw	high (STR_51+1)
  2908  000450  0100               	movlb	0	; () banked
  2909  000452  6FD5               	movwf	(changeStages@parameter1+1)& (0+255),b
  2910  000454  0E3C               	movlw	low STR_23
  2911  000456  0100               	movlb	0	; () banked
  2912  000458  6FD6               	movwf	changeStages@parameter2& (0+255),b
  2913  00045A  0E7F               	movlw	high STR_23
  2914  00045C  0100               	movlb	0	; () banked
  2915  00045E  6FD7               	movwf	(changeStages@parameter2+1)& (0+255),b
  2916  000460  0E00               	movlw	0
  2917  000462  0100               	movlb	0	; () banked
  2918  000464  6FD9               	movwf	(changeStages@enemPos+1)& (0+255),b
  2919  000466  0E00               	movlw	0
  2920  000468  6FD8               	movwf	changeStages@enemPos& (0+255),b
  2921  00046A  ECC3  F010         	call	_changeStages	;wreg free
  2922                           
  2923                           ;main.c: 438: _delay((unsigned long)((200)*(24000000ul/4000.0)));
  2924  00046E  0E07               	movlw	7
  2925  000470  6E31               	movwf	(??_juego3+1)& (0+255),c
  2926  000472  0E17               	movlw	23
  2927  000474  6E30               	movwf	??_juego3& (0+255),c
  2928  000476  0E6A               	movlw	106
  2929  000478                     u4467:
  2930  000478  2EE8               	decfsz	wreg,f,c
  2931  00047A  D7FE               	bra	u4467
  2932  00047C  2E30               	decfsz	??_juego3& (0+255),f,c
  2933  00047E  D7FC               	bra	u4467
  2934  000480  2E31               	decfsz	(??_juego3+1)& (0+255),f,c
  2935  000482  D7FA               	bra	u4467
  2936  000484  D000               	nop2	
  2937                           
  2938                           ;main.c: 440: changeStages("          0","   0       ", 0);
  2939  000486  0ED8               	movlw	low STR_4
  2940  000488  0100               	movlb	0	; () banked
  2941  00048A  6FD4               	movwf	changeStages@parameter1& (0+255),b
  2942  00048C  0E7F               	movlw	high STR_4
  2943  00048E  0100               	movlb	0	; () banked
  2944  000490  6FD5               	movwf	(changeStages@parameter1+1)& (0+255),b
  2945  000492  0E30               	movlw	low STR_25
  2946  000494  0100               	movlb	0	; () banked
  2947  000496  6FD6               	movwf	changeStages@parameter2& (0+255),b
  2948  000498  0E7F               	movlw	high STR_25
  2949  00049A  0100               	movlb	0	; () banked
  2950  00049C  6FD7               	movwf	(changeStages@parameter2+1)& (0+255),b
  2951  00049E  0E00               	movlw	0
  2952  0004A0  0100               	movlb	0	; () banked
  2953  0004A2  6FD9               	movwf	(changeStages@enemPos+1)& (0+255),b
  2954  0004A4  0E00               	movlw	0
  2955  0004A6  6FD8               	movwf	changeStages@enemPos& (0+255),b
  2956  0004A8  ECC3  F010         	call	_changeStages	;wreg free
  2957                           
  2958                           ;main.c: 441: _delay((unsigned long)((200)*(24000000ul/4000.0)));
  2959  0004AC  0E07               	movlw	7
  2960  0004AE  6E31               	movwf	(??_juego3+1)& (0+255),c
  2961  0004B0  0E17               	movlw	23
  2962  0004B2  6E30               	movwf	??_juego3& (0+255),c
  2963  0004B4  0E6A               	movlw	106
  2964  0004B6                     u4477:
  2965  0004B6  2EE8               	decfsz	wreg,f,c
  2966  0004B8  D7FE               	bra	u4477
  2967  0004BA  2E30               	decfsz	??_juego3& (0+255),f,c
  2968  0004BC  D7FC               	bra	u4477
  2969  0004BE  2E31               	decfsz	(??_juego3+1)& (0+255),f,c
  2970  0004C0  D7FA               	bra	u4477
  2971  0004C2  D000               	nop2	
  2972                           
  2973                           ;main.c: 443: changeStages("         0 ","  0        ", 0);
  2974  0004C4  0EB4               	movlw	low STR_6
  2975  0004C6  0100               	movlb	0	; () banked
  2976  0004C8  6FD4               	movwf	changeStages@parameter1& (0+255),b
  2977  0004CA  0E7F               	movlw	high STR_6
  2978  0004CC  0100               	movlb	0	; () banked
  2979  0004CE  6FD5               	movwf	(changeStages@parameter1+1)& (0+255),b
  2980  0004D0  0E24               	movlw	low STR_30
  2981  0004D2  0100               	movlb	0	; () banked
  2982  0004D4  6FD6               	movwf	changeStages@parameter2& (0+255),b
  2983  0004D6  0E7F               	movlw	high STR_30
  2984  0004D8  0100               	movlb	0	; () banked
  2985  0004DA  6FD7               	movwf	(changeStages@parameter2+1)& (0+255),b
  2986  0004DC  0E00               	movlw	0
  2987  0004DE  0100               	movlb	0	; () banked
  2988  0004E0  6FD9               	movwf	(changeStages@enemPos+1)& (0+255),b
  2989  0004E2  0E00               	movlw	0
  2990  0004E4  6FD8               	movwf	changeStages@enemPos& (0+255),b
  2991  0004E6  ECC3  F010         	call	_changeStages	;wreg free
  2992                           
  2993                           ;main.c: 444: _delay((unsigned long)((200)*(24000000ul/4000.0)));
  2994  0004EA  0E07               	movlw	7
  2995  0004EC  6E31               	movwf	(??_juego3+1)& (0+255),c
  2996  0004EE  0E17               	movlw	23
  2997  0004F0  6E30               	movwf	??_juego3& (0+255),c
  2998  0004F2  0E6A               	movlw	106
  2999  0004F4                     u4487:
  3000  0004F4  2EE8               	decfsz	wreg,f,c
  3001  0004F6  D7FE               	bra	u4487
  3002  0004F8  2E30               	decfsz	??_juego3& (0+255),f,c
  3003  0004FA  D7FC               	bra	u4487
  3004  0004FC  2E31               	decfsz	(??_juego3+1)& (0+255),f,c
  3005  0004FE  D7FA               	bra	u4487
  3006  000500  D000               	nop2	
  3007                           
  3008                           ;main.c: 446: changeStages("        0  "," 0         ", 0);
  3009  000502  0E90               	movlw	low STR_8
  3010  000504  0100               	movlb	0	; () banked
  3011  000506  6FD4               	movwf	changeStages@parameter1& (0+255),b
  3012  000508  0E7F               	movlw	high STR_8
  3013  00050A  0100               	movlb	0	; () banked
  3014  00050C  6FD5               	movwf	(changeStages@parameter1+1)& (0+255),b
  3015  00050E  0E18               	movlw	low STR_32
  3016  000510  0100               	movlb	0	; () banked
  3017  000512  6FD6               	movwf	changeStages@parameter2& (0+255),b
  3018  000514  0E7F               	movlw	high STR_32
  3019  000516  0100               	movlb	0	; () banked
  3020  000518  6FD7               	movwf	(changeStages@parameter2+1)& (0+255),b
  3021  00051A  0E00               	movlw	0
  3022  00051C  0100               	movlb	0	; () banked
  3023  00051E  6FD9               	movwf	(changeStages@enemPos+1)& (0+255),b
  3024  000520  0E00               	movlw	0
  3025  000522  6FD8               	movwf	changeStages@enemPos& (0+255),b
  3026  000524  ECC3  F010         	call	_changeStages	;wreg free
  3027                           
  3028                           ;main.c: 447: _delay((unsigned long)((200)*(24000000ul/4000.0)));
  3029  000528  0E07               	movlw	7
  3030  00052A  6E31               	movwf	(??_juego3+1)& (0+255),c
  3031  00052C  0E17               	movlw	23
  3032  00052E  6E30               	movwf	??_juego3& (0+255),c
  3033  000530  0E6A               	movlw	106
  3034  000532                     u4497:
  3035  000532  2EE8               	decfsz	wreg,f,c
  3036  000534  D7FE               	bra	u4497
  3037  000536  2E30               	decfsz	??_juego3& (0+255),f,c
  3038  000538  D7FC               	bra	u4497
  3039  00053A  2E31               	decfsz	(??_juego3+1)& (0+255),f,c
  3040  00053C  D7FA               	bra	u4497
  3041  00053E  D000               	nop2	
  3042                           
  3043                           ;main.c: 449: changeStages("       0  "," 0          ", 0);
  3044  000540  0E91               	movlw	low (STR_8+1)
  3045  000542  0100               	movlb	0	; () banked
  3046  000544  6FD4               	movwf	changeStages@parameter1& (0+255),b
  3047  000546  0E7F               	movlw	high (STR_8+1)
  3048  000548  0100               	movlb	0	; () banked
  3049  00054A  6FD5               	movwf	(changeStages@parameter1+1)& (0+255),b
  3050  00054C  0E0B               	movlw	low STR_47
  3051  00054E  0100               	movlb	0	; () banked
  3052  000550  6FD6               	movwf	changeStages@parameter2& (0+255),b
  3053  000552  0E7F               	movlw	high STR_47
  3054  000554  0100               	movlb	0	; () banked
  3055  000556  6FD7               	movwf	(changeStages@parameter2+1)& (0+255),b
  3056  000558  0E00               	movlw	0
  3057  00055A  0100               	movlb	0	; () banked
  3058  00055C  6FD9               	movwf	(changeStages@enemPos+1)& (0+255),b
  3059  00055E  0E00               	movlw	0
  3060  000560  6FD8               	movwf	changeStages@enemPos& (0+255),b
  3061  000562  ECC3  F010         	call	_changeStages	;wreg free
  3062                           
  3063                           ;main.c: 450: _delay((unsigned long)((200)*(24000000ul/4000.0)));
  3064  000566  0E07               	movlw	7
  3065  000568  6E31               	movwf	(??_juego3+1)& (0+255),c
  3066  00056A  0E17               	movlw	23
  3067  00056C  6E30               	movwf	??_juego3& (0+255),c
  3068  00056E  0E6A               	movlw	106
  3069  000570                     u4507:
  3070  000570  2EE8               	decfsz	wreg,f,c
  3071  000572  D7FE               	bra	u4507
  3072  000574  2E30               	decfsz	??_juego3& (0+255),f,c
  3073  000576  D7FC               	bra	u4507
  3074  000578  2E31               	decfsz	(??_juego3+1)& (0+255),f,c
  3075  00057A  D7FA               	bra	u4507
  3076  00057C  D000               	nop2	
  3077                           
  3078                           ;main.c: 452: changeStages("      0   ","0           ", 2);
  3079  00057E  0E79               	movlw	low (STR_10+1)
  3080  000580  0100               	movlb	0	; () banked
  3081  000582  6FD4               	movwf	changeStages@parameter1& (0+255),b
  3082  000584  0E7F               	movlw	high (STR_10+1)
  3083  000586  0100               	movlb	0	; () banked
  3084  000588  6FD5               	movwf	(changeStages@parameter1+1)& (0+255),b
  3085  00058A  0EFE               	movlw	low STR_49
  3086  00058C  0100               	movlb	0	; () banked
  3087  00058E  6FD6               	movwf	changeStages@parameter2& (0+255),b
  3088  000590  0E7E               	movlw	high STR_49
  3089  000592  0100               	movlb	0	; () banked
  3090  000594  6FD7               	movwf	(changeStages@parameter2+1)& (0+255),b
  3091  000596  0E00               	movlw	0
  3092  000598  0100               	movlb	0	; () banked
  3093  00059A  6FD9               	movwf	(changeStages@enemPos+1)& (0+255),b
  3094  00059C  0E02               	movlw	2
  3095  00059E  6FD8               	movwf	changeStages@enemPos& (0+255),b
  3096  0005A0  ECC3  F010         	call	_changeStages	;wreg free
  3097                           
  3098                           ;main.c: 453: _delay((unsigned long)((200)*(24000000ul/4000.0)));
  3099  0005A4  0E07               	movlw	7
  3100  0005A6  6E31               	movwf	(??_juego3+1)& (0+255),c
  3101  0005A8  0E17               	movlw	23
  3102  0005AA  6E30               	movwf	??_juego3& (0+255),c
  3103  0005AC  0E6A               	movlw	106
  3104  0005AE                     u4517:
  3105  0005AE  2EE8               	decfsz	wreg,f,c
  3106  0005B0  D7FE               	bra	u4517
  3107  0005B2  2E30               	decfsz	??_juego3& (0+255),f,c
  3108  0005B4  D7FC               	bra	u4517
  3109  0005B6  2E31               	decfsz	(??_juego3+1)& (0+255),f,c
  3110  0005B8  D7FA               	bra	u4517
  3111  0005BA  D000               	nop2	
  3112                           
  3113                           ;main.c: 455: changeStages("     0    ","            ", 0);
  3114  0005BC  0E61               	movlw	low (STR_12+1)
  3115  0005BE  0100               	movlb	0	; () banked
  3116  0005C0  6FD4               	movwf	changeStages@parameter1& (0+255),b
  3117  0005C2  0E7F               	movlw	high (STR_12+1)
  3118  0005C4  0100               	movlb	0	; () banked
  3119  0005C6  6FD5               	movwf	(changeStages@parameter1+1)& (0+255),b
  3120  0005C8  0EF1               	movlw	low STR_51
  3121  0005CA  0100               	movlb	0	; () banked
  3122  0005CC  6FD6               	movwf	changeStages@parameter2& (0+255),b
  3123  0005CE  0E7E               	movlw	high STR_51
  3124  0005D0  0100               	movlb	0	; () banked
  3125  0005D2  6FD7               	movwf	(changeStages@parameter2+1)& (0+255),b
  3126  0005D4  0E00               	movlw	0
  3127  0005D6  0100               	movlb	0	; () banked
  3128  0005D8  6FD9               	movwf	(changeStages@enemPos+1)& (0+255),b
  3129  0005DA  0E00               	movlw	0
  3130  0005DC  6FD8               	movwf	changeStages@enemPos& (0+255),b
  3131  0005DE  ECC3  F010         	call	_changeStages	;wreg free
  3132                           
  3133                           ;main.c: 456: _delay((unsigned long)((200)*(24000000ul/4000.0)));
  3134  0005E2  0E07               	movlw	7
  3135  0005E4  6E31               	movwf	(??_juego3+1)& (0+255),c
  3136  0005E6  0E17               	movlw	23
  3137  0005E8  6E30               	movwf	??_juego3& (0+255),c
  3138  0005EA  0E6A               	movlw	106
  3139  0005EC                     u4527:
  3140  0005EC  2EE8               	decfsz	wreg,f,c
  3141  0005EE  D7FE               	bra	u4527
  3142  0005F0  2E30               	decfsz	??_juego3& (0+255),f,c
  3143  0005F2  D7FC               	bra	u4527
  3144  0005F4  2E31               	decfsz	(??_juego3+1)& (0+255),f,c
  3145  0005F6  D7FA               	bra	u4527
  3146  0005F8  D000               	nop2	
  3147                           
  3148                           ;main.c: 458: changeStages("    0     ","            ", 0);
  3149  0005FA  0E49               	movlw	low (STR_21+1)
  3150  0005FC  0100               	movlb	0	; () banked
  3151  0005FE  6FD4               	movwf	changeStages@parameter1& (0+255),b
  3152  000600  0E7F               	movlw	high (STR_21+1)
  3153  000602  0100               	movlb	0	; () banked
  3154  000604  6FD5               	movwf	(changeStages@parameter1+1)& (0+255),b
  3155  000606  0EF1               	movlw	low STR_51
  3156  000608  0100               	movlb	0	; () banked
  3157  00060A  6FD6               	movwf	changeStages@parameter2& (0+255),b
  3158  00060C  0E7E               	movlw	high STR_51
  3159  00060E  0100               	movlb	0	; () banked
  3160  000610  6FD7               	movwf	(changeStages@parameter2+1)& (0+255),b
  3161  000612  0E00               	movlw	0
  3162  000614  0100               	movlb	0	; () banked
  3163  000616  6FD9               	movwf	(changeStages@enemPos+1)& (0+255),b
  3164  000618  0E00               	movlw	0
  3165  00061A  6FD8               	movwf	changeStages@enemPos& (0+255),b
  3166  00061C  ECC3  F010         	call	_changeStages	;wreg free
  3167                           
  3168                           ;main.c: 459: _delay((unsigned long)((200)*(24000000ul/4000.0)));
  3169  000620  0E07               	movlw	7
  3170  000622  6E31               	movwf	(??_juego3+1)& (0+255),c
  3171  000624  0E17               	movlw	23
  3172  000626  6E30               	movwf	??_juego3& (0+255),c
  3173  000628  0E6A               	movlw	106
  3174  00062A                     u4537:
  3175  00062A  2EE8               	decfsz	wreg,f,c
  3176  00062C  D7FE               	bra	u4537
  3177  00062E  2E30               	decfsz	??_juego3& (0+255),f,c
  3178  000630  D7FC               	bra	u4537
  3179  000632  2E31               	decfsz	(??_juego3+1)& (0+255),f,c
  3180  000634  D7FA               	bra	u4537
  3181  000636  D000               	nop2	
  3182                           
  3183                           ;main.c: 461: changeStages("   0      ","            ", 0);
  3184  000638  0E3D               	movlw	low (STR_23+1)
  3185  00063A  0100               	movlb	0	; () banked
  3186  00063C  6FD4               	movwf	changeStages@parameter1& (0+255),b
  3187  00063E  0E7F               	movlw	high (STR_23+1)
  3188  000640  0100               	movlb	0	; () banked
  3189  000642  6FD5               	movwf	(changeStages@parameter1+1)& (0+255),b
  3190  000644  0EF1               	movlw	low STR_51
  3191  000646  0100               	movlb	0	; () banked
  3192  000648  6FD6               	movwf	changeStages@parameter2& (0+255),b
  3193  00064A  0E7E               	movlw	high STR_51
  3194  00064C  0100               	movlb	0	; () banked
  3195  00064E  6FD7               	movwf	(changeStages@parameter2+1)& (0+255),b
  3196  000650  0E00               	movlw	0
  3197  000652  0100               	movlb	0	; () banked
  3198  000654  6FD9               	movwf	(changeStages@enemPos+1)& (0+255),b
  3199  000656  0E00               	movlw	0
  3200  000658  6FD8               	movwf	changeStages@enemPos& (0+255),b
  3201  00065A  ECC3  F010         	call	_changeStages	;wreg free
  3202                           
  3203                           ;main.c: 462: _delay((unsigned long)((200)*(24000000ul/4000.0)));
  3204  00065E  0E07               	movlw	7
  3205  000660  6E31               	movwf	(??_juego3+1)& (0+255),c
  3206  000662  0E17               	movlw	23
  3207  000664  6E30               	movwf	??_juego3& (0+255),c
  3208  000666  0E6A               	movlw	106
  3209  000668                     u4547:
  3210  000668  2EE8               	decfsz	wreg,f,c
  3211  00066A  D7FE               	bra	u4547
  3212  00066C  2E30               	decfsz	??_juego3& (0+255),f,c
  3213  00066E  D7FC               	bra	u4547
  3214  000670  2E31               	decfsz	(??_juego3+1)& (0+255),f,c
  3215  000672  D7FA               	bra	u4547
  3216  000674  D000               	nop2	
  3217                           
  3218                           ;main.c: 464: changeStages("  0       ","            ", 0);
  3219  000676  0E31               	movlw	low (STR_25+1)
  3220  000678  0100               	movlb	0	; () banked
  3221  00067A  6FD4               	movwf	changeStages@parameter1& (0+255),b
  3222  00067C  0E7F               	movlw	high (STR_25+1)
  3223  00067E  0100               	movlb	0	; () banked
  3224  000680  6FD5               	movwf	(changeStages@parameter1+1)& (0+255),b
  3225  000682  0EF1               	movlw	low STR_51
  3226  000684  0100               	movlb	0	; () banked
  3227  000686  6FD6               	movwf	changeStages@parameter2& (0+255),b
  3228  000688  0E7E               	movlw	high STR_51
  3229  00068A  0100               	movlb	0	; () banked
  3230  00068C  6FD7               	movwf	(changeStages@parameter2+1)& (0+255),b
  3231  00068E  0E00               	movlw	0
  3232  000690  0100               	movlb	0	; () banked
  3233  000692  6FD9               	movwf	(changeStages@enemPos+1)& (0+255),b
  3234  000694  0E00               	movlw	0
  3235  000696  6FD8               	movwf	changeStages@enemPos& (0+255),b
  3236  000698  ECC3  F010         	call	_changeStages	;wreg free
  3237                           
  3238                           ;main.c: 465: _delay((unsigned long)((200)*(24000000ul/4000.0)));
  3239  00069C  0E07               	movlw	7
  3240  00069E  6E31               	movwf	(??_juego3+1)& (0+255),c
  3241  0006A0  0E17               	movlw	23
  3242  0006A2  6E30               	movwf	??_juego3& (0+255),c
  3243  0006A4  0E6A               	movlw	106
  3244  0006A6                     u4557:
  3245  0006A6  2EE8               	decfsz	wreg,f,c
  3246  0006A8  D7FE               	bra	u4557
  3247  0006AA  2E30               	decfsz	??_juego3& (0+255),f,c
  3248  0006AC  D7FC               	bra	u4557
  3249  0006AE  2E31               	decfsz	(??_juego3+1)& (0+255),f,c
  3250  0006B0  D7FA               	bra	u4557
  3251  0006B2  D000               	nop2	
  3252                           
  3253                           ;main.c: 467: changeStages(" 0        ","            ", 0);
  3254  0006B4  0E25               	movlw	low (STR_30+1)
  3255  0006B6  0100               	movlb	0	; () banked
  3256  0006B8  6FD4               	movwf	changeStages@parameter1& (0+255),b
  3257  0006BA  0E7F               	movlw	high (STR_30+1)
  3258  0006BC  0100               	movlb	0	; () banked
  3259  0006BE  6FD5               	movwf	(changeStages@parameter1+1)& (0+255),b
  3260  0006C0  0EF1               	movlw	low STR_51
  3261  0006C2  0100               	movlb	0	; () banked
  3262  0006C4  6FD6               	movwf	changeStages@parameter2& (0+255),b
  3263  0006C6  0E7E               	movlw	high STR_51
  3264  0006C8  0100               	movlb	0	; () banked
  3265  0006CA  6FD7               	movwf	(changeStages@parameter2+1)& (0+255),b
  3266  0006CC  0E00               	movlw	0
  3267  0006CE  0100               	movlb	0	; () banked
  3268  0006D0  6FD9               	movwf	(changeStages@enemPos+1)& (0+255),b
  3269  0006D2  0E00               	movlw	0
  3270  0006D4  6FD8               	movwf	changeStages@enemPos& (0+255),b
  3271  0006D6  ECC3  F010         	call	_changeStages	;wreg free
  3272                           
  3273                           ;main.c: 468: _delay((unsigned long)((200)*(24000000ul/4000.0)));
  3274  0006DA  0E07               	movlw	7
  3275  0006DC  6E31               	movwf	(??_juego3+1)& (0+255),c
  3276  0006DE  0E17               	movlw	23
  3277  0006E0  6E30               	movwf	??_juego3& (0+255),c
  3278  0006E2  0E6A               	movlw	106
  3279  0006E4                     u4567:
  3280  0006E4  2EE8               	decfsz	wreg,f,c
  3281  0006E6  D7FE               	bra	u4567
  3282  0006E8  2E30               	decfsz	??_juego3& (0+255),f,c
  3283  0006EA  D7FC               	bra	u4567
  3284  0006EC  2E31               	decfsz	(??_juego3+1)& (0+255),f,c
  3285  0006EE  D7FA               	bra	u4567
  3286  0006F0  D000               	nop2	
  3287                           
  3288                           ;main.c: 470: changeStages("0         ","            ", 1);
  3289  0006F2  0E19               	movlw	low (STR_32+1)
  3290  0006F4  0100               	movlb	0	; () banked
  3291  0006F6  6FD4               	movwf	changeStages@parameter1& (0+255),b
  3292  0006F8  0E7F               	movlw	high (STR_32+1)
  3293  0006FA  0100               	movlb	0	; () banked
  3294  0006FC  6FD5               	movwf	(changeStages@parameter1+1)& (0+255),b
  3295  0006FE  0EF1               	movlw	low STR_51
  3296  000700  0100               	movlb	0	; () banked
  3297  000702  6FD6               	movwf	changeStages@parameter2& (0+255),b
  3298  000704  0E7E               	movlw	high STR_51
  3299  000706  0100               	movlb	0	; () banked
  3300  000708  6FD7               	movwf	(changeStages@parameter2+1)& (0+255),b
  3301  00070A  0E00               	movlw	0
  3302  00070C  0100               	movlb	0	; () banked
  3303  00070E  6FD9               	movwf	(changeStages@enemPos+1)& (0+255),b
  3304  000710  0E01               	movlw	1
  3305  000712  6FD8               	movwf	changeStages@enemPos& (0+255),b
  3306  000714  ECC3  F010         	call	_changeStages	;wreg free
  3307                           
  3308                           ;main.c: 471: _delay((unsigned long)((200)*(24000000ul/4000.0)));
  3309  000718  0E07               	movlw	7
  3310  00071A  6E31               	movwf	(??_juego3+1)& (0+255),c
  3311  00071C  0E17               	movlw	23
  3312  00071E  6E30               	movwf	??_juego3& (0+255),c
  3313  000720  0E6A               	movlw	106
  3314  000722                     u4577:
  3315  000722  2EE8               	decfsz	wreg,f,c
  3316  000724  D7FE               	bra	u4577
  3317  000726  2E30               	decfsz	??_juego3& (0+255),f,c
  3318  000728  D7FC               	bra	u4577
  3319  00072A  2E31               	decfsz	(??_juego3+1)& (0+255),f,c
  3320  00072C  D7FA               	bra	u4577
  3321  00072E  D000               	nop2	
  3322                           
  3323                           ;main.c: 473: changeStages("          ","            ", 0);
  3324  000730  0EF3               	movlw	low (STR_51+2)
  3325  000732  0100               	movlb	0	; () banked
  3326  000734  6FD4               	movwf	changeStages@parameter1& (0+255),b
  3327  000736  0E7E               	movlw	high (STR_51+2)
  3328  000738  0100               	movlb	0	; () banked
  3329  00073A  6FD5               	movwf	(changeStages@parameter1+1)& (0+255),b
  3330  00073C  0EF1               	movlw	low STR_51
  3331  00073E  0100               	movlb	0	; () banked
  3332  000740  6FD6               	movwf	changeStages@parameter2& (0+255),b
  3333  000742  0E7E               	movlw	high STR_51
  3334  000744  0100               	movlb	0	; () banked
  3335  000746  6FD7               	movwf	(changeStages@parameter2+1)& (0+255),b
  3336  000748  0E00               	movlw	0
  3337  00074A  0100               	movlb	0	; () banked
  3338  00074C  6FD9               	movwf	(changeStages@enemPos+1)& (0+255),b
  3339  00074E  0E00               	movlw	0
  3340  000750  6FD8               	movwf	changeStages@enemPos& (0+255),b
  3341  000752  ECC3  F010         	call	_changeStages	;wreg free
  3342  000756  0012               	return		;funcret
  3343  000758                     __end_of_juego3:
  3344                           	opt stack 0
  3345                           tblptru	equ	0xFF8
  3346                           tblptrh	equ	0xFF7
  3347                           tblptrl	equ	0xFF6
  3348                           tablat	equ	0xFF5
  3349                           intcon	equ	0xFF2
  3350                           postinc0	equ	0xFEE
  3351                           wreg	equ	0xFE8
  3352                           postdec1	equ	0xFE5
  3353                           fsr1l	equ	0xFE1
  3354                           status	equ	0xFD8
  3355                           
  3356 ;; *************** function _juego2 *****************
  3357 ;; Defined at:
  3358 ;;		line 290 in file "main.c"
  3359 ;; Parameters:    Size  Location     Type
  3360 ;;		None
  3361 ;; Auto vars:     Size  Location     Type
  3362 ;;  pos             2    0        int 
  3363 ;; Return value:  Size  Location     Type
  3364 ;;                  1    wreg      void 
  3365 ;; Registers used:
  3366 ;;		wreg, fsr0l, fsr0h, fsr2l, fsr2h, status,2, status,0, tblptrl, tblptrh, tblptru, prodl, prodh, cstack
  3367 ;; Tracked objects:
  3368 ;;		On entry : 0/0
  3369 ;;		On exit  : 0/0
  3370 ;;		Unchanged: 0/0
  3371 ;; Data sizes:     COMRAM   BANK0   BANK1   BANK2   BANK3   BANK4   BANK5   BANK6   BANK7
  3372 ;;      Params:         0       0       0       0       0       0       0       0       0
  3373 ;;      Locals:         0       0       0       0       0       0       0       0       0
  3374 ;;      Temps:          2       0       0       0       0       0       0       0       0
  3375 ;;      Totals:         2       0       0       0       0       0       0       0       0
  3376 ;;Total ram usage:        2 bytes
  3377 ;; Hardware stack levels used:    1
  3378 ;; Hardware stack levels required when called:    9
  3379 ;; This function calls:
  3380 ;;		_changeStages
  3381 ;; This function is called by:
  3382 ;;		_main
  3383 ;; This function uses a non-reentrant model
  3384 ;;
  3385                           
  3386                           	psect	text4
  3387  000E72                     __ptext4:
  3388                           	opt stack 0
  3389  000E72                     _juego2:
  3390                           	opt stack 21
  3391                           
  3392                           ;main.c: 291: int pos;
  3393                           ;main.c: 292: _delay((unsigned long)((400)*(24000000ul/4000.0)));
  3394                           
  3395                           ;incstack = 0
  3396  000E72  0E0D               	movlw	13
  3397  000E74  6E31               	movwf	(??_juego2+1)& (0+255),c
  3398  000E76  0E2D               	movlw	45
  3399  000E78  6E30               	movwf	??_juego2& (0+255),c
  3400  000E7A  0ED8               	movlw	216
  3401  000E7C                     u4587:
  3402  000E7C  2EE8               	decfsz	wreg,f,c
  3403  000E7E  D7FE               	bra	u4587
  3404  000E80  2E30               	decfsz	??_juego2& (0+255),f,c
  3405  000E82  D7FC               	bra	u4587
  3406  000E84  2E31               	decfsz	(??_juego2+1)& (0+255),f,c
  3407  000E86  D7FA               	bra	u4587
  3408                           
  3409                           ;main.c: 293: changeStages("          0","           ", 0);
  3410  000E88  0ED8               	movlw	low STR_4
  3411  000E8A  0100               	movlb	0	; () banked
  3412  000E8C  6FD4               	movwf	changeStages@parameter1& (0+255),b
  3413  000E8E  0E7F               	movlw	high STR_4
  3414  000E90  0100               	movlb	0	; () banked
  3415  000E92  6FD5               	movwf	(changeStages@parameter1+1)& (0+255),b
  3416  000E94  0EF2               	movlw	low (STR_51+1)
  3417  000E96  0100               	movlb	0	; () banked
  3418  000E98  6FD6               	movwf	changeStages@parameter2& (0+255),b
  3419  000E9A  0E7E               	movlw	high (STR_51+1)
  3420  000E9C  0100               	movlb	0	; () banked
  3421  000E9E  6FD7               	movwf	(changeStages@parameter2+1)& (0+255),b
  3422  000EA0  0E00               	movlw	0
  3423  000EA2  0100               	movlb	0	; () banked
  3424  000EA4  6FD9               	movwf	(changeStages@enemPos+1)& (0+255),b
  3425  000EA6  0E00               	movlw	0
  3426  000EA8  6FD8               	movwf	changeStages@enemPos& (0+255),b
  3427  000EAA  ECC3  F010         	call	_changeStages	;wreg free
  3428                           
  3429                           ;main.c: 295: _delay((unsigned long)((400)*(24000000ul/4000.0)));
  3430  000EAE  0E0D               	movlw	13
  3431  000EB0  6E31               	movwf	(??_juego2+1)& (0+255),c
  3432  000EB2  0E2D               	movlw	45
  3433  000EB4  6E30               	movwf	??_juego2& (0+255),c
  3434  000EB6  0ED8               	movlw	216
  3435  000EB8                     u4597:
  3436  000EB8  2EE8               	decfsz	wreg,f,c
  3437  000EBA  D7FE               	bra	u4597
  3438  000EBC  2E30               	decfsz	??_juego2& (0+255),f,c
  3439  000EBE  D7FC               	bra	u4597
  3440  000EC0  2E31               	decfsz	(??_juego2+1)& (0+255),f,c
  3441  000EC2  D7FA               	bra	u4597
  3442                           
  3443                           ;main.c: 296: changeStages("         0 ","           ", 0);
  3444  000EC4  0EB4               	movlw	low STR_6
  3445  000EC6  0100               	movlb	0	; () banked
  3446  000EC8  6FD4               	movwf	changeStages@parameter1& (0+255),b
  3447  000ECA  0E7F               	movlw	high STR_6
  3448  000ECC  0100               	movlb	0	; () banked
  3449  000ECE  6FD5               	movwf	(changeStages@parameter1+1)& (0+255),b
  3450  000ED0  0EF2               	movlw	low (STR_51+1)
  3451  000ED2  0100               	movlb	0	; () banked
  3452  000ED4  6FD6               	movwf	changeStages@parameter2& (0+255),b
  3453  000ED6  0E7E               	movlw	high (STR_51+1)
  3454  000ED8  0100               	movlb	0	; () banked
  3455  000EDA  6FD7               	movwf	(changeStages@parameter2+1)& (0+255),b
  3456  000EDC  0E00               	movlw	0
  3457  000EDE  0100               	movlb	0	; () banked
  3458  000EE0  6FD9               	movwf	(changeStages@enemPos+1)& (0+255),b
  3459  000EE2  0E00               	movlw	0
  3460  000EE4  6FD8               	movwf	changeStages@enemPos& (0+255),b
  3461  000EE6  ECC3  F010         	call	_changeStages	;wreg free
  3462                           
  3463                           ;main.c: 297: _delay((unsigned long)((400)*(24000000ul/4000.0)));
  3464  000EEA  0E0D               	movlw	13
  3465  000EEC  6E31               	movwf	(??_juego2+1)& (0+255),c
  3466  000EEE  0E2D               	movlw	45
  3467  000EF0  6E30               	movwf	??_juego2& (0+255),c
  3468  000EF2  0ED8               	movlw	216
  3469  000EF4                     u4607:
  3470  000EF4  2EE8               	decfsz	wreg,f,c
  3471  000EF6  D7FE               	bra	u4607
  3472  000EF8  2E30               	decfsz	??_juego2& (0+255),f,c
  3473  000EFA  D7FC               	bra	u4607
  3474  000EFC  2E31               	decfsz	(??_juego2+1)& (0+255),f,c
  3475  000EFE  D7FA               	bra	u4607
  3476                           
  3477                           ;main.c: 299: changeStages("        0  ","           ", 0);
  3478  000F00  0E90               	movlw	low STR_8
  3479  000F02  0100               	movlb	0	; () banked
  3480  000F04  6FD4               	movwf	changeStages@parameter1& (0+255),b
  3481  000F06  0E7F               	movlw	high STR_8
  3482  000F08  0100               	movlb	0	; () banked
  3483  000F0A  6FD5               	movwf	(changeStages@parameter1+1)& (0+255),b
  3484  000F0C  0EF2               	movlw	low (STR_51+1)
  3485  000F0E  0100               	movlb	0	; () banked
  3486  000F10  6FD6               	movwf	changeStages@parameter2& (0+255),b
  3487  000F12  0E7E               	movlw	high (STR_51+1)
  3488  000F14  0100               	movlb	0	; () banked
  3489  000F16  6FD7               	movwf	(changeStages@parameter2+1)& (0+255),b
  3490  000F18  0E00               	movlw	0
  3491  000F1A  0100               	movlb	0	; () banked
  3492  000F1C  6FD9               	movwf	(changeStages@enemPos+1)& (0+255),b
  3493  000F1E  0E00               	movlw	0
  3494  000F20  6FD8               	movwf	changeStages@enemPos& (0+255),b
  3495  000F22  ECC3  F010         	call	_changeStages	;wreg free
  3496                           
  3497                           ;main.c: 300: _delay((unsigned long)((400)*(24000000ul/4000.0)));
  3498  000F26  0E0D               	movlw	13
  3499  000F28  6E31               	movwf	(??_juego2+1)& (0+255),c
  3500  000F2A  0E2D               	movlw	45
  3501  000F2C  6E30               	movwf	??_juego2& (0+255),c
  3502  000F2E  0ED8               	movlw	216
  3503  000F30                     u4617:
  3504  000F30  2EE8               	decfsz	wreg,f,c
  3505  000F32  D7FE               	bra	u4617
  3506  000F34  2E30               	decfsz	??_juego2& (0+255),f,c
  3507  000F36  D7FC               	bra	u4617
  3508  000F38  2E31               	decfsz	(??_juego2+1)& (0+255),f,c
  3509  000F3A  D7FA               	bra	u4617
  3510                           
  3511                           ;main.c: 302: changeStages("       0   ","          0", 0);
  3512  000F3C  0E78               	movlw	low STR_10
  3513  000F3E  0100               	movlb	0	; () banked
  3514  000F40  6FD4               	movwf	changeStages@parameter1& (0+255),b
  3515  000F42  0E7F               	movlw	high STR_10
  3516  000F44  0100               	movlb	0	; () banked
  3517  000F46  6FD5               	movwf	(changeStages@parameter1+1)& (0+255),b
  3518  000F48  0ED8               	movlw	low STR_4
  3519  000F4A  0100               	movlb	0	; () banked
  3520  000F4C  6FD6               	movwf	changeStages@parameter2& (0+255),b
  3521  000F4E  0E7F               	movlw	high STR_4
  3522  000F50  0100               	movlb	0	; () banked
  3523  000F52  6FD7               	movwf	(changeStages@parameter2+1)& (0+255),b
  3524  000F54  0E00               	movlw	0
  3525  000F56  0100               	movlb	0	; () banked
  3526  000F58  6FD9               	movwf	(changeStages@enemPos+1)& (0+255),b
  3527  000F5A  0E00               	movlw	0
  3528  000F5C  6FD8               	movwf	changeStages@enemPos& (0+255),b
  3529  000F5E  ECC3  F010         	call	_changeStages	;wreg free
  3530                           
  3531                           ;main.c: 303: _delay((unsigned long)((400)*(24000000ul/4000.0)));
  3532  000F62  0E0D               	movlw	13
  3533  000F64  6E31               	movwf	(??_juego2+1)& (0+255),c
  3534  000F66  0E2D               	movlw	45
  3535  000F68  6E30               	movwf	??_juego2& (0+255),c
  3536  000F6A  0ED8               	movlw	216
  3537  000F6C                     u4627:
  3538  000F6C  2EE8               	decfsz	wreg,f,c
  3539  000F6E  D7FE               	bra	u4627
  3540  000F70  2E30               	decfsz	??_juego2& (0+255),f,c
  3541  000F72  D7FC               	bra	u4627
  3542  000F74  2E31               	decfsz	(??_juego2+1)& (0+255),f,c
  3543  000F76  D7FA               	bra	u4627
  3544                           
  3545                           ;main.c: 305: changeStages("      0    ","         0 ", 0);
  3546  000F78  0E60               	movlw	low STR_12
  3547  000F7A  0100               	movlb	0	; () banked
  3548  000F7C  6FD4               	movwf	changeStages@parameter1& (0+255),b
  3549  000F7E  0E7F               	movlw	high STR_12
  3550  000F80  0100               	movlb	0	; () banked
  3551  000F82  6FD5               	movwf	(changeStages@parameter1+1)& (0+255),b
  3552  000F84  0EB4               	movlw	low STR_6
  3553  000F86  0100               	movlb	0	; () banked
  3554  000F88  6FD6               	movwf	changeStages@parameter2& (0+255),b
  3555  000F8A  0E7F               	movlw	high STR_6
  3556  000F8C  0100               	movlb	0	; () banked
  3557  000F8E  6FD7               	movwf	(changeStages@parameter2+1)& (0+255),b
  3558  000F90  0E00               	movlw	0
  3559  000F92  0100               	movlb	0	; () banked
  3560  000F94  6FD9               	movwf	(changeStages@enemPos+1)& (0+255),b
  3561  000F96  0E00               	movlw	0
  3562  000F98  6FD8               	movwf	changeStages@enemPos& (0+255),b
  3563  000F9A  ECC3  F010         	call	_changeStages	;wreg free
  3564                           
  3565                           ;main.c: 306: _delay((unsigned long)((400)*(24000000ul/4000.0)));
  3566  000F9E  0E0D               	movlw	13
  3567  000FA0  6E31               	movwf	(??_juego2+1)& (0+255),c
  3568  000FA2  0E2D               	movlw	45
  3569  000FA4  6E30               	movwf	??_juego2& (0+255),c
  3570  000FA6  0ED8               	movlw	216
  3571  000FA8                     u4637:
  3572  000FA8  2EE8               	decfsz	wreg,f,c
  3573  000FAA  D7FE               	bra	u4637
  3574  000FAC  2E30               	decfsz	??_juego2& (0+255),f,c
  3575  000FAE  D7FC               	bra	u4637
  3576  000FB0  2E31               	decfsz	(??_juego2+1)& (0+255),f,c
  3577  000FB2  D7FA               	bra	u4637
  3578                           
  3579                           ;main.c: 308: changeStages("     0    0","        0  ", 0);
  3580  000FB4  0EF0               	movlw	low STR_14
  3581  000FB6  0100               	movlb	0	; () banked
  3582  000FB8  6FD4               	movwf	changeStages@parameter1& (0+255),b
  3583  000FBA  0E7F               	movlw	high STR_14
  3584  000FBC  0100               	movlb	0	; () banked
  3585  000FBE  6FD5               	movwf	(changeStages@parameter1+1)& (0+255),b
  3586  000FC0  0E90               	movlw	low STR_8
  3587  000FC2  0100               	movlb	0	; () banked
  3588  000FC4  6FD6               	movwf	changeStages@parameter2& (0+255),b
  3589  000FC6  0E7F               	movlw	high STR_8
  3590  000FC8  0100               	movlb	0	; () banked
  3591  000FCA  6FD7               	movwf	(changeStages@parameter2+1)& (0+255),b
  3592  000FCC  0E00               	movlw	0
  3593  000FCE  0100               	movlb	0	; () banked
  3594  000FD0  6FD9               	movwf	(changeStages@enemPos+1)& (0+255),b
  3595  000FD2  0E00               	movlw	0
  3596  000FD4  6FD8               	movwf	changeStages@enemPos& (0+255),b
  3597  000FD6  ECC3  F010         	call	_changeStages	;wreg free
  3598                           
  3599                           ;main.c: 309: _delay((unsigned long)((400)*(24000000ul/4000.0)));
  3600  000FDA  0E0D               	movlw	13
  3601  000FDC  6E31               	movwf	(??_juego2+1)& (0+255),c
  3602  000FDE  0E2D               	movlw	45
  3603  000FE0  6E30               	movwf	??_juego2& (0+255),c
  3604  000FE2  0ED8               	movlw	216
  3605  000FE4                     u4647:
  3606  000FE4  2EE8               	decfsz	wreg,f,c
  3607  000FE6  D7FE               	bra	u4647
  3608  000FE8  2E30               	decfsz	??_juego2& (0+255),f,c
  3609  000FEA  D7FC               	bra	u4647
  3610  000FEC  2E31               	decfsz	(??_juego2+1)& (0+255),f,c
  3611  000FEE  D7FA               	bra	u4647
  3612                           
  3613                           ;main.c: 311: changeStages("    0    0 ","       0   ", 0);
  3614  000FF0  0ECC               	movlw	low STR_16
  3615  000FF2  0100               	movlb	0	; () banked
  3616  000FF4  6FD4               	movwf	changeStages@parameter1& (0+255),b
  3617  000FF6  0E7F               	movlw	high STR_16
  3618  000FF8  0100               	movlb	0	; () banked
  3619  000FFA  6FD5               	movwf	(changeStages@parameter1+1)& (0+255),b
  3620  000FFC  0E78               	movlw	low STR_10
  3621  000FFE  0100               	movlb	0	; () banked
  3622  001000  6FD6               	movwf	changeStages@parameter2& (0+255),b
  3623  001002  0E7F               	movlw	high STR_10
  3624  001004  0100               	movlb	0	; () banked
  3625  001006  6FD7               	movwf	(changeStages@parameter2+1)& (0+255),b
  3626  001008  0E00               	movlw	0
  3627  00100A  0100               	movlb	0	; () banked
  3628  00100C  6FD9               	movwf	(changeStages@enemPos+1)& (0+255),b
  3629  00100E  0E00               	movlw	0
  3630  001010  6FD8               	movwf	changeStages@enemPos& (0+255),b
  3631  001012  ECC3  F010         	call	_changeStages	;wreg free
  3632                           
  3633                           ;main.c: 312: _delay((unsigned long)((400)*(24000000ul/4000.0)));
  3634  001016  0E0D               	movlw	13
  3635  001018  6E31               	movwf	(??_juego2+1)& (0+255),c
  3636  00101A  0E2D               	movlw	45
  3637  00101C  6E30               	movwf	??_juego2& (0+255),c
  3638  00101E  0ED8               	movlw	216
  3639  001020                     u4657:
  3640  001020  2EE8               	decfsz	wreg,f,c
  3641  001022  D7FE               	bra	u4657
  3642  001024  2E30               	decfsz	??_juego2& (0+255),f,c
  3643  001026  D7FC               	bra	u4657
  3644  001028  2E31               	decfsz	(??_juego2+1)& (0+255),f,c
  3645  00102A  D7FA               	bra	u4657
  3646                           
  3647                           ;main.c: 314: changeStages("   0    0  ","      0    ", 0);
  3648  00102C  0EA8               	movlw	low STR_18
  3649  00102E  0100               	movlb	0	; () banked
  3650  001030  6FD4               	movwf	changeStages@parameter1& (0+255),b
  3651  001032  0E7F               	movlw	high STR_18
  3652  001034  0100               	movlb	0	; () banked
  3653  001036  6FD5               	movwf	(changeStages@parameter1+1)& (0+255),b
  3654  001038  0E60               	movlw	low STR_12
  3655  00103A  0100               	movlb	0	; () banked
  3656  00103C  6FD6               	movwf	changeStages@parameter2& (0+255),b
  3657  00103E  0E7F               	movlw	high STR_12
  3658  001040  0100               	movlb	0	; () banked
  3659  001042  6FD7               	movwf	(changeStages@parameter2+1)& (0+255),b
  3660  001044  0E00               	movlw	0
  3661  001046  0100               	movlb	0	; () banked
  3662  001048  6FD9               	movwf	(changeStages@enemPos+1)& (0+255),b
  3663  00104A  0E00               	movlw	0
  3664  00104C  6FD8               	movwf	changeStages@enemPos& (0+255),b
  3665  00104E  ECC3  F010         	call	_changeStages	;wreg free
  3666                           
  3667                           ;main.c: 315: _delay((unsigned long)((400)*(24000000ul/4000.0)));
  3668  001052  0E0D               	movlw	13
  3669  001054  6E31               	movwf	(??_juego2+1)& (0+255),c
  3670  001056  0E2D               	movlw	45
  3671  001058  6E30               	movwf	??_juego2& (0+255),c
  3672  00105A  0ED8               	movlw	216
  3673  00105C                     u4667:
  3674  00105C  2EE8               	decfsz	wreg,f,c
  3675  00105E  D7FE               	bra	u4667
  3676  001060  2E30               	decfsz	??_juego2& (0+255),f,c
  3677  001062  D7FC               	bra	u4667
  3678  001064  2E31               	decfsz	(??_juego2+1)& (0+255),f,c
  3679  001066  D7FA               	bra	u4667
  3680                           
  3681                           ;main.c: 317: changeStages("  0    0   ","     0     ", 0);
  3682  001068  0E84               	movlw	low STR_20
  3683  00106A  0100               	movlb	0	; () banked
  3684  00106C  6FD4               	movwf	changeStages@parameter1& (0+255),b
  3685  00106E  0E7F               	movlw	high STR_20
  3686  001070  0100               	movlb	0	; () banked
  3687  001072  6FD5               	movwf	(changeStages@parameter1+1)& (0+255),b
  3688  001074  0E48               	movlw	low STR_21
  3689  001076  0100               	movlb	0	; () banked
  3690  001078  6FD6               	movwf	changeStages@parameter2& (0+255),b
  3691  00107A  0E7F               	movlw	high STR_21
  3692  00107C  0100               	movlb	0	; () banked
  3693  00107E  6FD7               	movwf	(changeStages@parameter2+1)& (0+255),b
  3694  001080  0E00               	movlw	0
  3695  001082  0100               	movlb	0	; () banked
  3696  001084  6FD9               	movwf	(changeStages@enemPos+1)& (0+255),b
  3697  001086  0E00               	movlw	0
  3698  001088  6FD8               	movwf	changeStages@enemPos& (0+255),b
  3699  00108A  ECC3  F010         	call	_changeStages	;wreg free
  3700                           
  3701                           ;main.c: 318: _delay((unsigned long)((400)*(24000000ul/4000.0)));
  3702  00108E  0E0D               	movlw	13
  3703  001090  6E31               	movwf	(??_juego2+1)& (0+255),c
  3704  001092  0E2D               	movlw	45
  3705  001094  6E30               	movwf	??_juego2& (0+255),c
  3706  001096  0ED8               	movlw	216
  3707  001098                     u4677:
  3708  001098  2EE8               	decfsz	wreg,f,c
  3709  00109A  D7FE               	bra	u4677
  3710  00109C  2E30               	decfsz	??_juego2& (0+255),f,c
  3711  00109E  D7FC               	bra	u4677
  3712  0010A0  2E31               	decfsz	(??_juego2+1)& (0+255),f,c
  3713  0010A2  D7FA               	bra	u4677
  3714                           
  3715                           ;main.c: 320: changeStages(" 0    0    ","    0      ", 0);
  3716  0010A4  0E6C               	movlw	low STR_22
  3717  0010A6  0100               	movlb	0	; () banked
  3718  0010A8  6FD4               	movwf	changeStages@parameter1& (0+255),b
  3719  0010AA  0E7F               	movlw	high STR_22
  3720  0010AC  0100               	movlb	0	; () banked
  3721  0010AE  6FD5               	movwf	(changeStages@parameter1+1)& (0+255),b
  3722  0010B0  0E3C               	movlw	low STR_23
  3723  0010B2  0100               	movlb	0	; () banked
  3724  0010B4  6FD6               	movwf	changeStages@parameter2& (0+255),b
  3725  0010B6  0E7F               	movlw	high STR_23
  3726  0010B8  0100               	movlb	0	; () banked
  3727  0010BA  6FD7               	movwf	(changeStages@parameter2+1)& (0+255),b
  3728  0010BC  0E00               	movlw	0
  3729  0010BE  0100               	movlb	0	; () banked
  3730  0010C0  6FD9               	movwf	(changeStages@enemPos+1)& (0+255),b
  3731  0010C2  0E00               	movlw	0
  3732  0010C4  6FD8               	movwf	changeStages@enemPos& (0+255),b
  3733  0010C6  ECC3  F010         	call	_changeStages	;wreg free
  3734                           
  3735                           ;main.c: 321: _delay((unsigned long)((400)*(24000000ul/4000.0)));
  3736  0010CA  0E0D               	movlw	13
  3737  0010CC  6E31               	movwf	(??_juego2+1)& (0+255),c
  3738  0010CE  0E2D               	movlw	45
  3739  0010D0  6E30               	movwf	??_juego2& (0+255),c
  3740  0010D2  0ED8               	movlw	216
  3741  0010D4                     u4687:
  3742  0010D4  2EE8               	decfsz	wreg,f,c
  3743  0010D6  D7FE               	bra	u4687
  3744  0010D8  2E30               	decfsz	??_juego2& (0+255),f,c
  3745  0010DA  D7FC               	bra	u4687
  3746  0010DC  2E31               	decfsz	(??_juego2+1)& (0+255),f,c
  3747  0010DE  D7FA               	bra	u4687
  3748                           
  3749                           ;main.c: 323: changeStages("0    0     ","   0       ", 1);
  3750  0010E0  0E54               	movlw	low STR_24
  3751  0010E2  0100               	movlb	0	; () banked
  3752  0010E4  6FD4               	movwf	changeStages@parameter1& (0+255),b
  3753  0010E6  0E7F               	movlw	high STR_24
  3754  0010E8  0100               	movlb	0	; () banked
  3755  0010EA  6FD5               	movwf	(changeStages@parameter1+1)& (0+255),b
  3756  0010EC  0E30               	movlw	low STR_25
  3757  0010EE  0100               	movlb	0	; () banked
  3758  0010F0  6FD6               	movwf	changeStages@parameter2& (0+255),b
  3759  0010F2  0E7F               	movlw	high STR_25
  3760  0010F4  0100               	movlb	0	; () banked
  3761  0010F6  6FD7               	movwf	(changeStages@parameter2+1)& (0+255),b
  3762  0010F8  0E00               	movlw	0
  3763  0010FA  0100               	movlb	0	; () banked
  3764  0010FC  6FD9               	movwf	(changeStages@enemPos+1)& (0+255),b
  3765  0010FE  0E01               	movlw	1
  3766  001100  6FD8               	movwf	changeStages@enemPos& (0+255),b
  3767  001102  ECC3  F010         	call	_changeStages	;wreg free
  3768                           
  3769                           ;main.c: 324: _delay((unsigned long)((400)*(24000000ul/4000.0)));
  3770  001106  0E0D               	movlw	13
  3771  001108  6E31               	movwf	(??_juego2+1)& (0+255),c
  3772  00110A  0E2D               	movlw	45
  3773  00110C  6E30               	movwf	??_juego2& (0+255),c
  3774  00110E  0ED8               	movlw	216
  3775  001110                     u4697:
  3776  001110  2EE8               	decfsz	wreg,f,c
  3777  001112  D7FE               	bra	u4697
  3778  001114  2E30               	decfsz	??_juego2& (0+255),f,c
  3779  001116  D7FC               	bra	u4697
  3780  001118  2E31               	decfsz	(??_juego2+1)& (0+255),f,c
  3781  00111A  D7FA               	bra	u4697
  3782                           
  3783                           ;main.c: 326: changeStages("    0      ","  0       0", 0);
  3784  00111C  0E3C               	movlw	low STR_23
  3785  00111E  0100               	movlb	0	; () banked
  3786  001120  6FD4               	movwf	changeStages@parameter1& (0+255),b
  3787  001122  0E7F               	movlw	high STR_23
  3788  001124  0100               	movlb	0	; () banked
  3789  001126  6FD5               	movwf	(changeStages@parameter1+1)& (0+255),b
  3790  001128  0EE4               	movlw	low STR_27
  3791  00112A  0100               	movlb	0	; () banked
  3792  00112C  6FD6               	movwf	changeStages@parameter2& (0+255),b
  3793  00112E  0E7F               	movlw	high STR_27
  3794  001130  0100               	movlb	0	; () banked
  3795  001132  6FD7               	movwf	(changeStages@parameter2+1)& (0+255),b
  3796  001134  0E00               	movlw	0
  3797  001136  0100               	movlb	0	; () banked
  3798  001138  6FD9               	movwf	(changeStages@enemPos+1)& (0+255),b
  3799  00113A  0E00               	movlw	0
  3800  00113C  6FD8               	movwf	changeStages@enemPos& (0+255),b
  3801  00113E  ECC3  F010         	call	_changeStages	;wreg free
  3802                           
  3803                           ;main.c: 327: _delay((unsigned long)((400)*(24000000ul/4000.0)));
  3804  001142  0E0D               	movlw	13
  3805  001144  6E31               	movwf	(??_juego2+1)& (0+255),c
  3806  001146  0E2D               	movlw	45
  3807  001148  6E30               	movwf	??_juego2& (0+255),c
  3808  00114A  0ED8               	movlw	216
  3809  00114C                     u4707:
  3810  00114C  2EE8               	decfsz	wreg,f,c
  3811  00114E  D7FE               	bra	u4707
  3812  001150  2E30               	decfsz	??_juego2& (0+255),f,c
  3813  001152  D7FC               	bra	u4707
  3814  001154  2E31               	decfsz	(??_juego2+1)& (0+255),f,c
  3815  001156  D7FA               	bra	u4707
  3816                           
  3817                           ;main.c: 329: changeStages("   0       "," 0       0 ", 0);
  3818  001158  0E30               	movlw	low STR_25
  3819  00115A  0100               	movlb	0	; () banked
  3820  00115C  6FD4               	movwf	changeStages@parameter1& (0+255),b
  3821  00115E  0E7F               	movlw	high STR_25
  3822  001160  0100               	movlb	0	; () banked
  3823  001162  6FD5               	movwf	(changeStages@parameter1+1)& (0+255),b
  3824  001164  0EC0               	movlw	low STR_29
  3825  001166  0100               	movlb	0	; () banked
  3826  001168  6FD6               	movwf	changeStages@parameter2& (0+255),b
  3827  00116A  0E7F               	movlw	high STR_29
  3828  00116C  0100               	movlb	0	; () banked
  3829  00116E  6FD7               	movwf	(changeStages@parameter2+1)& (0+255),b
  3830  001170  0E00               	movlw	0
  3831  001172  0100               	movlb	0	; () banked
  3832  001174  6FD9               	movwf	(changeStages@enemPos+1)& (0+255),b
  3833  001176  0E00               	movlw	0
  3834  001178  6FD8               	movwf	changeStages@enemPos& (0+255),b
  3835  00117A  ECC3  F010         	call	_changeStages	;wreg free
  3836                           
  3837                           ;main.c: 330: _delay((unsigned long)((400)*(24000000ul/4000.0)));
  3838  00117E  0E0D               	movlw	13
  3839  001180  6E31               	movwf	(??_juego2+1)& (0+255),c
  3840  001182  0E2D               	movlw	45
  3841  001184  6E30               	movwf	??_juego2& (0+255),c
  3842  001186  0ED8               	movlw	216
  3843  001188                     u4717:
  3844  001188  2EE8               	decfsz	wreg,f,c
  3845  00118A  D7FE               	bra	u4717
  3846  00118C  2E30               	decfsz	??_juego2& (0+255),f,c
  3847  00118E  D7FC               	bra	u4717
  3848  001190  2E31               	decfsz	(??_juego2+1)& (0+255),f,c
  3849  001192  D7FA               	bra	u4717
  3850                           
  3851                           ;main.c: 332: changeStages("  0        ","0       0  ", 2);
  3852  001194  0E24               	movlw	low STR_30
  3853  001196  0100               	movlb	0	; () banked
  3854  001198  6FD4               	movwf	changeStages@parameter1& (0+255),b
  3855  00119A  0E7F               	movlw	high STR_30
  3856  00119C  0100               	movlb	0	; () banked
  3857  00119E  6FD5               	movwf	(changeStages@parameter1+1)& (0+255),b
  3858  0011A0  0E9C               	movlw	low STR_31
  3859  0011A2  0100               	movlb	0	; () banked
  3860  0011A4  6FD6               	movwf	changeStages@parameter2& (0+255),b
  3861  0011A6  0E7F               	movlw	high STR_31
  3862  0011A8  0100               	movlb	0	; () banked
  3863  0011AA  6FD7               	movwf	(changeStages@parameter2+1)& (0+255),b
  3864  0011AC  0E00               	movlw	0
  3865  0011AE  0100               	movlb	0	; () banked
  3866  0011B0  6FD9               	movwf	(changeStages@enemPos+1)& (0+255),b
  3867  0011B2  0E02               	movlw	2
  3868  0011B4  6FD8               	movwf	changeStages@enemPos& (0+255),b
  3869  0011B6  ECC3  F010         	call	_changeStages	;wreg free
  3870                           
  3871                           ;main.c: 333: _delay((unsigned long)((400)*(24000000ul/4000.0)));
  3872  0011BA  0E0D               	movlw	13
  3873  0011BC  6E31               	movwf	(??_juego2+1)& (0+255),c
  3874  0011BE  0E2D               	movlw	45
  3875  0011C0  6E30               	movwf	??_juego2& (0+255),c
  3876  0011C2  0ED8               	movlw	216
  3877  0011C4                     u4727:
  3878  0011C4  2EE8               	decfsz	wreg,f,c
  3879  0011C6  D7FE               	bra	u4727
  3880  0011C8  2E30               	decfsz	??_juego2& (0+255),f,c
  3881  0011CA  D7FC               	bra	u4727
  3882  0011CC  2E31               	decfsz	(??_juego2+1)& (0+255),f,c
  3883  0011CE  D7FA               	bra	u4727
  3884                           
  3885                           ;main.c: 335: changeStages(" 0         ","       0   ", 0);
  3886  0011D0  0E18               	movlw	low STR_32
  3887  0011D2  0100               	movlb	0	; () banked
  3888  0011D4  6FD4               	movwf	changeStages@parameter1& (0+255),b
  3889  0011D6  0E7F               	movlw	high STR_32
  3890  0011D8  0100               	movlb	0	; () banked
  3891  0011DA  6FD5               	movwf	(changeStages@parameter1+1)& (0+255),b
  3892  0011DC  0E78               	movlw	low STR_10
  3893  0011DE  0100               	movlb	0	; () banked
  3894  0011E0  6FD6               	movwf	changeStages@parameter2& (0+255),b
  3895  0011E2  0E7F               	movlw	high STR_10
  3896  0011E4  0100               	movlb	0	; () banked
  3897  0011E6  6FD7               	movwf	(changeStages@parameter2+1)& (0+255),b
  3898  0011E8  0E00               	movlw	0
  3899  0011EA  0100               	movlb	0	; () banked
  3900  0011EC  6FD9               	movwf	(changeStages@enemPos+1)& (0+255),b
  3901  0011EE  0E00               	movlw	0
  3902  0011F0  6FD8               	movwf	changeStages@enemPos& (0+255),b
  3903  0011F2  ECC3  F010         	call	_changeStages	;wreg free
  3904                           
  3905                           ;main.c: 336: _delay((unsigned long)((400)*(24000000ul/4000.0)));
  3906  0011F6  0E0D               	movlw	13
  3907  0011F8  6E31               	movwf	(??_juego2+1)& (0+255),c
  3908  0011FA  0E2D               	movlw	45
  3909  0011FC  6E30               	movwf	??_juego2& (0+255),c
  3910  0011FE  0ED8               	movlw	216
  3911  001200                     u4737:
  3912  001200  2EE8               	decfsz	wreg,f,c
  3913  001202  D7FE               	bra	u4737
  3914  001204  2E30               	decfsz	??_juego2& (0+255),f,c
  3915  001206  D7FC               	bra	u4737
  3916  001208  2E31               	decfsz	(??_juego2+1)& (0+255),f,c
  3917  00120A  D7FA               	bra	u4737
  3918                           
  3919                           ;main.c: 338: changeStages("0          ","      0    ", 1);
  3920  00120C  0E0C               	movlw	low (STR_47+1)
  3921  00120E  0100               	movlb	0	; () banked
  3922  001210  6FD4               	movwf	changeStages@parameter1& (0+255),b
  3923  001212  0E7F               	movlw	high (STR_47+1)
  3924  001214  0100               	movlb	0	; () banked
  3925  001216  6FD5               	movwf	(changeStages@parameter1+1)& (0+255),b
  3926  001218  0E60               	movlw	low STR_12
  3927  00121A  0100               	movlb	0	; () banked
  3928  00121C  6FD6               	movwf	changeStages@parameter2& (0+255),b
  3929  00121E  0E7F               	movlw	high STR_12
  3930  001220  0100               	movlb	0	; () banked
  3931  001222  6FD7               	movwf	(changeStages@parameter2+1)& (0+255),b
  3932  001224  0E00               	movlw	0
  3933  001226  0100               	movlb	0	; () banked
  3934  001228  6FD9               	movwf	(changeStages@enemPos+1)& (0+255),b
  3935  00122A  0E01               	movlw	1
  3936  00122C  6FD8               	movwf	changeStages@enemPos& (0+255),b
  3937  00122E  ECC3  F010         	call	_changeStages	;wreg free
  3938                           
  3939                           ;main.c: 339: _delay((unsigned long)((400)*(24000000ul/4000.0)));
  3940  001232  0E0D               	movlw	13
  3941  001234  6E31               	movwf	(??_juego2+1)& (0+255),c
  3942  001236  0E2D               	movlw	45
  3943  001238  6E30               	movwf	??_juego2& (0+255),c
  3944  00123A  0ED8               	movlw	216
  3945  00123C                     u4747:
  3946  00123C  2EE8               	decfsz	wreg,f,c
  3947  00123E  D7FE               	bra	u4747
  3948  001240  2E30               	decfsz	??_juego2& (0+255),f,c
  3949  001242  D7FC               	bra	u4747
  3950  001244  2E31               	decfsz	(??_juego2+1)& (0+255),f,c
  3951  001246  D7FA               	bra	u4747
  3952                           
  3953                           ;main.c: 341: changeStages("           ","     0     ", 0);
  3954  001248  0EF2               	movlw	low (STR_51+1)
  3955  00124A  0100               	movlb	0	; () banked
  3956  00124C  6FD4               	movwf	changeStages@parameter1& (0+255),b
  3957  00124E  0E7E               	movlw	high (STR_51+1)
  3958  001250  0100               	movlb	0	; () banked
  3959  001252  6FD5               	movwf	(changeStages@parameter1+1)& (0+255),b
  3960  001254  0E48               	movlw	low STR_21
  3961  001256  0100               	movlb	0	; () banked
  3962  001258  6FD6               	movwf	changeStages@parameter2& (0+255),b
  3963  00125A  0E7F               	movlw	high STR_21
  3964  00125C  0100               	movlb	0	; () banked
  3965  00125E  6FD7               	movwf	(changeStages@parameter2+1)& (0+255),b
  3966  001260  0E00               	movlw	0
  3967  001262  0100               	movlb	0	; () banked
  3968  001264  6FD9               	movwf	(changeStages@enemPos+1)& (0+255),b
  3969  001266  0E00               	movlw	0
  3970  001268  6FD8               	movwf	changeStages@enemPos& (0+255),b
  3971  00126A  ECC3  F010         	call	_changeStages	;wreg free
  3972                           
  3973                           ;main.c: 342: _delay((unsigned long)((400)*(24000000ul/4000.0)));
  3974  00126E  0E0D               	movlw	13
  3975  001270  6E31               	movwf	(??_juego2+1)& (0+255),c
  3976  001272  0E2D               	movlw	45
  3977  001274  6E30               	movwf	??_juego2& (0+255),c
  3978  001276  0ED8               	movlw	216
  3979  001278                     u4757:
  3980  001278  2EE8               	decfsz	wreg,f,c
  3981  00127A  D7FE               	bra	u4757
  3982  00127C  2E30               	decfsz	??_juego2& (0+255),f,c
  3983  00127E  D7FC               	bra	u4757
  3984  001280  2E31               	decfsz	(??_juego2+1)& (0+255),f,c
  3985  001282  D7FA               	bra	u4757
  3986                           
  3987                           ;main.c: 344: changeStages("           ","    0      ", 0);
  3988  001284  0EF2               	movlw	low (STR_51+1)
  3989  001286  0100               	movlb	0	; () banked
  3990  001288  6FD4               	movwf	changeStages@parameter1& (0+255),b
  3991  00128A  0E7E               	movlw	high (STR_51+1)
  3992  00128C  0100               	movlb	0	; () banked
  3993  00128E  6FD5               	movwf	(changeStages@parameter1+1)& (0+255),b
  3994  001290  0E3C               	movlw	low STR_23
  3995  001292  0100               	movlb	0	; () banked
  3996  001294  6FD6               	movwf	changeStages@parameter2& (0+255),b
  3997  001296  0E7F               	movlw	high STR_23
  3998  001298  0100               	movlb	0	; () banked
  3999  00129A  6FD7               	movwf	(changeStages@parameter2+1)& (0+255),b
  4000  00129C  0E00               	movlw	0
  4001  00129E  0100               	movlb	0	; () banked
  4002  0012A0  6FD9               	movwf	(changeStages@enemPos+1)& (0+255),b
  4003  0012A2  0E00               	movlw	0
  4004  0012A4  6FD8               	movwf	changeStages@enemPos& (0+255),b
  4005  0012A6  ECC3  F010         	call	_changeStages	;wreg free
  4006                           
  4007                           ;main.c: 345: _delay((unsigned long)((400)*(24000000ul/4000.0)));
  4008  0012AA  0E0D               	movlw	13
  4009  0012AC  6E31               	movwf	(??_juego2+1)& (0+255),c
  4010  0012AE  0E2D               	movlw	45
  4011  0012B0  6E30               	movwf	??_juego2& (0+255),c
  4012  0012B2  0ED8               	movlw	216
  4013  0012B4                     u4767:
  4014  0012B4  2EE8               	decfsz	wreg,f,c
  4015  0012B6  D7FE               	bra	u4767
  4016  0012B8  2E30               	decfsz	??_juego2& (0+255),f,c
  4017  0012BA  D7FC               	bra	u4767
  4018  0012BC  2E31               	decfsz	(??_juego2+1)& (0+255),f,c
  4019  0012BE  D7FA               	bra	u4767
  4020                           
  4021                           ;main.c: 347: changeStages("          0","   0       ", 0);
  4022  0012C0  0ED8               	movlw	low STR_4
  4023  0012C2  0100               	movlb	0	; () banked
  4024  0012C4  6FD4               	movwf	changeStages@parameter1& (0+255),b
  4025  0012C6  0E7F               	movlw	high STR_4
  4026  0012C8  0100               	movlb	0	; () banked
  4027  0012CA  6FD5               	movwf	(changeStages@parameter1+1)& (0+255),b
  4028  0012CC  0E30               	movlw	low STR_25
  4029  0012CE  0100               	movlb	0	; () banked
  4030  0012D0  6FD6               	movwf	changeStages@parameter2& (0+255),b
  4031  0012D2  0E7F               	movlw	high STR_25
  4032  0012D4  0100               	movlb	0	; () banked
  4033  0012D6  6FD7               	movwf	(changeStages@parameter2+1)& (0+255),b
  4034  0012D8  0E00               	movlw	0
  4035  0012DA  0100               	movlb	0	; () banked
  4036  0012DC  6FD9               	movwf	(changeStages@enemPos+1)& (0+255),b
  4037  0012DE  0E00               	movlw	0
  4038  0012E0  6FD8               	movwf	changeStages@enemPos& (0+255),b
  4039  0012E2  ECC3  F010         	call	_changeStages	;wreg free
  4040                           
  4041                           ;main.c: 348: _delay((unsigned long)((400)*(24000000ul/4000.0)));
  4042  0012E6  0E0D               	movlw	13
  4043  0012E8  6E31               	movwf	(??_juego2+1)& (0+255),c
  4044  0012EA  0E2D               	movlw	45
  4045  0012EC  6E30               	movwf	??_juego2& (0+255),c
  4046  0012EE  0ED8               	movlw	216
  4047  0012F0                     u4777:
  4048  0012F0  2EE8               	decfsz	wreg,f,c
  4049  0012F2  D7FE               	bra	u4777
  4050  0012F4  2E30               	decfsz	??_juego2& (0+255),f,c
  4051  0012F6  D7FC               	bra	u4777
  4052  0012F8  2E31               	decfsz	(??_juego2+1)& (0+255),f,c
  4053  0012FA  D7FA               	bra	u4777
  4054                           
  4055                           ;main.c: 350: changeStages("         0 ","  0        ", 0);
  4056  0012FC  0EB4               	movlw	low STR_6
  4057  0012FE  0100               	movlb	0	; () banked
  4058  001300  6FD4               	movwf	changeStages@parameter1& (0+255),b
  4059  001302  0E7F               	movlw	high STR_6
  4060  001304  0100               	movlb	0	; () banked
  4061  001306  6FD5               	movwf	(changeStages@parameter1+1)& (0+255),b
  4062  001308  0E24               	movlw	low STR_30
  4063  00130A  0100               	movlb	0	; () banked
  4064  00130C  6FD6               	movwf	changeStages@parameter2& (0+255),b
  4065  00130E  0E7F               	movlw	high STR_30
  4066  001310  0100               	movlb	0	; () banked
  4067  001312  6FD7               	movwf	(changeStages@parameter2+1)& (0+255),b
  4068  001314  0E00               	movlw	0
  4069  001316  0100               	movlb	0	; () banked
  4070  001318  6FD9               	movwf	(changeStages@enemPos+1)& (0+255),b
  4071  00131A  0E00               	movlw	0
  4072  00131C  6FD8               	movwf	changeStages@enemPos& (0+255),b
  4073  00131E  ECC3  F010         	call	_changeStages	;wreg free
  4074                           
  4075                           ;main.c: 351: _delay((unsigned long)((400)*(24000000ul/4000.0)));
  4076  001322  0E0D               	movlw	13
  4077  001324  6E31               	movwf	(??_juego2+1)& (0+255),c
  4078  001326  0E2D               	movlw	45
  4079  001328  6E30               	movwf	??_juego2& (0+255),c
  4080  00132A  0ED8               	movlw	216
  4081  00132C                     u4787:
  4082  00132C  2EE8               	decfsz	wreg,f,c
  4083  00132E  D7FE               	bra	u4787
  4084  001330  2E30               	decfsz	??_juego2& (0+255),f,c
  4085  001332  D7FC               	bra	u4787
  4086  001334  2E31               	decfsz	(??_juego2+1)& (0+255),f,c
  4087  001336  D7FA               	bra	u4787
  4088                           
  4089                           ;main.c: 353: changeStages("        0  "," 0         ", 0);
  4090  001338  0E90               	movlw	low STR_8
  4091  00133A  0100               	movlb	0	; () banked
  4092  00133C  6FD4               	movwf	changeStages@parameter1& (0+255),b
  4093  00133E  0E7F               	movlw	high STR_8
  4094  001340  0100               	movlb	0	; () banked
  4095  001342  6FD5               	movwf	(changeStages@parameter1+1)& (0+255),b
  4096  001344  0E18               	movlw	low STR_32
  4097  001346  0100               	movlb	0	; () banked
  4098  001348  6FD6               	movwf	changeStages@parameter2& (0+255),b
  4099  00134A  0E7F               	movlw	high STR_32
  4100  00134C  0100               	movlb	0	; () banked
  4101  00134E  6FD7               	movwf	(changeStages@parameter2+1)& (0+255),b
  4102  001350  0E00               	movlw	0
  4103  001352  0100               	movlb	0	; () banked
  4104  001354  6FD9               	movwf	(changeStages@enemPos+1)& (0+255),b
  4105  001356  0E00               	movlw	0
  4106  001358  6FD8               	movwf	changeStages@enemPos& (0+255),b
  4107  00135A  ECC3  F010         	call	_changeStages	;wreg free
  4108                           
  4109                           ;main.c: 354: _delay((unsigned long)((400)*(24000000ul/4000.0)));
  4110  00135E  0E0D               	movlw	13
  4111  001360  6E31               	movwf	(??_juego2+1)& (0+255),c
  4112  001362  0E2D               	movlw	45
  4113  001364  6E30               	movwf	??_juego2& (0+255),c
  4114  001366  0ED8               	movlw	216
  4115  001368                     u4797:
  4116  001368  2EE8               	decfsz	wreg,f,c
  4117  00136A  D7FE               	bra	u4797
  4118  00136C  2E30               	decfsz	??_juego2& (0+255),f,c
  4119  00136E  D7FC               	bra	u4797
  4120  001370  2E31               	decfsz	(??_juego2+1)& (0+255),f,c
  4121  001372  D7FA               	bra	u4797
  4122                           
  4123                           ;main.c: 356: changeStages("       0  "," 0          ", 0);
  4124  001374  0E91               	movlw	low (STR_8+1)
  4125  001376  0100               	movlb	0	; () banked
  4126  001378  6FD4               	movwf	changeStages@parameter1& (0+255),b
  4127  00137A  0E7F               	movlw	high (STR_8+1)
  4128  00137C  0100               	movlb	0	; () banked
  4129  00137E  6FD5               	movwf	(changeStages@parameter1+1)& (0+255),b
  4130  001380  0E0B               	movlw	low STR_47
  4131  001382  0100               	movlb	0	; () banked
  4132  001384  6FD6               	movwf	changeStages@parameter2& (0+255),b
  4133  001386  0E7F               	movlw	high STR_47
  4134  001388  0100               	movlb	0	; () banked
  4135  00138A  6FD7               	movwf	(changeStages@parameter2+1)& (0+255),b
  4136  00138C  0E00               	movlw	0
  4137  00138E  0100               	movlb	0	; () banked
  4138  001390  6FD9               	movwf	(changeStages@enemPos+1)& (0+255),b
  4139  001392  0E00               	movlw	0
  4140  001394  6FD8               	movwf	changeStages@enemPos& (0+255),b
  4141  001396  ECC3  F010         	call	_changeStages	;wreg free
  4142                           
  4143                           ;main.c: 357: _delay((unsigned long)((400)*(24000000ul/4000.0)));
  4144  00139A  0E0D               	movlw	13
  4145  00139C  6E31               	movwf	(??_juego2+1)& (0+255),c
  4146  00139E  0E2D               	movlw	45
  4147  0013A0  6E30               	movwf	??_juego2& (0+255),c
  4148  0013A2  0ED8               	movlw	216
  4149  0013A4                     u4807:
  4150  0013A4  2EE8               	decfsz	wreg,f,c
  4151  0013A6  D7FE               	bra	u4807
  4152  0013A8  2E30               	decfsz	??_juego2& (0+255),f,c
  4153  0013AA  D7FC               	bra	u4807
  4154  0013AC  2E31               	decfsz	(??_juego2+1)& (0+255),f,c
  4155  0013AE  D7FA               	bra	u4807
  4156                           
  4157                           ;main.c: 359: changeStages("      0   ","0           ", 2);
  4158  0013B0  0E79               	movlw	low (STR_10+1)
  4159  0013B2  0100               	movlb	0	; () banked
  4160  0013B4  6FD4               	movwf	changeStages@parameter1& (0+255),b
  4161  0013B6  0E7F               	movlw	high (STR_10+1)
  4162  0013B8  0100               	movlb	0	; () banked
  4163  0013BA  6FD5               	movwf	(changeStages@parameter1+1)& (0+255),b
  4164  0013BC  0EFE               	movlw	low STR_49
  4165  0013BE  0100               	movlb	0	; () banked
  4166  0013C0  6FD6               	movwf	changeStages@parameter2& (0+255),b
  4167  0013C2  0E7E               	movlw	high STR_49
  4168  0013C4  0100               	movlb	0	; () banked
  4169  0013C6  6FD7               	movwf	(changeStages@parameter2+1)& (0+255),b
  4170  0013C8  0E00               	movlw	0
  4171  0013CA  0100               	movlb	0	; () banked
  4172  0013CC  6FD9               	movwf	(changeStages@enemPos+1)& (0+255),b
  4173  0013CE  0E02               	movlw	2
  4174  0013D0  6FD8               	movwf	changeStages@enemPos& (0+255),b
  4175  0013D2  ECC3  F010         	call	_changeStages	;wreg free
  4176                           
  4177                           ;main.c: 360: _delay((unsigned long)((400)*(24000000ul/4000.0)));
  4178  0013D6  0E0D               	movlw	13
  4179  0013D8  6E31               	movwf	(??_juego2+1)& (0+255),c
  4180  0013DA  0E2D               	movlw	45
  4181  0013DC  6E30               	movwf	??_juego2& (0+255),c
  4182  0013DE  0ED8               	movlw	216
  4183  0013E0                     u4817:
  4184  0013E0  2EE8               	decfsz	wreg,f,c
  4185  0013E2  D7FE               	bra	u4817
  4186  0013E4  2E30               	decfsz	??_juego2& (0+255),f,c
  4187  0013E6  D7FC               	bra	u4817
  4188  0013E8  2E31               	decfsz	(??_juego2+1)& (0+255),f,c
  4189  0013EA  D7FA               	bra	u4817
  4190                           
  4191                           ;main.c: 362: changeStages("     0    ","            ", 0);
  4192  0013EC  0E61               	movlw	low (STR_12+1)
  4193  0013EE  0100               	movlb	0	; () banked
  4194  0013F0  6FD4               	movwf	changeStages@parameter1& (0+255),b
  4195  0013F2  0E7F               	movlw	high (STR_12+1)
  4196  0013F4  0100               	movlb	0	; () banked
  4197  0013F6  6FD5               	movwf	(changeStages@parameter1+1)& (0+255),b
  4198  0013F8  0EF1               	movlw	low STR_51
  4199  0013FA  0100               	movlb	0	; () banked
  4200  0013FC  6FD6               	movwf	changeStages@parameter2& (0+255),b
  4201  0013FE  0E7E               	movlw	high STR_51
  4202  001400  0100               	movlb	0	; () banked
  4203  001402  6FD7               	movwf	(changeStages@parameter2+1)& (0+255),b
  4204  001404  0E00               	movlw	0
  4205  001406  0100               	movlb	0	; () banked
  4206  001408  6FD9               	movwf	(changeStages@enemPos+1)& (0+255),b
  4207  00140A  0E00               	movlw	0
  4208  00140C  6FD8               	movwf	changeStages@enemPos& (0+255),b
  4209  00140E  ECC3  F010         	call	_changeStages	;wreg free
  4210                           
  4211                           ;main.c: 363: _delay((unsigned long)((400)*(24000000ul/4000.0)));
  4212  001412  0E0D               	movlw	13
  4213  001414  6E31               	movwf	(??_juego2+1)& (0+255),c
  4214  001416  0E2D               	movlw	45
  4215  001418  6E30               	movwf	??_juego2& (0+255),c
  4216  00141A  0ED8               	movlw	216
  4217  00141C                     u4827:
  4218  00141C  2EE8               	decfsz	wreg,f,c
  4219  00141E  D7FE               	bra	u4827
  4220  001420  2E30               	decfsz	??_juego2& (0+255),f,c
  4221  001422  D7FC               	bra	u4827
  4222  001424  2E31               	decfsz	(??_juego2+1)& (0+255),f,c
  4223  001426  D7FA               	bra	u4827
  4224                           
  4225                           ;main.c: 365: changeStages("    0     ","            ", 0);
  4226  001428  0E49               	movlw	low (STR_21+1)
  4227  00142A  0100               	movlb	0	; () banked
  4228  00142C  6FD4               	movwf	changeStages@parameter1& (0+255),b
  4229  00142E  0E7F               	movlw	high (STR_21+1)
  4230  001430  0100               	movlb	0	; () banked
  4231  001432  6FD5               	movwf	(changeStages@parameter1+1)& (0+255),b
  4232  001434  0EF1               	movlw	low STR_51
  4233  001436  0100               	movlb	0	; () banked
  4234  001438  6FD6               	movwf	changeStages@parameter2& (0+255),b
  4235  00143A  0E7E               	movlw	high STR_51
  4236  00143C  0100               	movlb	0	; () banked
  4237  00143E  6FD7               	movwf	(changeStages@parameter2+1)& (0+255),b
  4238  001440  0E00               	movlw	0
  4239  001442  0100               	movlb	0	; () banked
  4240  001444  6FD9               	movwf	(changeStages@enemPos+1)& (0+255),b
  4241  001446  0E00               	movlw	0
  4242  001448  6FD8               	movwf	changeStages@enemPos& (0+255),b
  4243  00144A  ECC3  F010         	call	_changeStages	;wreg free
  4244                           
  4245                           ;main.c: 366: _delay((unsigned long)((400)*(24000000ul/4000.0)));
  4246  00144E  0E0D               	movlw	13
  4247  001450  6E31               	movwf	(??_juego2+1)& (0+255),c
  4248  001452  0E2D               	movlw	45
  4249  001454  6E30               	movwf	??_juego2& (0+255),c
  4250  001456  0ED8               	movlw	216
  4251  001458                     u4837:
  4252  001458  2EE8               	decfsz	wreg,f,c
  4253  00145A  D7FE               	bra	u4837
  4254  00145C  2E30               	decfsz	??_juego2& (0+255),f,c
  4255  00145E  D7FC               	bra	u4837
  4256  001460  2E31               	decfsz	(??_juego2+1)& (0+255),f,c
  4257  001462  D7FA               	bra	u4837
  4258                           
  4259                           ;main.c: 368: changeStages("   0      ","            ", 0);
  4260  001464  0E3D               	movlw	low (STR_23+1)
  4261  001466  0100               	movlb	0	; () banked
  4262  001468  6FD4               	movwf	changeStages@parameter1& (0+255),b
  4263  00146A  0E7F               	movlw	high (STR_23+1)
  4264  00146C  0100               	movlb	0	; () banked
  4265  00146E  6FD5               	movwf	(changeStages@parameter1+1)& (0+255),b
  4266  001470  0EF1               	movlw	low STR_51
  4267  001472  0100               	movlb	0	; () banked
  4268  001474  6FD6               	movwf	changeStages@parameter2& (0+255),b
  4269  001476  0E7E               	movlw	high STR_51
  4270  001478  0100               	movlb	0	; () banked
  4271  00147A  6FD7               	movwf	(changeStages@parameter2+1)& (0+255),b
  4272  00147C  0E00               	movlw	0
  4273  00147E  0100               	movlb	0	; () banked
  4274  001480  6FD9               	movwf	(changeStages@enemPos+1)& (0+255),b
  4275  001482  0E00               	movlw	0
  4276  001484  6FD8               	movwf	changeStages@enemPos& (0+255),b
  4277  001486  ECC3  F010         	call	_changeStages	;wreg free
  4278                           
  4279                           ;main.c: 369: _delay((unsigned long)((400)*(24000000ul/4000.0)));
  4280  00148A  0E0D               	movlw	13
  4281  00148C  6E31               	movwf	(??_juego2+1)& (0+255),c
  4282  00148E  0E2D               	movlw	45
  4283  001490  6E30               	movwf	??_juego2& (0+255),c
  4284  001492  0ED8               	movlw	216
  4285  001494                     u4847:
  4286  001494  2EE8               	decfsz	wreg,f,c
  4287  001496  D7FE               	bra	u4847
  4288  001498  2E30               	decfsz	??_juego2& (0+255),f,c
  4289  00149A  D7FC               	bra	u4847
  4290  00149C  2E31               	decfsz	(??_juego2+1)& (0+255),f,c
  4291  00149E  D7FA               	bra	u4847
  4292                           
  4293                           ;main.c: 371: changeStages("  0       ","            ", 0);
  4294  0014A0  0E31               	movlw	low (STR_25+1)
  4295  0014A2  0100               	movlb	0	; () banked
  4296  0014A4  6FD4               	movwf	changeStages@parameter1& (0+255),b
  4297  0014A6  0E7F               	movlw	high (STR_25+1)
  4298  0014A8  0100               	movlb	0	; () banked
  4299  0014AA  6FD5               	movwf	(changeStages@parameter1+1)& (0+255),b
  4300  0014AC  0EF1               	movlw	low STR_51
  4301  0014AE  0100               	movlb	0	; () banked
  4302  0014B0  6FD6               	movwf	changeStages@parameter2& (0+255),b
  4303  0014B2  0E7E               	movlw	high STR_51
  4304  0014B4  0100               	movlb	0	; () banked
  4305  0014B6  6FD7               	movwf	(changeStages@parameter2+1)& (0+255),b
  4306  0014B8  0E00               	movlw	0
  4307  0014BA  0100               	movlb	0	; () banked
  4308  0014BC  6FD9               	movwf	(changeStages@enemPos+1)& (0+255),b
  4309  0014BE  0E00               	movlw	0
  4310  0014C0  6FD8               	movwf	changeStages@enemPos& (0+255),b
  4311  0014C2  ECC3  F010         	call	_changeStages	;wreg free
  4312                           
  4313                           ;main.c: 372: _delay((unsigned long)((400)*(24000000ul/4000.0)));
  4314  0014C6  0E0D               	movlw	13
  4315  0014C8  6E31               	movwf	(??_juego2+1)& (0+255),c
  4316  0014CA  0E2D               	movlw	45
  4317  0014CC  6E30               	movwf	??_juego2& (0+255),c
  4318  0014CE  0ED8               	movlw	216
  4319  0014D0                     u4857:
  4320  0014D0  2EE8               	decfsz	wreg,f,c
  4321  0014D2  D7FE               	bra	u4857
  4322  0014D4  2E30               	decfsz	??_juego2& (0+255),f,c
  4323  0014D6  D7FC               	bra	u4857
  4324  0014D8  2E31               	decfsz	(??_juego2+1)& (0+255),f,c
  4325  0014DA  D7FA               	bra	u4857
  4326                           
  4327                           ;main.c: 374: changeStages(" 0        ","            ", 0);
  4328  0014DC  0E25               	movlw	low (STR_30+1)
  4329  0014DE  0100               	movlb	0	; () banked
  4330  0014E0  6FD4               	movwf	changeStages@parameter1& (0+255),b
  4331  0014E2  0E7F               	movlw	high (STR_30+1)
  4332  0014E4  0100               	movlb	0	; () banked
  4333  0014E6  6FD5               	movwf	(changeStages@parameter1+1)& (0+255),b
  4334  0014E8  0EF1               	movlw	low STR_51
  4335  0014EA  0100               	movlb	0	; () banked
  4336  0014EC  6FD6               	movwf	changeStages@parameter2& (0+255),b
  4337  0014EE  0E7E               	movlw	high STR_51
  4338  0014F0  0100               	movlb	0	; () banked
  4339  0014F2  6FD7               	movwf	(changeStages@parameter2+1)& (0+255),b
  4340  0014F4  0E00               	movlw	0
  4341  0014F6  0100               	movlb	0	; () banked
  4342  0014F8  6FD9               	movwf	(changeStages@enemPos+1)& (0+255),b
  4343  0014FA  0E00               	movlw	0
  4344  0014FC  6FD8               	movwf	changeStages@enemPos& (0+255),b
  4345  0014FE  ECC3  F010         	call	_changeStages	;wreg free
  4346                           
  4347                           ;main.c: 375: _delay((unsigned long)((400)*(24000000ul/4000.0)));
  4348  001502  0E0D               	movlw	13
  4349  001504  6E31               	movwf	(??_juego2+1)& (0+255),c
  4350  001506  0E2D               	movlw	45
  4351  001508  6E30               	movwf	??_juego2& (0+255),c
  4352  00150A  0ED8               	movlw	216
  4353  00150C                     u4867:
  4354  00150C  2EE8               	decfsz	wreg,f,c
  4355  00150E  D7FE               	bra	u4867
  4356  001510  2E30               	decfsz	??_juego2& (0+255),f,c
  4357  001512  D7FC               	bra	u4867
  4358  001514  2E31               	decfsz	(??_juego2+1)& (0+255),f,c
  4359  001516  D7FA               	bra	u4867
  4360                           
  4361                           ;main.c: 377: changeStages("0         ","            ", 1);
  4362  001518  0E19               	movlw	low (STR_32+1)
  4363  00151A  0100               	movlb	0	; () banked
  4364  00151C  6FD4               	movwf	changeStages@parameter1& (0+255),b
  4365  00151E  0E7F               	movlw	high (STR_32+1)
  4366  001520  0100               	movlb	0	; () banked
  4367  001522  6FD5               	movwf	(changeStages@parameter1+1)& (0+255),b
  4368  001524  0EF1               	movlw	low STR_51
  4369  001526  0100               	movlb	0	; () banked
  4370  001528  6FD6               	movwf	changeStages@parameter2& (0+255),b
  4371  00152A  0E7E               	movlw	high STR_51
  4372  00152C  0100               	movlb	0	; () banked
  4373  00152E  6FD7               	movwf	(changeStages@parameter2+1)& (0+255),b
  4374  001530  0E00               	movlw	0
  4375  001532  0100               	movlb	0	; () banked
  4376  001534  6FD9               	movwf	(changeStages@enemPos+1)& (0+255),b
  4377  001536  0E01               	movlw	1
  4378  001538  6FD8               	movwf	changeStages@enemPos& (0+255),b
  4379  00153A  ECC3  F010         	call	_changeStages	;wreg free
  4380                           
  4381                           ;main.c: 378: _delay((unsigned long)((400)*(24000000ul/4000.0)));
  4382  00153E  0E0D               	movlw	13
  4383  001540  6E31               	movwf	(??_juego2+1)& (0+255),c
  4384  001542  0E2D               	movlw	45
  4385  001544  6E30               	movwf	??_juego2& (0+255),c
  4386  001546  0ED8               	movlw	216
  4387  001548                     u4877:
  4388  001548  2EE8               	decfsz	wreg,f,c
  4389  00154A  D7FE               	bra	u4877
  4390  00154C  2E30               	decfsz	??_juego2& (0+255),f,c
  4391  00154E  D7FC               	bra	u4877
  4392  001550  2E31               	decfsz	(??_juego2+1)& (0+255),f,c
  4393  001552  D7FA               	bra	u4877
  4394                           
  4395                           ;main.c: 380: changeStages("          ","            ", 0);
  4396  001554  0EF3               	movlw	low (STR_51+2)
  4397  001556  0100               	movlb	0	; () banked
  4398  001558  6FD4               	movwf	changeStages@parameter1& (0+255),b
  4399  00155A  0E7E               	movlw	high (STR_51+2)
  4400  00155C  0100               	movlb	0	; () banked
  4401  00155E  6FD5               	movwf	(changeStages@parameter1+1)& (0+255),b
  4402  001560  0EF1               	movlw	low STR_51
  4403  001562  0100               	movlb	0	; () banked
  4404  001564  6FD6               	movwf	changeStages@parameter2& (0+255),b
  4405  001566  0E7E               	movlw	high STR_51
  4406  001568  0100               	movlb	0	; () banked
  4407  00156A  6FD7               	movwf	(changeStages@parameter2+1)& (0+255),b
  4408  00156C  0E00               	movlw	0
  4409  00156E  0100               	movlb	0	; () banked
  4410  001570  6FD9               	movwf	(changeStages@enemPos+1)& (0+255),b
  4411  001572  0E00               	movlw	0
  4412  001574  6FD8               	movwf	changeStages@enemPos& (0+255),b
  4413  001576  ECC3  F010         	call	_changeStages	;wreg free
  4414  00157A  0012               	return		;funcret
  4415  00157C                     __end_of_juego2:
  4416                           	opt stack 0
  4417                           tblptru	equ	0xFF8
  4418                           tblptrh	equ	0xFF7
  4419                           tblptrl	equ	0xFF6
  4420                           tablat	equ	0xFF5
  4421                           intcon	equ	0xFF2
  4422                           postinc0	equ	0xFEE
  4423                           wreg	equ	0xFE8
  4424                           postdec1	equ	0xFE5
  4425                           fsr1l	equ	0xFE1
  4426                           status	equ	0xFD8
  4427                           
  4428 ;; *************** function _juego1 *****************
  4429 ;; Defined at:
  4430 ;;		line 197 in file "main.c"
  4431 ;; Parameters:    Size  Location     Type
  4432 ;;		None
  4433 ;; Auto vars:     Size  Location     Type
  4434 ;;  pos             2    0        int 
  4435 ;; Return value:  Size  Location     Type
  4436 ;;                  1    wreg      void 
  4437 ;; Registers used:
  4438 ;;		wreg, fsr0l, fsr0h, fsr2l, fsr2h, status,2, status,0, tblptrl, tblptrh, tblptru, prodl, prodh, cstack
  4439 ;; Tracked objects:
  4440 ;;		On entry : 0/0
  4441 ;;		On exit  : 0/0
  4442 ;;		Unchanged: 0/0
  4443 ;; Data sizes:     COMRAM   BANK0   BANK1   BANK2   BANK3   BANK4   BANK5   BANK6   BANK7
  4444 ;;      Params:         0       0       0       0       0       0       0       0       0
  4445 ;;      Locals:         0       0       0       0       0       0       0       0       0
  4446 ;;      Temps:          2       0       0       0       0       0       0       0       0
  4447 ;;      Totals:         2       0       0       0       0       0       0       0       0
  4448 ;;Total ram usage:        2 bytes
  4449 ;; Hardware stack levels used:    1
  4450 ;; Hardware stack levels required when called:    9
  4451 ;; This function calls:
  4452 ;;		_changeStages
  4453 ;; This function is called by:
  4454 ;;		_main
  4455 ;; This function uses a non-reentrant model
  4456 ;;
  4457                           
  4458                           	psect	text5
  4459  00157C                     __ptext5:
  4460                           	opt stack 0
  4461  00157C                     _juego1:
  4462                           	opt stack 21
  4463                           
  4464                           ;main.c: 198: int pos;
  4465                           ;main.c: 199: _delay((unsigned long)((550)*(24000000ul/4000.0)));
  4466                           
  4467                           ;incstack = 0
  4468  00157C  0E11               	movlw	17
  4469  00157E  6E31               	movwf	(??_juego1+1)& (0+255),c
  4470  001580  0EBE               	movlw	190
  4471  001582  6E30               	movwf	??_juego1& (0+255),c
  4472  001584  0EAA               	movlw	170
  4473  001586                     u4887:
  4474  001586  2EE8               	decfsz	wreg,f,c
  4475  001588  D7FE               	bra	u4887
  4476  00158A  2E30               	decfsz	??_juego1& (0+255),f,c
  4477  00158C  D7FC               	bra	u4887
  4478  00158E  2E31               	decfsz	(??_juego1+1)& (0+255),f,c
  4479  001590  D7FA               	bra	u4887
  4480                           
  4481                           ;main.c: 200: changeStages("          0","           ", 0);
  4482  001592  0ED8               	movlw	low STR_4
  4483  001594  0100               	movlb	0	; () banked
  4484  001596  6FD4               	movwf	changeStages@parameter1& (0+255),b
  4485  001598  0E7F               	movlw	high STR_4
  4486  00159A  0100               	movlb	0	; () banked
  4487  00159C  6FD5               	movwf	(changeStages@parameter1+1)& (0+255),b
  4488  00159E  0EF2               	movlw	low (STR_51+1)
  4489  0015A0  0100               	movlb	0	; () banked
  4490  0015A2  6FD6               	movwf	changeStages@parameter2& (0+255),b
  4491  0015A4  0E7E               	movlw	high (STR_51+1)
  4492  0015A6  0100               	movlb	0	; () banked
  4493  0015A8  6FD7               	movwf	(changeStages@parameter2+1)& (0+255),b
  4494  0015AA  0E00               	movlw	0
  4495  0015AC  0100               	movlb	0	; () banked
  4496  0015AE  6FD9               	movwf	(changeStages@enemPos+1)& (0+255),b
  4497  0015B0  0E00               	movlw	0
  4498  0015B2  6FD8               	movwf	changeStages@enemPos& (0+255),b
  4499  0015B4  ECC3  F010         	call	_changeStages	;wreg free
  4500                           
  4501                           ;main.c: 202: _delay((unsigned long)((550)*(24000000ul/4000.0)));
  4502  0015B8  0E11               	movlw	17
  4503  0015BA  6E31               	movwf	(??_juego1+1)& (0+255),c
  4504  0015BC  0EBE               	movlw	190
  4505  0015BE  6E30               	movwf	??_juego1& (0+255),c
  4506  0015C0  0EAA               	movlw	170
  4507  0015C2                     u4897:
  4508  0015C2  2EE8               	decfsz	wreg,f,c
  4509  0015C4  D7FE               	bra	u4897
  4510  0015C6  2E30               	decfsz	??_juego1& (0+255),f,c
  4511  0015C8  D7FC               	bra	u4897
  4512  0015CA  2E31               	decfsz	(??_juego1+1)& (0+255),f,c
  4513  0015CC  D7FA               	bra	u4897
  4514                           
  4515                           ;main.c: 203: changeStages("         0 ","           ", 0);
  4516  0015CE  0EB4               	movlw	low STR_6
  4517  0015D0  0100               	movlb	0	; () banked
  4518  0015D2  6FD4               	movwf	changeStages@parameter1& (0+255),b
  4519  0015D4  0E7F               	movlw	high STR_6
  4520  0015D6  0100               	movlb	0	; () banked
  4521  0015D8  6FD5               	movwf	(changeStages@parameter1+1)& (0+255),b
  4522  0015DA  0EF2               	movlw	low (STR_51+1)
  4523  0015DC  0100               	movlb	0	; () banked
  4524  0015DE  6FD6               	movwf	changeStages@parameter2& (0+255),b
  4525  0015E0  0E7E               	movlw	high (STR_51+1)
  4526  0015E2  0100               	movlb	0	; () banked
  4527  0015E4  6FD7               	movwf	(changeStages@parameter2+1)& (0+255),b
  4528  0015E6  0E00               	movlw	0
  4529  0015E8  0100               	movlb	0	; () banked
  4530  0015EA  6FD9               	movwf	(changeStages@enemPos+1)& (0+255),b
  4531  0015EC  0E00               	movlw	0
  4532  0015EE  6FD8               	movwf	changeStages@enemPos& (0+255),b
  4533  0015F0  ECC3  F010         	call	_changeStages	;wreg free
  4534                           
  4535                           ;main.c: 204: _delay((unsigned long)((550)*(24000000ul/4000.0)));
  4536  0015F4  0E11               	movlw	17
  4537  0015F6  6E31               	movwf	(??_juego1+1)& (0+255),c
  4538  0015F8  0EBE               	movlw	190
  4539  0015FA  6E30               	movwf	??_juego1& (0+255),c
  4540  0015FC  0EAA               	movlw	170
  4541  0015FE                     u4907:
  4542  0015FE  2EE8               	decfsz	wreg,f,c
  4543  001600  D7FE               	bra	u4907
  4544  001602  2E30               	decfsz	??_juego1& (0+255),f,c
  4545  001604  D7FC               	bra	u4907
  4546  001606  2E31               	decfsz	(??_juego1+1)& (0+255),f,c
  4547  001608  D7FA               	bra	u4907
  4548                           
  4549                           ;main.c: 206: changeStages("        0  ","           ", 0);
  4550  00160A  0E90               	movlw	low STR_8
  4551  00160C  0100               	movlb	0	; () banked
  4552  00160E  6FD4               	movwf	changeStages@parameter1& (0+255),b
  4553  001610  0E7F               	movlw	high STR_8
  4554  001612  0100               	movlb	0	; () banked
  4555  001614  6FD5               	movwf	(changeStages@parameter1+1)& (0+255),b
  4556  001616  0EF2               	movlw	low (STR_51+1)
  4557  001618  0100               	movlb	0	; () banked
  4558  00161A  6FD6               	movwf	changeStages@parameter2& (0+255),b
  4559  00161C  0E7E               	movlw	high (STR_51+1)
  4560  00161E  0100               	movlb	0	; () banked
  4561  001620  6FD7               	movwf	(changeStages@parameter2+1)& (0+255),b
  4562  001622  0E00               	movlw	0
  4563  001624  0100               	movlb	0	; () banked
  4564  001626  6FD9               	movwf	(changeStages@enemPos+1)& (0+255),b
  4565  001628  0E00               	movlw	0
  4566  00162A  6FD8               	movwf	changeStages@enemPos& (0+255),b
  4567  00162C  ECC3  F010         	call	_changeStages	;wreg free
  4568                           
  4569                           ;main.c: 207: _delay((unsigned long)((550)*(24000000ul/4000.0)));
  4570  001630  0E11               	movlw	17
  4571  001632  6E31               	movwf	(??_juego1+1)& (0+255),c
  4572  001634  0EBE               	movlw	190
  4573  001636  6E30               	movwf	??_juego1& (0+255),c
  4574  001638  0EAA               	movlw	170
  4575  00163A                     u4917:
  4576  00163A  2EE8               	decfsz	wreg,f,c
  4577  00163C  D7FE               	bra	u4917
  4578  00163E  2E30               	decfsz	??_juego1& (0+255),f,c
  4579  001640  D7FC               	bra	u4917
  4580  001642  2E31               	decfsz	(??_juego1+1)& (0+255),f,c
  4581  001644  D7FA               	bra	u4917
  4582                           
  4583                           ;main.c: 209: changeStages("       0   ","          0", 0);
  4584  001646  0E78               	movlw	low STR_10
  4585  001648  0100               	movlb	0	; () banked
  4586  00164A  6FD4               	movwf	changeStages@parameter1& (0+255),b
  4587  00164C  0E7F               	movlw	high STR_10
  4588  00164E  0100               	movlb	0	; () banked
  4589  001650  6FD5               	movwf	(changeStages@parameter1+1)& (0+255),b
  4590  001652  0ED8               	movlw	low STR_4
  4591  001654  0100               	movlb	0	; () banked
  4592  001656  6FD6               	movwf	changeStages@parameter2& (0+255),b
  4593  001658  0E7F               	movlw	high STR_4
  4594  00165A  0100               	movlb	0	; () banked
  4595  00165C  6FD7               	movwf	(changeStages@parameter2+1)& (0+255),b
  4596  00165E  0E00               	movlw	0
  4597  001660  0100               	movlb	0	; () banked
  4598  001662  6FD9               	movwf	(changeStages@enemPos+1)& (0+255),b
  4599  001664  0E00               	movlw	0
  4600  001666  6FD8               	movwf	changeStages@enemPos& (0+255),b
  4601  001668  ECC3  F010         	call	_changeStages	;wreg free
  4602                           
  4603                           ;main.c: 210: _delay((unsigned long)((550)*(24000000ul/4000.0)));
  4604  00166C  0E11               	movlw	17
  4605  00166E  6E31               	movwf	(??_juego1+1)& (0+255),c
  4606  001670  0EBE               	movlw	190
  4607  001672  6E30               	movwf	??_juego1& (0+255),c
  4608  001674  0EAA               	movlw	170
  4609  001676                     u4927:
  4610  001676  2EE8               	decfsz	wreg,f,c
  4611  001678  D7FE               	bra	u4927
  4612  00167A  2E30               	decfsz	??_juego1& (0+255),f,c
  4613  00167C  D7FC               	bra	u4927
  4614  00167E  2E31               	decfsz	(??_juego1+1)& (0+255),f,c
  4615  001680  D7FA               	bra	u4927
  4616                           
  4617                           ;main.c: 212: changeStages("      0    ","         0 ", 0);
  4618  001682  0E60               	movlw	low STR_12
  4619  001684  0100               	movlb	0	; () banked
  4620  001686  6FD4               	movwf	changeStages@parameter1& (0+255),b
  4621  001688  0E7F               	movlw	high STR_12
  4622  00168A  0100               	movlb	0	; () banked
  4623  00168C  6FD5               	movwf	(changeStages@parameter1+1)& (0+255),b
  4624  00168E  0EB4               	movlw	low STR_6
  4625  001690  0100               	movlb	0	; () banked
  4626  001692  6FD6               	movwf	changeStages@parameter2& (0+255),b
  4627  001694  0E7F               	movlw	high STR_6
  4628  001696  0100               	movlb	0	; () banked
  4629  001698  6FD7               	movwf	(changeStages@parameter2+1)& (0+255),b
  4630  00169A  0E00               	movlw	0
  4631  00169C  0100               	movlb	0	; () banked
  4632  00169E  6FD9               	movwf	(changeStages@enemPos+1)& (0+255),b
  4633  0016A0  0E00               	movlw	0
  4634  0016A2  6FD8               	movwf	changeStages@enemPos& (0+255),b
  4635  0016A4  ECC3  F010         	call	_changeStages	;wreg free
  4636                           
  4637                           ;main.c: 213: _delay((unsigned long)((550)*(24000000ul/4000.0)));
  4638  0016A8  0E11               	movlw	17
  4639  0016AA  6E31               	movwf	(??_juego1+1)& (0+255),c
  4640  0016AC  0EBE               	movlw	190
  4641  0016AE  6E30               	movwf	??_juego1& (0+255),c
  4642  0016B0  0EAA               	movlw	170
  4643  0016B2                     u4937:
  4644  0016B2  2EE8               	decfsz	wreg,f,c
  4645  0016B4  D7FE               	bra	u4937
  4646  0016B6  2E30               	decfsz	??_juego1& (0+255),f,c
  4647  0016B8  D7FC               	bra	u4937
  4648  0016BA  2E31               	decfsz	(??_juego1+1)& (0+255),f,c
  4649  0016BC  D7FA               	bra	u4937
  4650                           
  4651                           ;main.c: 215: changeStages("     0    0","        0  ", 0);
  4652  0016BE  0EF0               	movlw	low STR_14
  4653  0016C0  0100               	movlb	0	; () banked
  4654  0016C2  6FD4               	movwf	changeStages@parameter1& (0+255),b
  4655  0016C4  0E7F               	movlw	high STR_14
  4656  0016C6  0100               	movlb	0	; () banked
  4657  0016C8  6FD5               	movwf	(changeStages@parameter1+1)& (0+255),b
  4658  0016CA  0E90               	movlw	low STR_8
  4659  0016CC  0100               	movlb	0	; () banked
  4660  0016CE  6FD6               	movwf	changeStages@parameter2& (0+255),b
  4661  0016D0  0E7F               	movlw	high STR_8
  4662  0016D2  0100               	movlb	0	; () banked
  4663  0016D4  6FD7               	movwf	(changeStages@parameter2+1)& (0+255),b
  4664  0016D6  0E00               	movlw	0
  4665  0016D8  0100               	movlb	0	; () banked
  4666  0016DA  6FD9               	movwf	(changeStages@enemPos+1)& (0+255),b
  4667  0016DC  0E00               	movlw	0
  4668  0016DE  6FD8               	movwf	changeStages@enemPos& (0+255),b
  4669  0016E0  ECC3  F010         	call	_changeStages	;wreg free
  4670                           
  4671                           ;main.c: 216: _delay((unsigned long)((550)*(24000000ul/4000.0)));
  4672  0016E4  0E11               	movlw	17
  4673  0016E6  6E31               	movwf	(??_juego1+1)& (0+255),c
  4674  0016E8  0EBE               	movlw	190
  4675  0016EA  6E30               	movwf	??_juego1& (0+255),c
  4676  0016EC  0EAA               	movlw	170
  4677  0016EE                     u4947:
  4678  0016EE  2EE8               	decfsz	wreg,f,c
  4679  0016F0  D7FE               	bra	u4947
  4680  0016F2  2E30               	decfsz	??_juego1& (0+255),f,c
  4681  0016F4  D7FC               	bra	u4947
  4682  0016F6  2E31               	decfsz	(??_juego1+1)& (0+255),f,c
  4683  0016F8  D7FA               	bra	u4947
  4684                           
  4685                           ;main.c: 218: changeStages("    0    0 ","       0   ", 0);
  4686  0016FA  0ECC               	movlw	low STR_16
  4687  0016FC  0100               	movlb	0	; () banked
  4688  0016FE  6FD4               	movwf	changeStages@parameter1& (0+255),b
  4689  001700  0E7F               	movlw	high STR_16
  4690  001702  0100               	movlb	0	; () banked
  4691  001704  6FD5               	movwf	(changeStages@parameter1+1)& (0+255),b
  4692  001706  0E78               	movlw	low STR_10
  4693  001708  0100               	movlb	0	; () banked
  4694  00170A  6FD6               	movwf	changeStages@parameter2& (0+255),b
  4695  00170C  0E7F               	movlw	high STR_10
  4696  00170E  0100               	movlb	0	; () banked
  4697  001710  6FD7               	movwf	(changeStages@parameter2+1)& (0+255),b
  4698  001712  0E00               	movlw	0
  4699  001714  0100               	movlb	0	; () banked
  4700  001716  6FD9               	movwf	(changeStages@enemPos+1)& (0+255),b
  4701  001718  0E00               	movlw	0
  4702  00171A  6FD8               	movwf	changeStages@enemPos& (0+255),b
  4703  00171C  ECC3  F010         	call	_changeStages	;wreg free
  4704                           
  4705                           ;main.c: 219: _delay((unsigned long)((550)*(24000000ul/4000.0)));
  4706  001720  0E11               	movlw	17
  4707  001722  6E31               	movwf	(??_juego1+1)& (0+255),c
  4708  001724  0EBE               	movlw	190
  4709  001726  6E30               	movwf	??_juego1& (0+255),c
  4710  001728  0EAA               	movlw	170
  4711  00172A                     u4957:
  4712  00172A  2EE8               	decfsz	wreg,f,c
  4713  00172C  D7FE               	bra	u4957
  4714  00172E  2E30               	decfsz	??_juego1& (0+255),f,c
  4715  001730  D7FC               	bra	u4957
  4716  001732  2E31               	decfsz	(??_juego1+1)& (0+255),f,c
  4717  001734  D7FA               	bra	u4957
  4718                           
  4719                           ;main.c: 221: changeStages("   0    0  ","      0    ", 0);
  4720  001736  0EA8               	movlw	low STR_18
  4721  001738  0100               	movlb	0	; () banked
  4722  00173A  6FD4               	movwf	changeStages@parameter1& (0+255),b
  4723  00173C  0E7F               	movlw	high STR_18
  4724  00173E  0100               	movlb	0	; () banked
  4725  001740  6FD5               	movwf	(changeStages@parameter1+1)& (0+255),b
  4726  001742  0E60               	movlw	low STR_12
  4727  001744  0100               	movlb	0	; () banked
  4728  001746  6FD6               	movwf	changeStages@parameter2& (0+255),b
  4729  001748  0E7F               	movlw	high STR_12
  4730  00174A  0100               	movlb	0	; () banked
  4731  00174C  6FD7               	movwf	(changeStages@parameter2+1)& (0+255),b
  4732  00174E  0E00               	movlw	0
  4733  001750  0100               	movlb	0	; () banked
  4734  001752  6FD9               	movwf	(changeStages@enemPos+1)& (0+255),b
  4735  001754  0E00               	movlw	0
  4736  001756  6FD8               	movwf	changeStages@enemPos& (0+255),b
  4737  001758  ECC3  F010         	call	_changeStages	;wreg free
  4738                           
  4739                           ;main.c: 222: _delay((unsigned long)((550)*(24000000ul/4000.0)));
  4740  00175C  0E11               	movlw	17
  4741  00175E  6E31               	movwf	(??_juego1+1)& (0+255),c
  4742  001760  0EBE               	movlw	190
  4743  001762  6E30               	movwf	??_juego1& (0+255),c
  4744  001764  0EAA               	movlw	170
  4745  001766                     u4967:
  4746  001766  2EE8               	decfsz	wreg,f,c
  4747  001768  D7FE               	bra	u4967
  4748  00176A  2E30               	decfsz	??_juego1& (0+255),f,c
  4749  00176C  D7FC               	bra	u4967
  4750  00176E  2E31               	decfsz	(??_juego1+1)& (0+255),f,c
  4751  001770  D7FA               	bra	u4967
  4752                           
  4753                           ;main.c: 224: changeStages("  0    0   ","     0     ", 0);
  4754  001772  0E84               	movlw	low STR_20
  4755  001774  0100               	movlb	0	; () banked
  4756  001776  6FD4               	movwf	changeStages@parameter1& (0+255),b
  4757  001778  0E7F               	movlw	high STR_20
  4758  00177A  0100               	movlb	0	; () banked
  4759  00177C  6FD5               	movwf	(changeStages@parameter1+1)& (0+255),b
  4760  00177E  0E48               	movlw	low STR_21
  4761  001780  0100               	movlb	0	; () banked
  4762  001782  6FD6               	movwf	changeStages@parameter2& (0+255),b
  4763  001784  0E7F               	movlw	high STR_21
  4764  001786  0100               	movlb	0	; () banked
  4765  001788  6FD7               	movwf	(changeStages@parameter2+1)& (0+255),b
  4766  00178A  0E00               	movlw	0
  4767  00178C  0100               	movlb	0	; () banked
  4768  00178E  6FD9               	movwf	(changeStages@enemPos+1)& (0+255),b
  4769  001790  0E00               	movlw	0
  4770  001792  6FD8               	movwf	changeStages@enemPos& (0+255),b
  4771  001794  ECC3  F010         	call	_changeStages	;wreg free
  4772                           
  4773                           ;main.c: 225: _delay((unsigned long)((550)*(24000000ul/4000.0)));
  4774  001798  0E11               	movlw	17
  4775  00179A  6E31               	movwf	(??_juego1+1)& (0+255),c
  4776  00179C  0EBE               	movlw	190
  4777  00179E  6E30               	movwf	??_juego1& (0+255),c
  4778  0017A0  0EAA               	movlw	170
  4779  0017A2                     u4977:
  4780  0017A2  2EE8               	decfsz	wreg,f,c
  4781  0017A4  D7FE               	bra	u4977
  4782  0017A6  2E30               	decfsz	??_juego1& (0+255),f,c
  4783  0017A8  D7FC               	bra	u4977
  4784  0017AA  2E31               	decfsz	(??_juego1+1)& (0+255),f,c
  4785  0017AC  D7FA               	bra	u4977
  4786                           
  4787                           ;main.c: 227: changeStages(" 0    0    ","    0      ", 0);
  4788  0017AE  0E6C               	movlw	low STR_22
  4789  0017B0  0100               	movlb	0	; () banked
  4790  0017B2  6FD4               	movwf	changeStages@parameter1& (0+255),b
  4791  0017B4  0E7F               	movlw	high STR_22
  4792  0017B6  0100               	movlb	0	; () banked
  4793  0017B8  6FD5               	movwf	(changeStages@parameter1+1)& (0+255),b
  4794  0017BA  0E3C               	movlw	low STR_23
  4795  0017BC  0100               	movlb	0	; () banked
  4796  0017BE  6FD6               	movwf	changeStages@parameter2& (0+255),b
  4797  0017C0  0E7F               	movlw	high STR_23
  4798  0017C2  0100               	movlb	0	; () banked
  4799  0017C4  6FD7               	movwf	(changeStages@parameter2+1)& (0+255),b
  4800  0017C6  0E00               	movlw	0
  4801  0017C8  0100               	movlb	0	; () banked
  4802  0017CA  6FD9               	movwf	(changeStages@enemPos+1)& (0+255),b
  4803  0017CC  0E00               	movlw	0
  4804  0017CE  6FD8               	movwf	changeStages@enemPos& (0+255),b
  4805  0017D0  ECC3  F010         	call	_changeStages	;wreg free
  4806                           
  4807                           ;main.c: 228: _delay((unsigned long)((550)*(24000000ul/4000.0)));
  4808  0017D4  0E11               	movlw	17
  4809  0017D6  6E31               	movwf	(??_juego1+1)& (0+255),c
  4810  0017D8  0EBE               	movlw	190
  4811  0017DA  6E30               	movwf	??_juego1& (0+255),c
  4812  0017DC  0EAA               	movlw	170
  4813  0017DE                     u4987:
  4814  0017DE  2EE8               	decfsz	wreg,f,c
  4815  0017E0  D7FE               	bra	u4987
  4816  0017E2  2E30               	decfsz	??_juego1& (0+255),f,c
  4817  0017E4  D7FC               	bra	u4987
  4818  0017E6  2E31               	decfsz	(??_juego1+1)& (0+255),f,c
  4819  0017E8  D7FA               	bra	u4987
  4820                           
  4821                           ;main.c: 230: changeStages("0    0     ","   0       ", 1);
  4822  0017EA  0E54               	movlw	low STR_24
  4823  0017EC  0100               	movlb	0	; () banked
  4824  0017EE  6FD4               	movwf	changeStages@parameter1& (0+255),b
  4825  0017F0  0E7F               	movlw	high STR_24
  4826  0017F2  0100               	movlb	0	; () banked
  4827  0017F4  6FD5               	movwf	(changeStages@parameter1+1)& (0+255),b
  4828  0017F6  0E30               	movlw	low STR_25
  4829  0017F8  0100               	movlb	0	; () banked
  4830  0017FA  6FD6               	movwf	changeStages@parameter2& (0+255),b
  4831  0017FC  0E7F               	movlw	high STR_25
  4832  0017FE  0100               	movlb	0	; () banked
  4833  001800  6FD7               	movwf	(changeStages@parameter2+1)& (0+255),b
  4834  001802  0E00               	movlw	0
  4835  001804  0100               	movlb	0	; () banked
  4836  001806  6FD9               	movwf	(changeStages@enemPos+1)& (0+255),b
  4837  001808  0E01               	movlw	1
  4838  00180A  6FD8               	movwf	changeStages@enemPos& (0+255),b
  4839  00180C  ECC3  F010         	call	_changeStages	;wreg free
  4840                           
  4841                           ;main.c: 231: _delay((unsigned long)((550)*(24000000ul/4000.0)));
  4842  001810  0E11               	movlw	17
  4843  001812  6E31               	movwf	(??_juego1+1)& (0+255),c
  4844  001814  0EBE               	movlw	190
  4845  001816  6E30               	movwf	??_juego1& (0+255),c
  4846  001818  0EAA               	movlw	170
  4847  00181A                     u4997:
  4848  00181A  2EE8               	decfsz	wreg,f,c
  4849  00181C  D7FE               	bra	u4997
  4850  00181E  2E30               	decfsz	??_juego1& (0+255),f,c
  4851  001820  D7FC               	bra	u4997
  4852  001822  2E31               	decfsz	(??_juego1+1)& (0+255),f,c
  4853  001824  D7FA               	bra	u4997
  4854                           
  4855                           ;main.c: 233: changeStages("    0      ","  0       0", 0);
  4856  001826  0E3C               	movlw	low STR_23
  4857  001828  0100               	movlb	0	; () banked
  4858  00182A  6FD4               	movwf	changeStages@parameter1& (0+255),b
  4859  00182C  0E7F               	movlw	high STR_23
  4860  00182E  0100               	movlb	0	; () banked
  4861  001830  6FD5               	movwf	(changeStages@parameter1+1)& (0+255),b
  4862  001832  0EE4               	movlw	low STR_27
  4863  001834  0100               	movlb	0	; () banked
  4864  001836  6FD6               	movwf	changeStages@parameter2& (0+255),b
  4865  001838  0E7F               	movlw	high STR_27
  4866  00183A  0100               	movlb	0	; () banked
  4867  00183C  6FD7               	movwf	(changeStages@parameter2+1)& (0+255),b
  4868  00183E  0E00               	movlw	0
  4869  001840  0100               	movlb	0	; () banked
  4870  001842  6FD9               	movwf	(changeStages@enemPos+1)& (0+255),b
  4871  001844  0E00               	movlw	0
  4872  001846  6FD8               	movwf	changeStages@enemPos& (0+255),b
  4873  001848  ECC3  F010         	call	_changeStages	;wreg free
  4874                           
  4875                           ;main.c: 234: _delay((unsigned long)((550)*(24000000ul/4000.0)));
  4876  00184C  0E11               	movlw	17
  4877  00184E  6E31               	movwf	(??_juego1+1)& (0+255),c
  4878  001850  0EBE               	movlw	190
  4879  001852  6E30               	movwf	??_juego1& (0+255),c
  4880  001854  0EAA               	movlw	170
  4881  001856                     u5007:
  4882  001856  2EE8               	decfsz	wreg,f,c
  4883  001858  D7FE               	bra	u5007
  4884  00185A  2E30               	decfsz	??_juego1& (0+255),f,c
  4885  00185C  D7FC               	bra	u5007
  4886  00185E  2E31               	decfsz	(??_juego1+1)& (0+255),f,c
  4887  001860  D7FA               	bra	u5007
  4888                           
  4889                           ;main.c: 236: changeStages("   0       "," 0       0 ", 0);
  4890  001862  0E30               	movlw	low STR_25
  4891  001864  0100               	movlb	0	; () banked
  4892  001866  6FD4               	movwf	changeStages@parameter1& (0+255),b
  4893  001868  0E7F               	movlw	high STR_25
  4894  00186A  0100               	movlb	0	; () banked
  4895  00186C  6FD5               	movwf	(changeStages@parameter1+1)& (0+255),b
  4896  00186E  0EC0               	movlw	low STR_29
  4897  001870  0100               	movlb	0	; () banked
  4898  001872  6FD6               	movwf	changeStages@parameter2& (0+255),b
  4899  001874  0E7F               	movlw	high STR_29
  4900  001876  0100               	movlb	0	; () banked
  4901  001878  6FD7               	movwf	(changeStages@parameter2+1)& (0+255),b
  4902  00187A  0E00               	movlw	0
  4903  00187C  0100               	movlb	0	; () banked
  4904  00187E  6FD9               	movwf	(changeStages@enemPos+1)& (0+255),b
  4905  001880  0E00               	movlw	0
  4906  001882  6FD8               	movwf	changeStages@enemPos& (0+255),b
  4907  001884  ECC3  F010         	call	_changeStages	;wreg free
  4908                           
  4909                           ;main.c: 237: _delay((unsigned long)((550)*(24000000ul/4000.0)));
  4910  001888  0E11               	movlw	17
  4911  00188A  6E31               	movwf	(??_juego1+1)& (0+255),c
  4912  00188C  0EBE               	movlw	190
  4913  00188E  6E30               	movwf	??_juego1& (0+255),c
  4914  001890  0EAA               	movlw	170
  4915  001892                     u5017:
  4916  001892  2EE8               	decfsz	wreg,f,c
  4917  001894  D7FE               	bra	u5017
  4918  001896  2E30               	decfsz	??_juego1& (0+255),f,c
  4919  001898  D7FC               	bra	u5017
  4920  00189A  2E31               	decfsz	(??_juego1+1)& (0+255),f,c
  4921  00189C  D7FA               	bra	u5017
  4922                           
  4923                           ;main.c: 239: changeStages("  0        ","0       0  ", 2);
  4924  00189E  0E24               	movlw	low STR_30
  4925  0018A0  0100               	movlb	0	; () banked
  4926  0018A2  6FD4               	movwf	changeStages@parameter1& (0+255),b
  4927  0018A4  0E7F               	movlw	high STR_30
  4928  0018A6  0100               	movlb	0	; () banked
  4929  0018A8  6FD5               	movwf	(changeStages@parameter1+1)& (0+255),b
  4930  0018AA  0E9C               	movlw	low STR_31
  4931  0018AC  0100               	movlb	0	; () banked
  4932  0018AE  6FD6               	movwf	changeStages@parameter2& (0+255),b
  4933  0018B0  0E7F               	movlw	high STR_31
  4934  0018B2  0100               	movlb	0	; () banked
  4935  0018B4  6FD7               	movwf	(changeStages@parameter2+1)& (0+255),b
  4936  0018B6  0E00               	movlw	0
  4937  0018B8  0100               	movlb	0	; () banked
  4938  0018BA  6FD9               	movwf	(changeStages@enemPos+1)& (0+255),b
  4939  0018BC  0E02               	movlw	2
  4940  0018BE  6FD8               	movwf	changeStages@enemPos& (0+255),b
  4941  0018C0  ECC3  F010         	call	_changeStages	;wreg free
  4942                           
  4943                           ;main.c: 240: _delay((unsigned long)((550)*(24000000ul/4000.0)));
  4944  0018C4  0E11               	movlw	17
  4945  0018C6  6E31               	movwf	(??_juego1+1)& (0+255),c
  4946  0018C8  0EBE               	movlw	190
  4947  0018CA  6E30               	movwf	??_juego1& (0+255),c
  4948  0018CC  0EAA               	movlw	170
  4949  0018CE                     u5027:
  4950  0018CE  2EE8               	decfsz	wreg,f,c
  4951  0018D0  D7FE               	bra	u5027
  4952  0018D2  2E30               	decfsz	??_juego1& (0+255),f,c
  4953  0018D4  D7FC               	bra	u5027
  4954  0018D6  2E31               	decfsz	(??_juego1+1)& (0+255),f,c
  4955  0018D8  D7FA               	bra	u5027
  4956                           
  4957                           ;main.c: 242: changeStages(" 0         ","       0   ", 0);
  4958  0018DA  0E18               	movlw	low STR_32
  4959  0018DC  0100               	movlb	0	; () banked
  4960  0018DE  6FD4               	movwf	changeStages@parameter1& (0+255),b
  4961  0018E0  0E7F               	movlw	high STR_32
  4962  0018E2  0100               	movlb	0	; () banked
  4963  0018E4  6FD5               	movwf	(changeStages@parameter1+1)& (0+255),b
  4964  0018E6  0E78               	movlw	low STR_10
  4965  0018E8  0100               	movlb	0	; () banked
  4966  0018EA  6FD6               	movwf	changeStages@parameter2& (0+255),b
  4967  0018EC  0E7F               	movlw	high STR_10
  4968  0018EE  0100               	movlb	0	; () banked
  4969  0018F0  6FD7               	movwf	(changeStages@parameter2+1)& (0+255),b
  4970  0018F2  0E00               	movlw	0
  4971  0018F4  0100               	movlb	0	; () banked
  4972  0018F6  6FD9               	movwf	(changeStages@enemPos+1)& (0+255),b
  4973  0018F8  0E00               	movlw	0
  4974  0018FA  6FD8               	movwf	changeStages@enemPos& (0+255),b
  4975  0018FC  ECC3  F010         	call	_changeStages	;wreg free
  4976                           
  4977                           ;main.c: 243: _delay((unsigned long)((550)*(24000000ul/4000.0)));
  4978  001900  0E11               	movlw	17
  4979  001902  6E31               	movwf	(??_juego1+1)& (0+255),c
  4980  001904  0EBE               	movlw	190
  4981  001906  6E30               	movwf	??_juego1& (0+255),c
  4982  001908  0EAA               	movlw	170
  4983  00190A                     u5037:
  4984  00190A  2EE8               	decfsz	wreg,f,c
  4985  00190C  D7FE               	bra	u5037
  4986  00190E  2E30               	decfsz	??_juego1& (0+255),f,c
  4987  001910  D7FC               	bra	u5037
  4988  001912  2E31               	decfsz	(??_juego1+1)& (0+255),f,c
  4989  001914  D7FA               	bra	u5037
  4990                           
  4991                           ;main.c: 245: changeStages("0          ","      0    ", 1);
  4992  001916  0E0C               	movlw	low (STR_47+1)
  4993  001918  0100               	movlb	0	; () banked
  4994  00191A  6FD4               	movwf	changeStages@parameter1& (0+255),b
  4995  00191C  0E7F               	movlw	high (STR_47+1)
  4996  00191E  0100               	movlb	0	; () banked
  4997  001920  6FD5               	movwf	(changeStages@parameter1+1)& (0+255),b
  4998  001922  0E60               	movlw	low STR_12
  4999  001924  0100               	movlb	0	; () banked
  5000  001926  6FD6               	movwf	changeStages@parameter2& (0+255),b
  5001  001928  0E7F               	movlw	high STR_12
  5002  00192A  0100               	movlb	0	; () banked
  5003  00192C  6FD7               	movwf	(changeStages@parameter2+1)& (0+255),b
  5004  00192E  0E00               	movlw	0
  5005  001930  0100               	movlb	0	; () banked
  5006  001932  6FD9               	movwf	(changeStages@enemPos+1)& (0+255),b
  5007  001934  0E01               	movlw	1
  5008  001936  6FD8               	movwf	changeStages@enemPos& (0+255),b
  5009  001938  ECC3  F010         	call	_changeStages	;wreg free
  5010                           
  5011                           ;main.c: 246: _delay((unsigned long)((550)*(24000000ul/4000.0)));
  5012  00193C  0E11               	movlw	17
  5013  00193E  6E31               	movwf	(??_juego1+1)& (0+255),c
  5014  001940  0EBE               	movlw	190
  5015  001942  6E30               	movwf	??_juego1& (0+255),c
  5016  001944  0EAA               	movlw	170
  5017  001946                     u5047:
  5018  001946  2EE8               	decfsz	wreg,f,c
  5019  001948  D7FE               	bra	u5047
  5020  00194A  2E30               	decfsz	??_juego1& (0+255),f,c
  5021  00194C  D7FC               	bra	u5047
  5022  00194E  2E31               	decfsz	(??_juego1+1)& (0+255),f,c
  5023  001950  D7FA               	bra	u5047
  5024                           
  5025                           ;main.c: 248: changeStages("           ","     0     ", 0);
  5026  001952  0EF2               	movlw	low (STR_51+1)
  5027  001954  0100               	movlb	0	; () banked
  5028  001956  6FD4               	movwf	changeStages@parameter1& (0+255),b
  5029  001958  0E7E               	movlw	high (STR_51+1)
  5030  00195A  0100               	movlb	0	; () banked
  5031  00195C  6FD5               	movwf	(changeStages@parameter1+1)& (0+255),b
  5032  00195E  0E48               	movlw	low STR_21
  5033  001960  0100               	movlb	0	; () banked
  5034  001962  6FD6               	movwf	changeStages@parameter2& (0+255),b
  5035  001964  0E7F               	movlw	high STR_21
  5036  001966  0100               	movlb	0	; () banked
  5037  001968  6FD7               	movwf	(changeStages@parameter2+1)& (0+255),b
  5038  00196A  0E00               	movlw	0
  5039  00196C  0100               	movlb	0	; () banked
  5040  00196E  6FD9               	movwf	(changeStages@enemPos+1)& (0+255),b
  5041  001970  0E00               	movlw	0
  5042  001972  6FD8               	movwf	changeStages@enemPos& (0+255),b
  5043  001974  ECC3  F010         	call	_changeStages	;wreg free
  5044                           
  5045                           ;main.c: 249: _delay((unsigned long)((550)*(24000000ul/4000.0)));
  5046  001978  0E11               	movlw	17
  5047  00197A  6E31               	movwf	(??_juego1+1)& (0+255),c
  5048  00197C  0EBE               	movlw	190
  5049  00197E  6E30               	movwf	??_juego1& (0+255),c
  5050  001980  0EAA               	movlw	170
  5051  001982                     u5057:
  5052  001982  2EE8               	decfsz	wreg,f,c
  5053  001984  D7FE               	bra	u5057
  5054  001986  2E30               	decfsz	??_juego1& (0+255),f,c
  5055  001988  D7FC               	bra	u5057
  5056  00198A  2E31               	decfsz	(??_juego1+1)& (0+255),f,c
  5057  00198C  D7FA               	bra	u5057
  5058                           
  5059                           ;main.c: 251: changeStages("           ","    0      ", 0);
  5060  00198E  0EF2               	movlw	low (STR_51+1)
  5061  001990  0100               	movlb	0	; () banked
  5062  001992  6FD4               	movwf	changeStages@parameter1& (0+255),b
  5063  001994  0E7E               	movlw	high (STR_51+1)
  5064  001996  0100               	movlb	0	; () banked
  5065  001998  6FD5               	movwf	(changeStages@parameter1+1)& (0+255),b
  5066  00199A  0E3C               	movlw	low STR_23
  5067  00199C  0100               	movlb	0	; () banked
  5068  00199E  6FD6               	movwf	changeStages@parameter2& (0+255),b
  5069  0019A0  0E7F               	movlw	high STR_23
  5070  0019A2  0100               	movlb	0	; () banked
  5071  0019A4  6FD7               	movwf	(changeStages@parameter2+1)& (0+255),b
  5072  0019A6  0E00               	movlw	0
  5073  0019A8  0100               	movlb	0	; () banked
  5074  0019AA  6FD9               	movwf	(changeStages@enemPos+1)& (0+255),b
  5075  0019AC  0E00               	movlw	0
  5076  0019AE  6FD8               	movwf	changeStages@enemPos& (0+255),b
  5077  0019B0  ECC3  F010         	call	_changeStages	;wreg free
  5078                           
  5079                           ;main.c: 252: _delay((unsigned long)((550)*(24000000ul/4000.0)));
  5080  0019B4  0E11               	movlw	17
  5081  0019B6  6E31               	movwf	(??_juego1+1)& (0+255),c
  5082  0019B8  0EBE               	movlw	190
  5083  0019BA  6E30               	movwf	??_juego1& (0+255),c
  5084  0019BC  0EAA               	movlw	170
  5085  0019BE                     u5067:
  5086  0019BE  2EE8               	decfsz	wreg,f,c
  5087  0019C0  D7FE               	bra	u5067
  5088  0019C2  2E30               	decfsz	??_juego1& (0+255),f,c
  5089  0019C4  D7FC               	bra	u5067
  5090  0019C6  2E31               	decfsz	(??_juego1+1)& (0+255),f,c
  5091  0019C8  D7FA               	bra	u5067
  5092                           
  5093                           ;main.c: 254: changeStages("          0","   0       ", 0);
  5094  0019CA  0ED8               	movlw	low STR_4
  5095  0019CC  0100               	movlb	0	; () banked
  5096  0019CE  6FD4               	movwf	changeStages@parameter1& (0+255),b
  5097  0019D0  0E7F               	movlw	high STR_4
  5098  0019D2  0100               	movlb	0	; () banked
  5099  0019D4  6FD5               	movwf	(changeStages@parameter1+1)& (0+255),b
  5100  0019D6  0E30               	movlw	low STR_25
  5101  0019D8  0100               	movlb	0	; () banked
  5102  0019DA  6FD6               	movwf	changeStages@parameter2& (0+255),b
  5103  0019DC  0E7F               	movlw	high STR_25
  5104  0019DE  0100               	movlb	0	; () banked
  5105  0019E0  6FD7               	movwf	(changeStages@parameter2+1)& (0+255),b
  5106  0019E2  0E00               	movlw	0
  5107  0019E4  0100               	movlb	0	; () banked
  5108  0019E6  6FD9               	movwf	(changeStages@enemPos+1)& (0+255),b
  5109  0019E8  0E00               	movlw	0
  5110  0019EA  6FD8               	movwf	changeStages@enemPos& (0+255),b
  5111  0019EC  ECC3  F010         	call	_changeStages	;wreg free
  5112                           
  5113                           ;main.c: 255: _delay((unsigned long)((550)*(24000000ul/4000.0)));
  5114  0019F0  0E11               	movlw	17
  5115  0019F2  6E31               	movwf	(??_juego1+1)& (0+255),c
  5116  0019F4  0EBE               	movlw	190
  5117  0019F6  6E30               	movwf	??_juego1& (0+255),c
  5118  0019F8  0EAA               	movlw	170
  5119  0019FA                     u5077:
  5120  0019FA  2EE8               	decfsz	wreg,f,c
  5121  0019FC  D7FE               	bra	u5077
  5122  0019FE  2E30               	decfsz	??_juego1& (0+255),f,c
  5123  001A00  D7FC               	bra	u5077
  5124  001A02  2E31               	decfsz	(??_juego1+1)& (0+255),f,c
  5125  001A04  D7FA               	bra	u5077
  5126                           
  5127                           ;main.c: 257: changeStages("         0 ","  0        ", 0);
  5128  001A06  0EB4               	movlw	low STR_6
  5129  001A08  0100               	movlb	0	; () banked
  5130  001A0A  6FD4               	movwf	changeStages@parameter1& (0+255),b
  5131  001A0C  0E7F               	movlw	high STR_6
  5132  001A0E  0100               	movlb	0	; () banked
  5133  001A10  6FD5               	movwf	(changeStages@parameter1+1)& (0+255),b
  5134  001A12  0E24               	movlw	low STR_30
  5135  001A14  0100               	movlb	0	; () banked
  5136  001A16  6FD6               	movwf	changeStages@parameter2& (0+255),b
  5137  001A18  0E7F               	movlw	high STR_30
  5138  001A1A  0100               	movlb	0	; () banked
  5139  001A1C  6FD7               	movwf	(changeStages@parameter2+1)& (0+255),b
  5140  001A1E  0E00               	movlw	0
  5141  001A20  0100               	movlb	0	; () banked
  5142  001A22  6FD9               	movwf	(changeStages@enemPos+1)& (0+255),b
  5143  001A24  0E00               	movlw	0
  5144  001A26  6FD8               	movwf	changeStages@enemPos& (0+255),b
  5145  001A28  ECC3  F010         	call	_changeStages	;wreg free
  5146                           
  5147                           ;main.c: 258: _delay((unsigned long)((550)*(24000000ul/4000.0)));
  5148  001A2C  0E11               	movlw	17
  5149  001A2E  6E31               	movwf	(??_juego1+1)& (0+255),c
  5150  001A30  0EBE               	movlw	190
  5151  001A32  6E30               	movwf	??_juego1& (0+255),c
  5152  001A34  0EAA               	movlw	170
  5153  001A36                     u5087:
  5154  001A36  2EE8               	decfsz	wreg,f,c
  5155  001A38  D7FE               	bra	u5087
  5156  001A3A  2E30               	decfsz	??_juego1& (0+255),f,c
  5157  001A3C  D7FC               	bra	u5087
  5158  001A3E  2E31               	decfsz	(??_juego1+1)& (0+255),f,c
  5159  001A40  D7FA               	bra	u5087
  5160                           
  5161                           ;main.c: 260: changeStages("        0  "," 0         ", 0);
  5162  001A42  0E90               	movlw	low STR_8
  5163  001A44  0100               	movlb	0	; () banked
  5164  001A46  6FD4               	movwf	changeStages@parameter1& (0+255),b
  5165  001A48  0E7F               	movlw	high STR_8
  5166  001A4A  0100               	movlb	0	; () banked
  5167  001A4C  6FD5               	movwf	(changeStages@parameter1+1)& (0+255),b
  5168  001A4E  0E18               	movlw	low STR_32
  5169  001A50  0100               	movlb	0	; () banked
  5170  001A52  6FD6               	movwf	changeStages@parameter2& (0+255),b
  5171  001A54  0E7F               	movlw	high STR_32
  5172  001A56  0100               	movlb	0	; () banked
  5173  001A58  6FD7               	movwf	(changeStages@parameter2+1)& (0+255),b
  5174  001A5A  0E00               	movlw	0
  5175  001A5C  0100               	movlb	0	; () banked
  5176  001A5E  6FD9               	movwf	(changeStages@enemPos+1)& (0+255),b
  5177  001A60  0E00               	movlw	0
  5178  001A62  6FD8               	movwf	changeStages@enemPos& (0+255),b
  5179  001A64  ECC3  F010         	call	_changeStages	;wreg free
  5180                           
  5181                           ;main.c: 261: _delay((unsigned long)((550)*(24000000ul/4000.0)));
  5182  001A68  0E11               	movlw	17
  5183  001A6A  6E31               	movwf	(??_juego1+1)& (0+255),c
  5184  001A6C  0EBE               	movlw	190
  5185  001A6E  6E30               	movwf	??_juego1& (0+255),c
  5186  001A70  0EAA               	movlw	170
  5187  001A72                     u5097:
  5188  001A72  2EE8               	decfsz	wreg,f,c
  5189  001A74  D7FE               	bra	u5097
  5190  001A76  2E30               	decfsz	??_juego1& (0+255),f,c
  5191  001A78  D7FC               	bra	u5097
  5192  001A7A  2E31               	decfsz	(??_juego1+1)& (0+255),f,c
  5193  001A7C  D7FA               	bra	u5097
  5194                           
  5195                           ;main.c: 263: changeStages("       0  "," 0          ", 0);
  5196  001A7E  0E91               	movlw	low (STR_8+1)
  5197  001A80  0100               	movlb	0	; () banked
  5198  001A82  6FD4               	movwf	changeStages@parameter1& (0+255),b
  5199  001A84  0E7F               	movlw	high (STR_8+1)
  5200  001A86  0100               	movlb	0	; () banked
  5201  001A88  6FD5               	movwf	(changeStages@parameter1+1)& (0+255),b
  5202  001A8A  0E0B               	movlw	low STR_47
  5203  001A8C  0100               	movlb	0	; () banked
  5204  001A8E  6FD6               	movwf	changeStages@parameter2& (0+255),b
  5205  001A90  0E7F               	movlw	high STR_47
  5206  001A92  0100               	movlb	0	; () banked
  5207  001A94  6FD7               	movwf	(changeStages@parameter2+1)& (0+255),b
  5208  001A96  0E00               	movlw	0
  5209  001A98  0100               	movlb	0	; () banked
  5210  001A9A  6FD9               	movwf	(changeStages@enemPos+1)& (0+255),b
  5211  001A9C  0E00               	movlw	0
  5212  001A9E  6FD8               	movwf	changeStages@enemPos& (0+255),b
  5213  001AA0  ECC3  F010         	call	_changeStages	;wreg free
  5214                           
  5215                           ;main.c: 264: _delay((unsigned long)((550)*(24000000ul/4000.0)));
  5216  001AA4  0E11               	movlw	17
  5217  001AA6  6E31               	movwf	(??_juego1+1)& (0+255),c
  5218  001AA8  0EBE               	movlw	190
  5219  001AAA  6E30               	movwf	??_juego1& (0+255),c
  5220  001AAC  0EAA               	movlw	170
  5221  001AAE                     u5107:
  5222  001AAE  2EE8               	decfsz	wreg,f,c
  5223  001AB0  D7FE               	bra	u5107
  5224  001AB2  2E30               	decfsz	??_juego1& (0+255),f,c
  5225  001AB4  D7FC               	bra	u5107
  5226  001AB6  2E31               	decfsz	(??_juego1+1)& (0+255),f,c
  5227  001AB8  D7FA               	bra	u5107
  5228                           
  5229                           ;main.c: 266: changeStages("      0   ","0           ", 2);
  5230  001ABA  0E79               	movlw	low (STR_10+1)
  5231  001ABC  0100               	movlb	0	; () banked
  5232  001ABE  6FD4               	movwf	changeStages@parameter1& (0+255),b
  5233  001AC0  0E7F               	movlw	high (STR_10+1)
  5234  001AC2  0100               	movlb	0	; () banked
  5235  001AC4  6FD5               	movwf	(changeStages@parameter1+1)& (0+255),b
  5236  001AC6  0EFE               	movlw	low STR_49
  5237  001AC8  0100               	movlb	0	; () banked
  5238  001ACA  6FD6               	movwf	changeStages@parameter2& (0+255),b
  5239  001ACC  0E7E               	movlw	high STR_49
  5240  001ACE  0100               	movlb	0	; () banked
  5241  001AD0  6FD7               	movwf	(changeStages@parameter2+1)& (0+255),b
  5242  001AD2  0E00               	movlw	0
  5243  001AD4  0100               	movlb	0	; () banked
  5244  001AD6  6FD9               	movwf	(changeStages@enemPos+1)& (0+255),b
  5245  001AD8  0E02               	movlw	2
  5246  001ADA  6FD8               	movwf	changeStages@enemPos& (0+255),b
  5247  001ADC  ECC3  F010         	call	_changeStages	;wreg free
  5248                           
  5249                           ;main.c: 267: _delay((unsigned long)((550)*(24000000ul/4000.0)));
  5250  001AE0  0E11               	movlw	17
  5251  001AE2  6E31               	movwf	(??_juego1+1)& (0+255),c
  5252  001AE4  0EBE               	movlw	190
  5253  001AE6  6E30               	movwf	??_juego1& (0+255),c
  5254  001AE8  0EAA               	movlw	170
  5255  001AEA                     u5117:
  5256  001AEA  2EE8               	decfsz	wreg,f,c
  5257  001AEC  D7FE               	bra	u5117
  5258  001AEE  2E30               	decfsz	??_juego1& (0+255),f,c
  5259  001AF0  D7FC               	bra	u5117
  5260  001AF2  2E31               	decfsz	(??_juego1+1)& (0+255),f,c
  5261  001AF4  D7FA               	bra	u5117
  5262                           
  5263                           ;main.c: 269: changeStages("     0    ","            ", 0);
  5264  001AF6  0E61               	movlw	low (STR_12+1)
  5265  001AF8  0100               	movlb	0	; () banked
  5266  001AFA  6FD4               	movwf	changeStages@parameter1& (0+255),b
  5267  001AFC  0E7F               	movlw	high (STR_12+1)
  5268  001AFE  0100               	movlb	0	; () banked
  5269  001B00  6FD5               	movwf	(changeStages@parameter1+1)& (0+255),b
  5270  001B02  0EF1               	movlw	low STR_51
  5271  001B04  0100               	movlb	0	; () banked
  5272  001B06  6FD6               	movwf	changeStages@parameter2& (0+255),b
  5273  001B08  0E7E               	movlw	high STR_51
  5274  001B0A  0100               	movlb	0	; () banked
  5275  001B0C  6FD7               	movwf	(changeStages@parameter2+1)& (0+255),b
  5276  001B0E  0E00               	movlw	0
  5277  001B10  0100               	movlb	0	; () banked
  5278  001B12  6FD9               	movwf	(changeStages@enemPos+1)& (0+255),b
  5279  001B14  0E00               	movlw	0
  5280  001B16  6FD8               	movwf	changeStages@enemPos& (0+255),b
  5281  001B18  ECC3  F010         	call	_changeStages	;wreg free
  5282                           
  5283                           ;main.c: 270: _delay((unsigned long)((550)*(24000000ul/4000.0)));
  5284  001B1C  0E11               	movlw	17
  5285  001B1E  6E31               	movwf	(??_juego1+1)& (0+255),c
  5286  001B20  0EBE               	movlw	190
  5287  001B22  6E30               	movwf	??_juego1& (0+255),c
  5288  001B24  0EAA               	movlw	170
  5289  001B26                     u5127:
  5290  001B26  2EE8               	decfsz	wreg,f,c
  5291  001B28  D7FE               	bra	u5127
  5292  001B2A  2E30               	decfsz	??_juego1& (0+255),f,c
  5293  001B2C  D7FC               	bra	u5127
  5294  001B2E  2E31               	decfsz	(??_juego1+1)& (0+255),f,c
  5295  001B30  D7FA               	bra	u5127
  5296                           
  5297                           ;main.c: 272: changeStages("    0     ","            ", 0);
  5298  001B32  0E49               	movlw	low (STR_21+1)
  5299  001B34  0100               	movlb	0	; () banked
  5300  001B36  6FD4               	movwf	changeStages@parameter1& (0+255),b
  5301  001B38  0E7F               	movlw	high (STR_21+1)
  5302  001B3A  0100               	movlb	0	; () banked
  5303  001B3C  6FD5               	movwf	(changeStages@parameter1+1)& (0+255),b
  5304  001B3E  0EF1               	movlw	low STR_51
  5305  001B40  0100               	movlb	0	; () banked
  5306  001B42  6FD6               	movwf	changeStages@parameter2& (0+255),b
  5307  001B44  0E7E               	movlw	high STR_51
  5308  001B46  0100               	movlb	0	; () banked
  5309  001B48  6FD7               	movwf	(changeStages@parameter2+1)& (0+255),b
  5310  001B4A  0E00               	movlw	0
  5311  001B4C  0100               	movlb	0	; () banked
  5312  001B4E  6FD9               	movwf	(changeStages@enemPos+1)& (0+255),b
  5313  001B50  0E00               	movlw	0
  5314  001B52  6FD8               	movwf	changeStages@enemPos& (0+255),b
  5315  001B54  ECC3  F010         	call	_changeStages	;wreg free
  5316                           
  5317                           ;main.c: 273: _delay((unsigned long)((550)*(24000000ul/4000.0)));
  5318  001B58  0E11               	movlw	17
  5319  001B5A  6E31               	movwf	(??_juego1+1)& (0+255),c
  5320  001B5C  0EBE               	movlw	190
  5321  001B5E  6E30               	movwf	??_juego1& (0+255),c
  5322  001B60  0EAA               	movlw	170
  5323  001B62                     u5137:
  5324  001B62  2EE8               	decfsz	wreg,f,c
  5325  001B64  D7FE               	bra	u5137
  5326  001B66  2E30               	decfsz	??_juego1& (0+255),f,c
  5327  001B68  D7FC               	bra	u5137
  5328  001B6A  2E31               	decfsz	(??_juego1+1)& (0+255),f,c
  5329  001B6C  D7FA               	bra	u5137
  5330                           
  5331                           ;main.c: 275: changeStages("   0      ","            ", 0);
  5332  001B6E  0E3D               	movlw	low (STR_23+1)
  5333  001B70  0100               	movlb	0	; () banked
  5334  001B72  6FD4               	movwf	changeStages@parameter1& (0+255),b
  5335  001B74  0E7F               	movlw	high (STR_23+1)
  5336  001B76  0100               	movlb	0	; () banked
  5337  001B78  6FD5               	movwf	(changeStages@parameter1+1)& (0+255),b
  5338  001B7A  0EF1               	movlw	low STR_51
  5339  001B7C  0100               	movlb	0	; () banked
  5340  001B7E  6FD6               	movwf	changeStages@parameter2& (0+255),b
  5341  001B80  0E7E               	movlw	high STR_51
  5342  001B82  0100               	movlb	0	; () banked
  5343  001B84  6FD7               	movwf	(changeStages@parameter2+1)& (0+255),b
  5344  001B86  0E00               	movlw	0
  5345  001B88  0100               	movlb	0	; () banked
  5346  001B8A  6FD9               	movwf	(changeStages@enemPos+1)& (0+255),b
  5347  001B8C  0E00               	movlw	0
  5348  001B8E  6FD8               	movwf	changeStages@enemPos& (0+255),b
  5349  001B90  ECC3  F010         	call	_changeStages	;wreg free
  5350                           
  5351                           ;main.c: 276: _delay((unsigned long)((550)*(24000000ul/4000.0)));
  5352  001B94  0E11               	movlw	17
  5353  001B96  6E31               	movwf	(??_juego1+1)& (0+255),c
  5354  001B98  0EBE               	movlw	190
  5355  001B9A  6E30               	movwf	??_juego1& (0+255),c
  5356  001B9C  0EAA               	movlw	170
  5357  001B9E                     u5147:
  5358  001B9E  2EE8               	decfsz	wreg,f,c
  5359  001BA0  D7FE               	bra	u5147
  5360  001BA2  2E30               	decfsz	??_juego1& (0+255),f,c
  5361  001BA4  D7FC               	bra	u5147
  5362  001BA6  2E31               	decfsz	(??_juego1+1)& (0+255),f,c
  5363  001BA8  D7FA               	bra	u5147
  5364                           
  5365                           ;main.c: 278: changeStages("  0       ","            ", 0);
  5366  001BAA  0E31               	movlw	low (STR_25+1)
  5367  001BAC  0100               	movlb	0	; () banked
  5368  001BAE  6FD4               	movwf	changeStages@parameter1& (0+255),b
  5369  001BB0  0E7F               	movlw	high (STR_25+1)
  5370  001BB2  0100               	movlb	0	; () banked
  5371  001BB4  6FD5               	movwf	(changeStages@parameter1+1)& (0+255),b
  5372  001BB6  0EF1               	movlw	low STR_51
  5373  001BB8  0100               	movlb	0	; () banked
  5374  001BBA  6FD6               	movwf	changeStages@parameter2& (0+255),b
  5375  001BBC  0E7E               	movlw	high STR_51
  5376  001BBE  0100               	movlb	0	; () banked
  5377  001BC0  6FD7               	movwf	(changeStages@parameter2+1)& (0+255),b
  5378  001BC2  0E00               	movlw	0
  5379  001BC4  0100               	movlb	0	; () banked
  5380  001BC6  6FD9               	movwf	(changeStages@enemPos+1)& (0+255),b
  5381  001BC8  0E00               	movlw	0
  5382  001BCA  6FD8               	movwf	changeStages@enemPos& (0+255),b
  5383  001BCC  ECC3  F010         	call	_changeStages	;wreg free
  5384                           
  5385                           ;main.c: 279: _delay((unsigned long)((550)*(24000000ul/4000.0)));
  5386  001BD0  0E11               	movlw	17
  5387  001BD2  6E31               	movwf	(??_juego1+1)& (0+255),c
  5388  001BD4  0EBE               	movlw	190
  5389  001BD6  6E30               	movwf	??_juego1& (0+255),c
  5390  001BD8  0EAA               	movlw	170
  5391  001BDA                     u5157:
  5392  001BDA  2EE8               	decfsz	wreg,f,c
  5393  001BDC  D7FE               	bra	u5157
  5394  001BDE  2E30               	decfsz	??_juego1& (0+255),f,c
  5395  001BE0  D7FC               	bra	u5157
  5396  001BE2  2E31               	decfsz	(??_juego1+1)& (0+255),f,c
  5397  001BE4  D7FA               	bra	u5157
  5398                           
  5399                           ;main.c: 281: changeStages(" 0        ","            ", 0);
  5400  001BE6  0E25               	movlw	low (STR_30+1)
  5401  001BE8  0100               	movlb	0	; () banked
  5402  001BEA  6FD4               	movwf	changeStages@parameter1& (0+255),b
  5403  001BEC  0E7F               	movlw	high (STR_30+1)
  5404  001BEE  0100               	movlb	0	; () banked
  5405  001BF0  6FD5               	movwf	(changeStages@parameter1+1)& (0+255),b
  5406  001BF2  0EF1               	movlw	low STR_51
  5407  001BF4  0100               	movlb	0	; () banked
  5408  001BF6  6FD6               	movwf	changeStages@parameter2& (0+255),b
  5409  001BF8  0E7E               	movlw	high STR_51
  5410  001BFA  0100               	movlb	0	; () banked
  5411  001BFC  6FD7               	movwf	(changeStages@parameter2+1)& (0+255),b
  5412  001BFE  0E00               	movlw	0
  5413  001C00  0100               	movlb	0	; () banked
  5414  001C02  6FD9               	movwf	(changeStages@enemPos+1)& (0+255),b
  5415  001C04  0E00               	movlw	0
  5416  001C06  6FD8               	movwf	changeStages@enemPos& (0+255),b
  5417  001C08  ECC3  F010         	call	_changeStages	;wreg free
  5418                           
  5419                           ;main.c: 282: _delay((unsigned long)((550)*(24000000ul/4000.0)));
  5420  001C0C  0E11               	movlw	17
  5421  001C0E  6E31               	movwf	(??_juego1+1)& (0+255),c
  5422  001C10  0EBE               	movlw	190
  5423  001C12  6E30               	movwf	??_juego1& (0+255),c
  5424  001C14  0EAA               	movlw	170
  5425  001C16                     u5167:
  5426  001C16  2EE8               	decfsz	wreg,f,c
  5427  001C18  D7FE               	bra	u5167
  5428  001C1A  2E30               	decfsz	??_juego1& (0+255),f,c
  5429  001C1C  D7FC               	bra	u5167
  5430  001C1E  2E31               	decfsz	(??_juego1+1)& (0+255),f,c
  5431  001C20  D7FA               	bra	u5167
  5432                           
  5433                           ;main.c: 284: changeStages("0         ","            ", 1);
  5434  001C22  0E19               	movlw	low (STR_32+1)
  5435  001C24  0100               	movlb	0	; () banked
  5436  001C26  6FD4               	movwf	changeStages@parameter1& (0+255),b
  5437  001C28  0E7F               	movlw	high (STR_32+1)
  5438  001C2A  0100               	movlb	0	; () banked
  5439  001C2C  6FD5               	movwf	(changeStages@parameter1+1)& (0+255),b
  5440  001C2E  0EF1               	movlw	low STR_51
  5441  001C30  0100               	movlb	0	; () banked
  5442  001C32  6FD6               	movwf	changeStages@parameter2& (0+255),b
  5443  001C34  0E7E               	movlw	high STR_51
  5444  001C36  0100               	movlb	0	; () banked
  5445  001C38  6FD7               	movwf	(changeStages@parameter2+1)& (0+255),b
  5446  001C3A  0E00               	movlw	0
  5447  001C3C  0100               	movlb	0	; () banked
  5448  001C3E  6FD9               	movwf	(changeStages@enemPos+1)& (0+255),b
  5449  001C40  0E01               	movlw	1
  5450  001C42  6FD8               	movwf	changeStages@enemPos& (0+255),b
  5451  001C44  ECC3  F010         	call	_changeStages	;wreg free
  5452                           
  5453                           ;main.c: 285: _delay((unsigned long)((550)*(24000000ul/4000.0)));
  5454  001C48  0E11               	movlw	17
  5455  001C4A  6E31               	movwf	(??_juego1+1)& (0+255),c
  5456  001C4C  0EBE               	movlw	190
  5457  001C4E  6E30               	movwf	??_juego1& (0+255),c
  5458  001C50  0EAA               	movlw	170
  5459  001C52                     u5177:
  5460  001C52  2EE8               	decfsz	wreg,f,c
  5461  001C54  D7FE               	bra	u5177
  5462  001C56  2E30               	decfsz	??_juego1& (0+255),f,c
  5463  001C58  D7FC               	bra	u5177
  5464  001C5A  2E31               	decfsz	(??_juego1+1)& (0+255),f,c
  5465  001C5C  D7FA               	bra	u5177
  5466                           
  5467                           ;main.c: 287: changeStages("          ","            ", 0);
  5468  001C5E  0EF3               	movlw	low (STR_51+2)
  5469  001C60  0100               	movlb	0	; () banked
  5470  001C62  6FD4               	movwf	changeStages@parameter1& (0+255),b
  5471  001C64  0E7E               	movlw	high (STR_51+2)
  5472  001C66  0100               	movlb	0	; () banked
  5473  001C68  6FD5               	movwf	(changeStages@parameter1+1)& (0+255),b
  5474  001C6A  0EF1               	movlw	low STR_51
  5475  001C6C  0100               	movlb	0	; () banked
  5476  001C6E  6FD6               	movwf	changeStages@parameter2& (0+255),b
  5477  001C70  0E7E               	movlw	high STR_51
  5478  001C72  0100               	movlb	0	; () banked
  5479  001C74  6FD7               	movwf	(changeStages@parameter2+1)& (0+255),b
  5480  001C76  0E00               	movlw	0
  5481  001C78  0100               	movlb	0	; () banked
  5482  001C7A  6FD9               	movwf	(changeStages@enemPos+1)& (0+255),b
  5483  001C7C  0E00               	movlw	0
  5484  001C7E  6FD8               	movwf	changeStages@enemPos& (0+255),b
  5485  001C80  ECC3  F010         	call	_changeStages	;wreg free
  5486  001C84  0012               	return		;funcret
  5487  001C86                     __end_of_juego1:
  5488                           	opt stack 0
  5489                           tblptru	equ	0xFF8
  5490                           tblptrh	equ	0xFF7
  5491                           tblptrl	equ	0xFF6
  5492                           tablat	equ	0xFF5
  5493                           intcon	equ	0xFF2
  5494                           postinc0	equ	0xFEE
  5495                           wreg	equ	0xFE8
  5496                           postdec1	equ	0xFE5
  5497                           fsr1l	equ	0xFE1
  5498                           status	equ	0xFD8
  5499                           
  5500 ;; *************** function _changeStages *****************
  5501 ;; Defined at:
  5502 ;;		line 141 in file "main.c"
  5503 ;; Parameters:    Size  Location     Type
  5504 ;;  parameter1      2    0[BANK0 ] PTR unsigned char 
  5505 ;;		 -> STR_242(11), STR_240(11), STR_238(11), STR_236(11), 
  5506 ;;		 -> STR_234(11), STR_232(11), STR_230(11), STR_228(11), 
  5507 ;;		 -> STR_226(11), STR_224(12), STR_222(12), STR_220(12), 
  5508 ;;		 -> STR_218(12), STR_216(12), STR_214(12), STR_212(12), 
  5509 ;;		 -> STR_210(12), STR_208(12), STR_206(12), STR_204(12), 
  5510 ;;		 -> STR_202(12), STR_200(12), STR_198(12), STR_196(12), 
  5511 ;;		 -> STR_194(12), STR_192(12), STR_190(12), STR_188(12), 
  5512 ;;		 -> STR_186(12), STR_184(12), STR_182(11), STR_180(11), 
  5513 ;;		 -> STR_178(11), STR_176(11), STR_174(11), STR_172(11), 
  5514 ;;		 -> STR_170(11), STR_168(11), STR_166(11), STR_164(12), 
  5515 ;;		 -> STR_162(12), STR_160(12), STR_158(12), STR_156(12), 
  5516 ;;		 -> STR_154(12), STR_152(12), STR_150(12), STR_148(12), 
  5517 ;;		 -> STR_146(12), STR_144(12), STR_142(12), STR_140(12), 
  5518 ;;		 -> STR_138(12), STR_136(12), STR_134(12), STR_132(12), 
  5519 ;;		 -> STR_130(12), STR_128(12), STR_126(12), STR_124(12), 
  5520 ;;		 -> STR_122(11), STR_120(11), STR_118(11), STR_116(11), 
  5521 ;;		 -> STR_114(11), STR_112(11), STR_110(11), STR_108(11), 
  5522 ;;		 -> STR_106(11), STR_104(12), STR_102(12), STR_100(12), 
  5523 ;;		 -> STR_98(12), STR_96(12), STR_94(12), STR_92(12), 
  5524 ;;		 -> STR_90(12), STR_88(12), STR_86(12), STR_84(12), 
  5525 ;;		 -> STR_82(12), STR_80(12), STR_78(12), STR_76(12), 
  5526 ;;		 -> STR_74(12), STR_72(12), STR_70(12), STR_68(12), 
  5527 ;;		 -> STR_66(12), STR_64(12), STR_62(11), STR_60(11), 
  5528 ;;		 -> STR_58(11), STR_56(11), STR_54(11), STR_52(11), 
  5529 ;;		 -> STR_50(11), STR_48(11), STR_46(11), STR_44(12), 
  5530 ;;		 -> STR_42(12), STR_40(12), STR_38(12), STR_36(12), 
  5531 ;;		 -> STR_34(12), STR_32(12), STR_30(12), STR_28(12), 
  5532 ;;		 -> STR_26(12), STR_24(12), STR_22(12), STR_20(12), 
  5533 ;;		 -> STR_18(12), STR_16(12), STR_14(12), STR_12(12), 
  5534 ;;		 -> STR_10(12), STR_8(12), STR_6(12), STR_4(12), 
  5535 ;;  parameter2      2    2[BANK0 ] PTR unsigned char 
  5536 ;;		 -> STR_243(13), STR_241(13), STR_239(13), STR_237(13), 
  5537 ;;		 -> STR_235(13), STR_233(13), STR_231(13), STR_229(13), 
  5538 ;;		 -> STR_227(13), STR_225(12), STR_223(12), STR_221(12), 
  5539 ;;		 -> STR_219(12), STR_217(12), STR_215(12), STR_213(12), 
  5540 ;;		 -> STR_211(12), STR_209(12), STR_207(12), STR_205(12), 
  5541 ;;		 -> STR_203(12), STR_201(12), STR_199(12), STR_197(12), 
  5542 ;;		 -> STR_195(12), STR_193(12), STR_191(12), STR_189(12), 
  5543 ;;		 -> STR_187(12), STR_185(12), STR_183(13), STR_181(13), 
  5544 ;;		 -> STR_179(13), STR_177(13), STR_175(13), STR_173(13), 
  5545 ;;		 -> STR_171(13), STR_169(13), STR_167(13), STR_165(12), 
  5546 ;;		 -> STR_163(12), STR_161(12), STR_159(12), STR_157(12), 
  5547 ;;		 -> STR_155(12), STR_153(12), STR_151(12), STR_149(12), 
  5548 ;;		 -> STR_147(12), STR_145(12), STR_143(12), STR_141(12), 
  5549 ;;		 -> STR_139(12), STR_137(12), STR_135(12), STR_133(12), 
  5550 ;;		 -> STR_131(12), STR_129(12), STR_127(12), STR_125(12), 
  5551 ;;		 -> STR_123(13), STR_121(13), STR_119(13), STR_117(13), 
  5552 ;;		 -> STR_115(13), STR_113(13), STR_111(13), STR_109(13), 
  5553 ;;		 -> STR_107(13), STR_105(12), STR_103(12), STR_101(12), 
  5554 ;;		 -> STR_99(12), STR_97(12), STR_95(12), STR_93(12), 
  5555 ;;		 -> STR_91(12), STR_89(12), STR_87(12), STR_85(12), 
  5556 ;;		 -> STR_83(12), STR_81(12), STR_79(12), STR_77(12), 
  5557 ;;		 -> STR_75(12), STR_73(12), STR_71(12), STR_69(12), 
  5558 ;;		 -> STR_67(12), STR_65(12), STR_63(13), STR_61(13), 
  5559 ;;		 -> STR_59(13), STR_57(13), STR_55(13), STR_53(13), 
  5560 ;;		 -> STR_51(13), STR_49(13), STR_47(13), STR_45(12), 
  5561 ;;		 -> STR_43(12), STR_41(12), STR_39(12), STR_37(12), 
  5562 ;;		 -> STR_35(12), STR_33(12), STR_31(12), STR_29(12), 
  5563 ;;		 -> STR_27(12), STR_25(12), STR_23(12), STR_21(12), 
  5564 ;;		 -> STR_19(12), STR_17(12), STR_15(12), STR_13(12), 
  5565 ;;		 -> STR_11(12), STR_9(12), STR_7(12), STR_5(12), 
  5566 ;;  enemPos         2    4[BANK0 ] int 
  5567 ;; Auto vars:     Size  Location     Type
  5568 ;;  buffer         10    6[BANK0 ] unsigned char [10]
  5569 ;;  pos             2   16[BANK0 ] int 
  5570 ;; Return value:  Size  Location     Type
  5571 ;;                  2    0[BANK0 ] int 
  5572 ;; Registers used:
  5573 ;;		wreg, fsr0l, fsr0h, fsr2l, fsr2h, status,2, status,0, tblptrl, tblptrh, tblptru, prodl, prodh, cstack
  5574 ;; Tracked objects:
  5575 ;;		On entry : 0/0
  5576 ;;		On exit  : 0/0
  5577 ;;		Unchanged: 0/0
  5578 ;; Data sizes:     COMRAM   BANK0   BANK1   BANK2   BANK3   BANK4   BANK5   BANK6   BANK7
  5579 ;;      Params:         0       6       0       0       0       0       0       0       0
  5580 ;;      Locals:         0      12       0       0       0       0       0       0       0
  5581 ;;      Temps:          0       0       0       0       0       0       0       0       0
  5582 ;;      Totals:         0      18       0       0       0       0       0       0       0
  5583 ;;Total ram usage:       18 bytes
  5584 ;; Hardware stack levels used:    1
  5585 ;; Hardware stack levels required when called:    8
  5586 ;; This function calls:
  5587 ;;		_ADC_GetConversion
  5588 ;;		_BusyXLCD
  5589 ;;		_SYSTEM_Initialize
  5590 ;;		_SetDDRamAddr
  5591 ;;		_printCharacter
  5592 ;;		_putsXLCD
  5593 ;;		_sprintf
  5594 ;; This function is called by:
  5595 ;;		_juego1
  5596 ;;		_juego2
  5597 ;;		_juego3
  5598 ;;		_juego4
  5599 ;; This function uses a non-reentrant model
  5600 ;;
  5601                           
  5602                           	psect	text6
  5603  002186                     __ptext6:
  5604                           	opt stack 0
  5605  002186                     _changeStages:
  5606                           	opt stack 21
  5607                           
  5608                           ;main.c: 143: SYSTEM_Initialize();
  5609                           
  5610                           ;incstack = 0
  5611  002186  ECDA  F013         	call	_SYSTEM_Initialize	;wreg free
  5612  00218A  EC43  F013         	call	_BusyXLCD	;wreg free
  5613  00218E  0900               	iorlw	0
  5614  002190  A4D8               	btfss	status,2,c
  5615  002192  D7FB               	goto	l652
  5616                           
  5617                           ;main.c: 149: SetDDRamAddr(0x0);
  5618  002194  0E00               	movlw	0
  5619  002196  EC7A  F012         	call	_SetDDRamAddr
  5620                           
  5621                           ;main.c: 151: putsXLCD(parameter1);
  5622  00219A  C0D4  F017         	movff	changeStages@parameter1,putsXLCD@buffer
  5623  00219E  C0D5  F018         	movff	changeStages@parameter1+1,putsXLCD@buffer+1
  5624  0021A2  ECCD  F011         	call	_putsXLCD	;wreg free
  5625  0021A6  EC43  F013         	call	_BusyXLCD	;wreg free
  5626  0021AA  0900               	iorlw	0
  5627  0021AC  A4D8               	btfss	status,2,c
  5628  0021AE  D7FB               	goto	l655
  5629                           
  5630                           ;main.c: 153: SetDDRamAddr(0x0D);
  5631  0021B0  0E0D               	movlw	13
  5632  0021B2  EC7A  F012         	call	_SetDDRamAddr
  5633                           
  5634                           ;main.c: 154: sprintf(buffer,"%d",counter);
  5635  0021B6  0EDA               	movlw	low changeStages@buffer
  5636  0021B8  6E22               	movwf	sprintf@sp,c
  5637  0021BA  0E00               	movlw	high changeStages@buffer
  5638  0021BC  6E23               	movwf	sprintf@sp+1,c
  5639  0021BE  0EFC               	movlw	low STR_2
  5640  0021C0  6E24               	movwf	sprintf@f,c
  5641  0021C2  0E7F               	movlw	high STR_2
  5642  0021C4  6E25               	movwf	sprintf@f+1,c
  5643  0021C6  C03A  F026         	movff	_counter,?_sprintf+4
  5644  0021CA  C03B  F027         	movff	_counter+1,?_sprintf+5
  5645  0021CE  EC1F  F010         	call	_sprintf	;wreg free
  5646                           
  5647                           ;main.c: 155: putsXLCD(buffer);
  5648  0021D2  0EDA               	movlw	low changeStages@buffer
  5649  0021D4  6E17               	movwf	putsXLCD@buffer,c
  5650  0021D6  0E00               	movlw	high changeStages@buffer
  5651  0021D8  6E18               	movwf	putsXLCD@buffer+1,c
  5652  0021DA  ECCD  F011         	call	_putsXLCD	;wreg free
  5653  0021DE  EC43  F013         	call	_BusyXLCD	;wreg free
  5654  0021E2  0900               	iorlw	0
  5655  0021E4  A4D8               	btfss	status,2,c
  5656  0021E6  D7FB               	goto	l658
  5657                           
  5658                           ;main.c: 157: SetDDRamAddr(0x40);
  5659  0021E8  0E40               	movlw	64
  5660  0021EA  EC7A  F012         	call	_SetDDRamAddr
  5661                           
  5662                           ;main.c: 159: putsXLCD(parameter2);
  5663  0021EE  C0D6  F017         	movff	changeStages@parameter2,putsXLCD@buffer
  5664  0021F2  C0D7  F018         	movff	changeStages@parameter2+1,putsXLCD@buffer+1
  5665  0021F6  ECCD  F011         	call	_putsXLCD	;wreg free
  5666                           
  5667                           ;main.c: 162: int pos;
  5668                           ;main.c: 164: ADC_Value = ADC_GetConversion(0);
  5669  0021FA  0E00               	movlw	0
  5670  0021FC  EC60  F013         	call	_ADC_GetConversion
  5671  002200  C016  F0B1         	movff	?_ADC_GetConversion,_ADC_Value
  5672  002204  C017  F0B2         	movff	?_ADC_GetConversion+1,_ADC_Value+1
  5673                           
  5674                           ;main.c: 166: if(ADC_Value <= 511){
  5675  002208  0E02               	movlw	2
  5676  00220A  0100               	movlb	0	; () banked
  5677  00220C  5DB2               	subwf	(_ADC_Value+1)& (0+255),w,b
  5678  00220E  B0D8               	btfsc	status,0,c
  5679  002210  D013               	goto	l660
  5680  002212                     u3850:
  5681                           
  5682                           ; BSR set to: 0
  5683                           
  5684                           ; BSR set to: 0
  5685                           
  5686                           ; BSR set to: 0
  5687                           ;main.c: 167: while(BusyXLCD());
  5688  002212  EC43  F013         	call	_BusyXLCD	;wreg free
  5689  002216  0900               	iorlw	0
  5690  002218  A4D8               	btfss	status,2,c
  5691  00221A  D7FB               	goto	u3850
  5692                           
  5693                           ;main.c: 168: SetDDRamAddr(0x00);
  5694  00221C  0E00               	movlw	0
  5695  00221E  EC7A  F012         	call	_SetDDRamAddr
  5696                           
  5697                           ;main.c: 169: printCharacter(0x01);
  5698  002222  0E00               	movlw	0
  5699  002224  6E18               	movwf	printCharacter@number+1,c
  5700  002226  0E01               	movlw	1
  5701  002228  6E17               	movwf	printCharacter@number,c
  5702  00222A  ECF0  F013         	call	_printCharacter	;wreg free
  5703                           
  5704                           ;main.c: 170: pos = 1;
  5705  00222E  0E00               	movlw	0
  5706  002230  0100               	movlb	0	; () banked
  5707  002232  6FE5               	movwf	(changeStages@pos+1)& (0+255),b
  5708  002234  0E01               	movlw	1
  5709  002236  D012               	goto	L1
  5710  002238                     l660:
  5711                           
  5712                           ; BSR set to: 0
  5713                           
  5714                           ; BSR set to: 0
  5715                           
  5716                           ; BSR set to: 0
  5717                           ;main.c: 172: else{
  5718                           ;main.c: 174: while(BusyXLCD());
  5719  002238  EC43  F013         	call	_BusyXLCD	;wreg free
  5720  00223C  0900               	iorlw	0
  5721  00223E  A4D8               	btfss	status,2,c
  5722  002240  D7FB               	goto	l660
  5723                           
  5724                           ;main.c: 175: SetDDRamAddr(0x40);
  5725  002242  0E40               	movlw	64
  5726  002244  EC7A  F012         	call	_SetDDRamAddr
  5727                           
  5728                           ;main.c: 176: printCharacter(0x01);
  5729  002248  0E00               	movlw	0
  5730  00224A  6E18               	movwf	printCharacter@number+1,c
  5731  00224C  0E01               	movlw	1
  5732  00224E  6E17               	movwf	printCharacter@number,c
  5733  002250  ECF0  F013         	call	_printCharacter	;wreg free
  5734                           
  5735                           ;main.c: 177: pos = 2;
  5736  002254  0E00               	movlw	0
  5737  002256  0100               	movlb	0	; () banked
  5738  002258  6FE5               	movwf	(changeStages@pos+1)& (0+255),b
  5739  00225A  0E02               	movlw	2
  5740  00225C                     L1:
  5741  00225C  6FE4               	movwf	changeStages@pos& (0+255),b
  5742                           
  5743                           ; BSR set to: 0
  5744                           ;main.c: 178: }
  5745                           ;main.c: 180: if(pos==enemPos){
  5746                           
  5747                           ; BSR set to: 0
  5748  00225E  0100               	movlb	0	; () banked
  5749  002260  51D8               	movf	changeStages@enemPos& (0+255),w,b
  5750  002262  0100               	movlb	0	; () banked
  5751  002264  19E4               	xorwf	changeStages@pos& (0+255),w,b
  5752  002266  E10C               	bnz	l5768
  5753  002268  0100               	movlb	0	; () banked
  5754  00226A  51D9               	movf	(changeStages@enemPos+1)& (0+255),w,b
  5755  00226C  0100               	movlb	0	; () banked
  5756  00226E  19E5               	xorwf	(changeStages@pos+1)& (0+255),w,b
  5757  002270  A4D8               	btfss	status,2,c
  5758  002272  D006               	goto	l668
  5759                           
  5760                           ; BSR set to: 0
  5761                           ;main.c: 181: counter=counter-10;
  5762  002274  0EF6               	movlw	246
  5763  002276  243A               	addwf	_counter,w,c
  5764  002278  6E3A               	movwf	_counter,c
  5765  00227A  0EFF               	movlw	255
  5766  00227C  203B               	addwfc	_counter+1,w,c
  5767  00227E  6E3B               	movwf	_counter+1,c
  5768  002280                     l668:
  5769  002280                     l5768:
  5770                           
  5771                           ; BSR set to: 0
  5772                           ;main.c: 185: }
  5773                           ;main.c: 189: counter = counter+1;
  5774  002280  0E01               	movlw	1
  5775  002282  243A               	addwf	_counter,w,c
  5776  002284  6E3A               	movwf	_counter,c
  5777  002286  0E00               	movlw	0
  5778  002288  203B               	addwfc	_counter+1,w,c
  5779  00228A  6E3B               	movwf	_counter+1,c
  5780                           
  5781                           ; BSR set to: 0
  5782                           ;main.c: 190: return counter;
  5783  00228C  C03A  F0D4         	movff	_counter,?_changeStages
  5784  002290  C03B  F0D5         	movff	_counter+1,?_changeStages+1
  5785  002294  0012               	return	
  5786  002296                     __end_of_changeStages:
  5787                           	opt stack 0
  5788                           tblptru	equ	0xFF8
  5789                           tblptrh	equ	0xFF7
  5790                           tblptrl	equ	0xFF6
  5791                           tablat	equ	0xFF5
  5792                           intcon	equ	0xFF2
  5793                           postinc0	equ	0xFEE
  5794                           wreg	equ	0xFE8
  5795                           postdec1	equ	0xFE5
  5796                           fsr1l	equ	0xFE1
  5797                           status	equ	0xFD8
  5798                           
  5799 ;; *************** function _sprintf *****************
  5800 ;; Defined at:
  5801 ;;		line 492 in file "C:\Program Files (x86)\Microchip\xc8\v1.43\sources\common\doprnt.c"
  5802 ;; Parameters:    Size  Location     Type
  5803 ;;  sp              2   33[COMRAM] PTR unsigned char 
  5804 ;;		 -> changeStages@buffer(10), printscore@buffer2(10), 
  5805 ;;  f               2   35[COMRAM] PTR const unsigned char 
  5806 ;;		 -> STR_3(3), STR_2(3), 
  5807 ;; Auto vars:     Size  Location     Type
  5808 ;;  tmpval          4    0        struct .
  5809 ;;  cp              3    0        PTR const unsigned char 
  5810 ;;  val             2   44[COMRAM] unsigned int 
  5811 ;;  ap              2   40[COMRAM] PTR void [1]
  5812 ;;		 -> ?_sprintf(2), 
  5813 ;;  len             2    0        unsigned int 
  5814 ;;  c               1   46[COMRAM] char 
  5815 ;;  prec            1   43[COMRAM] char 
  5816 ;;  flag            1   42[COMRAM] unsigned char 
  5817 ;; Return value:  Size  Location     Type
  5818 ;;                  2   33[COMRAM] int 
  5819 ;; Registers used:
  5820 ;;		wreg, fsr2l, fsr2h, status,2, status,0, tblptrl, tblptrh, tblptru, prodl, prodh, cstack
  5821 ;; Tracked objects:
  5822 ;;		On entry : 0/0
  5823 ;;		On exit  : 0/0
  5824 ;;		Unchanged: 0/0
  5825 ;; Data sizes:     COMRAM   BANK0   BANK1   BANK2   BANK3   BANK4   BANK5   BANK6   BANK7
  5826 ;;      Params:         6       0       0       0       0       0       0       0       0
  5827 ;;      Locals:         7       0       0       0       0       0       0       0       0
  5828 ;;      Temps:          1       0       0       0       0       0       0       0       0
  5829 ;;      Totals:        14       0       0       0       0       0       0       0       0
  5830 ;;Total ram usage:       14 bytes
  5831 ;; Hardware stack levels used:    1
  5832 ;; Hardware stack levels required when called:    4
  5833 ;; This function calls:
  5834 ;;		___lwdiv
  5835 ;;		___lwmod
  5836 ;; This function is called by:
  5837 ;;		_printscore
  5838 ;;		_changeStages
  5839 ;; This function uses a non-reentrant model
  5840 ;;
  5841                           
  5842                           	psect	text7
  5843  00203E                     __ptext7:
  5844                           	opt stack 0
  5845  00203E                     _sprintf:
  5846                           	opt stack 25
  5847                           
  5848                           ;doprnt.c: 494: va_list ap;
  5849                           ;doprnt.c: 499: signed char c;
  5850                           ;doprnt.c: 506: signed char prec;
  5851                           ;doprnt.c: 508: unsigned char flag;
  5852                           ;doprnt.c: 523: union {
  5853                           ;doprnt.c: 524: unsigned long vd;
  5854                           ;doprnt.c: 525: double integ;
  5855                           ;doprnt.c: 526: } tmpval;
  5856                           ;doprnt.c: 528: unsigned int val;
  5857                           ;doprnt.c: 529: unsigned len;
  5858                           ;doprnt.c: 530: const char * cp;
  5859                           ;doprnt.c: 533: *ap = __va_start();
  5860                           
  5861                           ; BSR set to: 0
  5862                           ;incstack = 0
  5863  00203E  0E26               	movlw	low (?_sprintf+4)
  5864  002040  6E29               	movwf	sprintf@ap,c
  5865  002042  0E00               	movlw	high (?_sprintf+4)
  5866  002044  6E2A               	movwf	sprintf@ap+1,c
  5867                           
  5868                           ;doprnt.c: 536: while(c = *f++) {
  5869  002046  D08C               	goto	u3800
  5870  002048                     
  5871                           ;doprnt.c: 538: if(c != '%')
  5872  002048  0E25               	movlw	37
  5873  00204A  182F               	xorwf	sprintf@c,w,c
  5874  00204C  B4D8               	btfsc	status,2,c
  5875  00204E  D009               	goto	l1536
  5876                           
  5877                           ;doprnt.c: 540: {
  5878                           ;doprnt.c: 541: ((*sp++ = (c)));
  5879  002050  C022  FFD9         	movff	sprintf@sp,fsr2l
  5880  002054  C023  FFDA         	movff	sprintf@sp+1,fsr2h
  5881  002058  C02F  FFDF         	movff	sprintf@c,indf2
  5882  00205C  4A22               	infsnz	sprintf@sp,f,c
  5883  00205E  2A23               	incf	sprintf@sp+1,f,c
  5884                           
  5885                           ;doprnt.c: 542: continue;
  5886  002060  D07F               	goto	u3800
  5887  002062                     l1536:
  5888                           
  5889                           ;doprnt.c: 543: }
  5890                           ;doprnt.c: 548: flag = 0;
  5891  002062  0E00               	movlw	0
  5892  002064  6E2B               	movwf	sprintf@flag,c
  5893                           
  5894                           ;doprnt.c: 822: }
  5895                           
  5896                           ;doprnt.c: 813: continue;
  5897                           
  5898                           ;doprnt.c: 802: default:
  5899                           
  5900                           ;doprnt.c: 698: case 'i':
  5901                           ;doprnt.c: 699: break;
  5902                           
  5903                           ;doprnt.c: 697: case 'd':
  5904                           
  5905                           ;doprnt.c: 638: goto alldone;
  5906                           
  5907                           ;doprnt.c: 637: case 0:
  5908                           
  5909                           ;doprnt.c: 635: switch(c = *f++) {
  5910  002066  C024  FFF6         	movff	sprintf@f,tblptrl
  5911  00206A  C025  FFF7         	movff	sprintf@f+1,tblptrh
  5912  00206E  4A24               	infsnz	sprintf@f,f,c
  5913  002070  2A25               	incf	sprintf@f+1,f,c
  5914  002072                     	if	0	;tblptru may be non-zero
  5915  002072                     	endif
  5916  002072                     	if	0	;tblptru may be non-zero
  5917  002072                     	endif
  5918  002072  0008               	tblrd		*
  5919  002074  CFF5 F02F          	movff	tablat,sprintf@c
  5920  002078  502F               	movf	sprintf@c,w,c
  5921                           
  5922                           ; Switch size 1, requested type "space"
  5923                           ; Number of cases is 3, Range of values is 0 to 105
  5924                           ; switch strategies available:
  5925                           ; Name         Instructions Cycles
  5926                           ; simple_byte           10     6 (average)
  5927                           ;	Chosen strategy is simple_byte
  5928  00207A  0A00               	xorlw	0	; case 0
  5929  00207C  B4D8               	btfsc	status,2,c
  5930  00207E  D07C               	goto	u3810
  5931  002080  0A64               	xorlw	100	; case 100
  5932  002082  B4D8               	btfsc	status,2,c
  5933  002084  D003               	goto	l1542
  5934  002086  0A0D               	xorlw	13	; case 105
  5935  002088  A4D8               	btfss	status,2,c
  5936  00208A  D06A               	goto	u3800
  5937  00208C                     l1542:
  5938                           
  5939                           ;doprnt.c: 1253: {
  5940                           ;doprnt.c: 1259: val = (int)(*(int *)__va_arg((*(int **)ap), (int)0));
  5941  00208C  C029  FFD9         	movff	sprintf@ap,fsr2l
  5942  002090  C02A  FFDA         	movff	sprintf@ap+1,fsr2h
  5943  002094  CFDE F02D          	movff	postinc2,sprintf@val
  5944  002098  CFDD F02E          	movff	postdec2,sprintf@val+1
  5945  00209C  0E02               	movlw	2
  5946  00209E  2629               	addwf	sprintf@ap,f,c
  5947  0020A0  0E00               	movlw	0
  5948  0020A2  222A               	addwfc	sprintf@ap+1,f,c
  5949                           
  5950                           ;doprnt.c: 1261: if((int)val < 0) {
  5951  0020A4  AE2E               	btfss	sprintf@val+1,7,c
  5952  0020A6  D006               	goto	l1544
  5953                           
  5954                           ;doprnt.c: 1262: flag |= 0x03;
  5955  0020A8  0E03               	movlw	3
  5956  0020AA  122B               	iorwf	sprintf@flag,f,c
  5957                           
  5958                           ;doprnt.c: 1263: val = -val;
  5959  0020AC  6C2D               	negf	sprintf@val,c
  5960  0020AE  1E2E               	comf	sprintf@val+1,f,c
  5961  0020B0  B0D8               	btfsc	status,0,c
  5962  0020B2  2A2E               	incf	sprintf@val+1,f,c
  5963  0020B4                     l1544:
  5964                           
  5965                           ;doprnt.c: 1264: }
  5966                           ;doprnt.c: 1266: }
  5967                           ;doprnt.c: 1305: for(c = 1 ; c != sizeof dpowers/sizeof dpowers[0] ; c++)
  5968  0020B4  0E01               	movlw	1
  5969  0020B6  6E2F               	movwf	sprintf@c,c
  5970  0020B8                     l5690:
  5971  0020B8  0E05               	movlw	5
  5972  0020BA  182F               	xorwf	sprintf@c,w,c
  5973  0020BC  B4D8               	btfsc	status,2,c
  5974  0020BE  D012               	goto	u3780
  5975                           
  5976                           ;doprnt.c: 1306: if(val < dpowers[c])
  5977  0020C0  502F               	movf	sprintf@c,w,c
  5978  0020C2  0D02               	mullw	2
  5979  0020C4  0ED7               	movlw	low _dpowers
  5980  0020C6  24F3               	addwf	prodl,w,c
  5981  0020C8  6EF6               	movwf	tblptrl,c
  5982  0020CA  0E7E               	movlw	high _dpowers
  5983  0020CC  20F4               	addwfc	prodh,w,c
  5984  0020CE  6EF7               	movwf	tblptrh,c
  5985  0020D0                     	if	0	;There are less than 3 active tblptr bytes
  5986  0020D0                     	endif
  5987  0020D0  0009               	tblrd		*+
  5988  0020D2  50F5               	movf	tablat,w,c
  5989  0020D4  5C2D               	subwf	sprintf@val,w,c
  5990  0020D6  0009               	tblrd		*+
  5991  0020D8  50F5               	movf	tablat,w,c
  5992  0020DA  582E               	subwfb	sprintf@val+1,w,c
  5993  0020DC  A0D8               	btfss	status,0,c
  5994  0020DE  D002               	goto	u3780
  5995                           
  5996                           ;doprnt.c: 1307: break;
  5997  0020E0  2A2F               	incf	sprintf@c,f,c
  5998  0020E2  D7EA               	goto	l5690
  5999  0020E4                     u3780:
  6000                           
  6001                           ;doprnt.c: 1422: {
  6002                           ;doprnt.c: 1438: if(flag & 0x03)
  6003  0020E4  C02B  F028         	movff	sprintf@flag,??_sprintf
  6004  0020E8  0E03               	movlw	3
  6005  0020EA  1628               	andwf	??_sprintf,f,c
  6006  0020EC  B4D8               	btfsc	status,2,c
  6007  0020EE  D008               	goto	l1548
  6008                           
  6009                           ;doprnt.c: 1439: ((*sp++ = ('-')));
  6010  0020F0  C022  FFD9         	movff	sprintf@sp,fsr2l
  6011  0020F4  C023  FFDA         	movff	sprintf@sp+1,fsr2h
  6012  0020F8  0E2D               	movlw	45
  6013  0020FA  6EDF               	movwf	indf2,c
  6014  0020FC  4A22               	infsnz	sprintf@sp,f,c
  6015  0020FE  2A23               	incf	sprintf@sp+1,f,c
  6016  002100                     l1548:
  6017                           
  6018                           ;doprnt.c: 1469: }
  6019                           ;doprnt.c: 1472: prec = c;
  6020  002100  C02F  F02C         	movff	sprintf@c,sprintf@prec
  6021                           
  6022                           ;doprnt.c: 1474: while(prec--) {
  6023  002104  D029               	goto	l1549
  6024  002106                     
  6025                           ;doprnt.c: 1478: {
  6026                           ;doprnt.c: 1489: c = (val / dpowers[prec]) % 10 + '0';
  6027  002106  502C               	movf	sprintf@prec,w,c
  6028  002108  0D02               	mullw	2
  6029  00210A  0ED7               	movlw	low _dpowers
  6030  00210C  24F3               	addwf	prodl,w,c
  6031  00210E  6EF6               	movwf	tblptrl,c
  6032  002110  0E7E               	movlw	high _dpowers
  6033  002112  20F4               	addwfc	prodh,w,c
  6034  002114  6EF7               	movwf	tblptrh,c
  6035  002116                     	if	0	;There are less than 3 active tblptr bytes
  6036  002116                     	endif
  6037  002116  0009               	tblrd		*+
  6038  002118  CFF5 F018          	movff	tablat,___lwdiv@divisor
  6039  00211C  000A               	tblrd		*-
  6040  00211E  CFF5 F019          	movff	tablat,___lwdiv@divisor+1
  6041  002122  C02D  F016         	movff	sprintf@val,___lwdiv@dividend
  6042  002126  C02E  F017         	movff	sprintf@val+1,___lwdiv@dividend+1
  6043  00212A  EC51  F012         	call	___lwdiv	;wreg free
  6044  00212E  C016  F01D         	movff	?___lwdiv,___lwmod@dividend
  6045  002132  C017  F01E         	movff	?___lwdiv+1,___lwmod@dividend+1
  6046  002136  0E00               	movlw	0
  6047  002138  6E20               	movwf	___lwmod@divisor+1,c
  6048  00213A  0E0A               	movlw	10
  6049  00213C  6E1F               	movwf	___lwmod@divisor,c
  6050  00213E  ECC6  F012         	call	___lwmod	;wreg free
  6051  002142  501D               	movf	?___lwmod,w,c
  6052  002144  0F30               	addlw	48
  6053  002146  6E2F               	movwf	sprintf@c,c
  6054                           
  6055                           ;doprnt.c: 1523: }
  6056                           ;doprnt.c: 1524: ((*sp++ = (c)));
  6057  002148  C022  FFD9         	movff	sprintf@sp,fsr2l
  6058  00214C  C023  FFDA         	movff	sprintf@sp+1,fsr2h
  6059  002150  C02F  FFDF         	movff	sprintf@c,indf2
  6060  002154  4A22               	infsnz	sprintf@sp,f,c
  6061  002156  2A23               	incf	sprintf@sp+1,f,c
  6062  002158                     l1549:
  6063  002158  062C               	decf	sprintf@prec,f,c
  6064  00215A  282C               	incf	sprintf@prec,w,c
  6065  00215C  A4D8               	btfss	status,2,c
  6066  00215E  D7D3               	goto	l1550
  6067  002160                     u3800:
  6068  002160  C024  FFF6         	movff	sprintf@f,tblptrl
  6069  002164  C025  FFF7         	movff	sprintf@f+1,tblptrh
  6070  002168  4A24               	infsnz	sprintf@f,f,c
  6071  00216A  2A25               	incf	sprintf@f+1,f,c
  6072  00216C                     	if	0	;tblptru may be non-zero
  6073  00216C                     	endif
  6074  00216C                     	if	0	;tblptru may be non-zero
  6075  00216C                     	endif
  6076  00216C  0008               	tblrd		*
  6077  00216E  CFF5 F02F          	movff	tablat,sprintf@c
  6078  002172  502F               	movf	sprintf@c,w,c
  6079  002174  A4D8               	btfss	status,2,c
  6080  002176  D768               	goto	l1535
  6081  002178                     u3810:
  6082                           
  6083                           ;doprnt.c: 1538: *sp = 0;
  6084                           
  6085                           ;doprnt.c: 1525: }
  6086                           ;doprnt.c: 1533: }
  6087                           ;doprnt.c: 1535: alldone:
  6088  002178  C022  FFD9         	movff	sprintf@sp,fsr2l
  6089  00217C  C023  FFDA         	movff	sprintf@sp+1,fsr2h
  6090  002180  0E00               	movlw	0
  6091  002182  6EDF               	movwf	indf2,c
  6092  002184  0012               	return	
  6093  002186                     __end_of_sprintf:
  6094                           	opt stack 0
  6095                           tblptru	equ	0xFF8
  6096                           tblptrh	equ	0xFF7
  6097                           tblptrl	equ	0xFF6
  6098                           tablat	equ	0xFF5
  6099                           prodh	equ	0xFF4
  6100                           prodl	equ	0xFF3
  6101                           intcon	equ	0xFF2
  6102                           postinc0	equ	0xFEE
  6103                           wreg	equ	0xFE8
  6104                           postdec1	equ	0xFE5
  6105                           fsr1l	equ	0xFE1
  6106                           indf2	equ	0xFDF
  6107                           postinc2	equ	0xFDE
  6108                           postdec2	equ	0xFDD
  6109                           fsr2h	equ	0xFDA
  6110                           fsr2l	equ	0xFD9
  6111                           status	equ	0xFD8
  6112                           
  6113 ;; *************** function ___lwmod *****************
  6114 ;; Defined at:
  6115 ;;		line 8 in file "C:\Program Files (x86)\Microchip\xc8\v1.43\sources\common\lwmod.c"
  6116 ;; Parameters:    Size  Location     Type
  6117 ;;  dividend        2   28[COMRAM] unsigned int 
  6118 ;;  divisor         2   30[COMRAM] unsigned int 
  6119 ;; Auto vars:     Size  Location     Type
  6120 ;;  counter         1   32[COMRAM] unsigned char 
  6121 ;; Return value:  Size  Location     Type
  6122 ;;                  2   28[COMRAM] unsigned int 
  6123 ;; Registers used:
  6124 ;;		wreg, status,2, status,0
  6125 ;; Tracked objects:
  6126 ;;		On entry : 0/0
  6127 ;;		On exit  : 0/0
  6128 ;;		Unchanged: 0/0
  6129 ;; Data sizes:     COMRAM   BANK0   BANK1   BANK2   BANK3   BANK4   BANK5   BANK6   BANK7
  6130 ;;      Params:         4       0       0       0       0       0       0       0       0
  6131 ;;      Locals:         1       0       0       0       0       0       0       0       0
  6132 ;;      Temps:          0       0       0       0       0       0       0       0       0
  6133 ;;      Totals:         5       0       0       0       0       0       0       0       0
  6134 ;;Total ram usage:        5 bytes
  6135 ;; Hardware stack levels used:    1
  6136 ;; Hardware stack levels required when called:    3
  6137 ;; This function calls:
  6138 ;;		Nothing
  6139 ;; This function is called by:
  6140 ;;		_sprintf
  6141 ;; This function uses a non-reentrant model
  6142 ;;
  6143                           
  6144                           	psect	text8
  6145  00258C                     __ptext8:
  6146                           	opt stack 0
  6147  00258C                     ___lwmod:
  6148                           	opt stack 25
  6149                           
  6150                           ;incstack = 0
  6151  00258C  501F               	movf	___lwmod@divisor,w,c
  6152  00258E  1020               	iorwf	___lwmod@divisor+1,w,c
  6153  002590  B4D8               	btfsc	status,2,c
  6154  002592  D018               	goto	l1979
  6155  002594  0E01               	movlw	1
  6156  002596  6E21               	movwf	___lwmod@counter,c
  6157  002598  D004               	goto	l1974
  6158  00259A  90D8               	bcf	status,0,c
  6159  00259C  361F               	rlcf	___lwmod@divisor,f,c
  6160  00259E  3620               	rlcf	___lwmod@divisor+1,f,c
  6161  0025A0  2A21               	incf	___lwmod@counter,f,c
  6162  0025A2                     l1974:
  6163  0025A2  AE20               	btfss	___lwmod@divisor+1,7,c
  6164  0025A4  D7FA               	goto	l1975
  6165  0025A6                     u3660:
  6166  0025A6  501F               	movf	___lwmod@divisor,w,c
  6167  0025A8  5C1D               	subwf	___lwmod@dividend,w,c
  6168  0025AA  5020               	movf	___lwmod@divisor+1,w,c
  6169  0025AC  581E               	subwfb	___lwmod@dividend+1,w,c
  6170  0025AE  A0D8               	btfss	status,0,c
  6171  0025B0  D004               	goto	l1978
  6172  0025B2  501F               	movf	___lwmod@divisor,w,c
  6173  0025B4  5E1D               	subwf	___lwmod@dividend,f,c
  6174  0025B6  5020               	movf	___lwmod@divisor+1,w,c
  6175  0025B8  5A1E               	subwfb	___lwmod@dividend+1,f,c
  6176  0025BA                     l1978:
  6177  0025BA  90D8               	bcf	status,0,c
  6178  0025BC  3220               	rrcf	___lwmod@divisor+1,f,c
  6179  0025BE  321F               	rrcf	___lwmod@divisor,f,c
  6180  0025C0  2E21               	decfsz	___lwmod@counter,f,c
  6181  0025C2  D7F1               	goto	u3660
  6182  0025C4                     l1979:
  6183  0025C4  C01D  F01D         	movff	___lwmod@dividend,?___lwmod
  6184  0025C8  C01E  F01E         	movff	___lwmod@dividend+1,?___lwmod+1
  6185  0025CC  0012               	return		;funcret
  6186  0025CE                     __end_of___lwmod:
  6187                           	opt stack 0
  6188                           tblptru	equ	0xFF8
  6189                           tblptrh	equ	0xFF7
  6190                           tblptrl	equ	0xFF6
  6191                           tablat	equ	0xFF5
  6192                           prodh	equ	0xFF4
  6193                           prodl	equ	0xFF3
  6194                           intcon	equ	0xFF2
  6195                           postinc0	equ	0xFEE
  6196                           wreg	equ	0xFE8
  6197                           postdec1	equ	0xFE5
  6198                           fsr1l	equ	0xFE1
  6199                           indf2	equ	0xFDF
  6200                           postinc2	equ	0xFDE
  6201                           postdec2	equ	0xFDD
  6202                           fsr2h	equ	0xFDA
  6203                           fsr2l	equ	0xFD9
  6204                           status	equ	0xFD8
  6205                           
  6206 ;; *************** function ___lwdiv *****************
  6207 ;; Defined at:
  6208 ;;		line 8 in file "C:\Program Files (x86)\Microchip\xc8\v1.43\sources\common\lwdiv.c"
  6209 ;; Parameters:    Size  Location     Type
  6210 ;;  dividend        2   21[COMRAM] unsigned int 
  6211 ;;  divisor         2   23[COMRAM] unsigned int 
  6212 ;; Auto vars:     Size  Location     Type
  6213 ;;  quotient        2   26[COMRAM] unsigned int 
  6214 ;;  counter         1   25[COMRAM] unsigned char 
  6215 ;; Return value:  Size  Location     Type
  6216 ;;                  2   21[COMRAM] unsigned int 
  6217 ;; Registers used:
  6218 ;;		wreg, status,2, status,0
  6219 ;; Tracked objects:
  6220 ;;		On entry : 0/0
  6221 ;;		On exit  : 0/0
  6222 ;;		Unchanged: 0/0
  6223 ;; Data sizes:     COMRAM   BANK0   BANK1   BANK2   BANK3   BANK4   BANK5   BANK6   BANK7
  6224 ;;      Params:         4       0       0       0       0       0       0       0       0
  6225 ;;      Locals:         3       0       0       0       0       0       0       0       0
  6226 ;;      Temps:          0       0       0       0       0       0       0       0       0
  6227 ;;      Totals:         7       0       0       0       0       0       0       0       0
  6228 ;;Total ram usage:        7 bytes
  6229 ;; Hardware stack levels used:    1
  6230 ;; Hardware stack levels required when called:    3
  6231 ;; This function calls:
  6232 ;;		Nothing
  6233 ;; This function is called by:
  6234 ;;		_sprintf
  6235 ;; This function uses a non-reentrant model
  6236 ;;
  6237                           
  6238                           	psect	text9
  6239  0024A2                     __ptext9:
  6240                           	opt stack 0
  6241  0024A2                     ___lwdiv:
  6242                           	opt stack 25
  6243                           
  6244                           ;incstack = 0
  6245  0024A2  0E00               	movlw	0
  6246  0024A4  6E1C               	movwf	___lwdiv@quotient+1,c
  6247  0024A6  0E00               	movlw	0
  6248  0024A8  6E1B               	movwf	___lwdiv@quotient,c
  6249  0024AA  5018               	movf	___lwdiv@divisor,w,c
  6250  0024AC  1019               	iorwf	___lwdiv@divisor+1,w,c
  6251  0024AE  B4D8               	btfsc	status,2,c
  6252  0024B0  D01C               	goto	l1969
  6253  0024B2  0E01               	movlw	1
  6254  0024B4  6E1A               	movwf	___lwdiv@counter,c
  6255  0024B6  D004               	goto	l1964
  6256  0024B8  90D8               	bcf	status,0,c
  6257  0024BA  3618               	rlcf	___lwdiv@divisor,f,c
  6258  0024BC  3619               	rlcf	___lwdiv@divisor+1,f,c
  6259  0024BE  2A1A               	incf	___lwdiv@counter,f,c
  6260  0024C0                     l1964:
  6261  0024C0  AE19               	btfss	___lwdiv@divisor+1,7,c
  6262  0024C2  D7FA               	goto	l1965
  6263  0024C4                     u3630:
  6264  0024C4  90D8               	bcf	status,0,c
  6265  0024C6  361B               	rlcf	___lwdiv@quotient,f,c
  6266  0024C8  361C               	rlcf	___lwdiv@quotient+1,f,c
  6267  0024CA  5018               	movf	___lwdiv@divisor,w,c
  6268  0024CC  5C16               	subwf	___lwdiv@dividend,w,c
  6269  0024CE  5019               	movf	___lwdiv@divisor+1,w,c
  6270  0024D0  5817               	subwfb	___lwdiv@dividend+1,w,c
  6271  0024D2  A0D8               	btfss	status,0,c
  6272  0024D4  D005               	goto	l1968
  6273  0024D6  5018               	movf	___lwdiv@divisor,w,c
  6274  0024D8  5E16               	subwf	___lwdiv@dividend,f,c
  6275  0024DA  5019               	movf	___lwdiv@divisor+1,w,c
  6276  0024DC  5A17               	subwfb	___lwdiv@dividend+1,f,c
  6277  0024DE  801B               	bsf	___lwdiv@quotient,0,c
  6278  0024E0                     l1968:
  6279  0024E0  90D8               	bcf	status,0,c
  6280  0024E2  3219               	rrcf	___lwdiv@divisor+1,f,c
  6281  0024E4  3218               	rrcf	___lwdiv@divisor,f,c
  6282  0024E6  2E1A               	decfsz	___lwdiv@counter,f,c
  6283  0024E8  D7ED               	goto	u3630
  6284  0024EA                     l1969:
  6285  0024EA  C01B  F016         	movff	___lwdiv@quotient,?___lwdiv
  6286  0024EE  C01C  F017         	movff	___lwdiv@quotient+1,?___lwdiv+1
  6287  0024F2  0012               	return		;funcret
  6288  0024F4                     __end_of___lwdiv:
  6289                           	opt stack 0
  6290                           tblptru	equ	0xFF8
  6291                           tblptrh	equ	0xFF7
  6292                           tblptrl	equ	0xFF6
  6293                           tablat	equ	0xFF5
  6294                           prodh	equ	0xFF4
  6295                           prodl	equ	0xFF3
  6296                           intcon	equ	0xFF2
  6297                           postinc0	equ	0xFEE
  6298                           wreg	equ	0xFE8
  6299                           postdec1	equ	0xFE5
  6300                           fsr1l	equ	0xFE1
  6301                           indf2	equ	0xFDF
  6302                           postinc2	equ	0xFDE
  6303                           postdec2	equ	0xFDD
  6304                           fsr2h	equ	0xFDA
  6305                           fsr2l	equ	0xFD9
  6306                           status	equ	0xFD8
  6307                           
  6308 ;; *************** function _putsXLCD *****************
  6309 ;; Defined at:
  6310 ;;		line 16 in file "XLCD/putsxlcd.c"
  6311 ;; Parameters:    Size  Location     Type
  6312 ;;  buffer          2   22[COMRAM] PTR unsigned char 
  6313 ;;		 -> STR_243(13), STR_242(11), STR_241(13), STR_240(11), 
  6314 ;;		 -> STR_239(13), STR_238(11), STR_237(13), STR_236(11), 
  6315 ;;		 -> STR_235(13), STR_234(11), STR_233(13), STR_232(11), 
  6316 ;;		 -> STR_231(13), STR_230(11), STR_229(13), STR_228(11), 
  6317 ;;		 -> STR_227(13), STR_226(11), STR_225(12), STR_224(12), 
  6318 ;;		 -> STR_223(12), STR_222(12), STR_221(12), STR_220(12), 
  6319 ;;		 -> STR_219(12), STR_218(12), STR_217(12), STR_216(12), 
  6320 ;;		 -> STR_215(12), STR_214(12), STR_213(12), STR_212(12), 
  6321 ;;		 -> STR_211(12), STR_210(12), STR_209(12), STR_208(12), 
  6322 ;;		 -> STR_207(12), STR_206(12), STR_205(12), STR_204(12), 
  6323 ;;		 -> STR_203(12), STR_202(12), STR_201(12), STR_200(12), 
  6324 ;;		 -> STR_199(12), STR_198(12), STR_197(12), STR_196(12), 
  6325 ;;		 -> STR_195(12), STR_194(12), STR_193(12), STR_192(12), 
  6326 ;;		 -> STR_191(12), STR_190(12), STR_189(12), STR_188(12), 
  6327 ;;		 -> STR_187(12), STR_186(12), STR_185(12), STR_184(12), 
  6328 ;;		 -> STR_183(13), STR_182(11), STR_181(13), STR_180(11), 
  6329 ;;		 -> STR_179(13), STR_178(11), STR_177(13), STR_176(11), 
  6330 ;;		 -> STR_175(13), STR_174(11), STR_173(13), STR_172(11), 
  6331 ;;		 -> STR_171(13), STR_170(11), STR_169(13), STR_168(11), 
  6332 ;;		 -> STR_167(13), STR_166(11), STR_165(12), STR_164(12), 
  6333 ;;		 -> STR_163(12), STR_162(12), STR_161(12), STR_160(12), 
  6334 ;;		 -> STR_159(12), STR_158(12), STR_157(12), STR_156(12), 
  6335 ;;		 -> STR_155(12), STR_154(12), STR_153(12), STR_152(12), 
  6336 ;;		 -> STR_151(12), STR_150(12), STR_149(12), STR_148(12), 
  6337 ;;		 -> STR_147(12), STR_146(12), STR_145(12), STR_144(12), 
  6338 ;;		 -> STR_143(12), STR_142(12), STR_141(12), STR_140(12), 
  6339 ;;		 -> STR_139(12), STR_138(12), STR_137(12), STR_136(12), 
  6340 ;;		 -> STR_135(12), STR_134(12), STR_133(12), STR_132(12), 
  6341 ;;		 -> STR_131(12), STR_130(12), STR_129(12), STR_128(12), 
  6342 ;;		 -> STR_127(12), STR_126(12), STR_125(12), STR_124(12), 
  6343 ;;		 -> STR_123(13), STR_122(11), STR_121(13), STR_120(11), 
  6344 ;;		 -> STR_119(13), STR_118(11), STR_117(13), STR_116(11), 
  6345 ;;		 -> STR_115(13), STR_114(11), STR_113(13), STR_112(11), 
  6346 ;;		 -> STR_111(13), STR_110(11), STR_109(13), STR_108(11), 
  6347 ;;		 -> STR_107(13), STR_106(11), STR_105(12), STR_104(12), 
  6348 ;;		 -> STR_103(12), STR_102(12), STR_101(12), STR_100(12), 
  6349 ;;		 -> STR_99(12), STR_98(12), STR_97(12), STR_96(12), 
  6350 ;;		 -> STR_95(12), STR_94(12), STR_93(12), STR_92(12), 
  6351 ;;		 -> STR_91(12), STR_90(12), STR_89(12), STR_88(12), 
  6352 ;;		 -> STR_87(12), STR_86(12), STR_85(12), STR_84(12), 
  6353 ;;		 -> STR_83(12), STR_82(12), STR_81(12), STR_80(12), 
  6354 ;;		 -> STR_79(12), STR_78(12), STR_77(12), STR_76(12), 
  6355 ;;		 -> STR_75(12), STR_74(12), STR_73(12), STR_72(12), 
  6356 ;;		 -> STR_71(12), STR_70(12), STR_69(12), STR_68(12), 
  6357 ;;		 -> STR_67(12), STR_66(12), STR_65(12), STR_64(12), 
  6358 ;;		 -> STR_63(13), STR_62(11), STR_61(13), STR_60(11), 
  6359 ;;		 -> STR_59(13), STR_58(11), STR_57(13), STR_56(11), 
  6360 ;;		 -> STR_55(13), STR_54(11), STR_53(13), STR_52(11), 
  6361 ;;		 -> STR_51(13), STR_50(11), STR_49(13), STR_48(11), 
  6362 ;;		 -> STR_47(13), STR_46(11), STR_45(12), STR_44(12), 
  6363 ;;		 -> STR_43(12), STR_42(12), STR_41(12), STR_40(12), 
  6364 ;;		 -> STR_39(12), STR_38(12), STR_37(12), STR_36(12), 
  6365 ;;		 -> STR_35(12), STR_34(12), STR_33(12), STR_32(12), 
  6366 ;;		 -> STR_31(12), STR_30(12), STR_29(12), STR_28(12), 
  6367 ;;		 -> STR_27(12), STR_26(12), STR_25(12), STR_24(12), 
  6368 ;;		 -> STR_23(12), STR_22(12), STR_21(12), STR_20(12), 
  6369 ;;		 -> STR_19(12), STR_18(12), STR_17(12), STR_16(12), 
  6370 ;;		 -> STR_15(12), STR_14(12), STR_13(12), STR_12(12), 
  6371 ;;		 -> STR_11(12), STR_10(12), STR_9(12), STR_8(12), 
  6372 ;;		 -> STR_7(12), STR_6(12), STR_5(12), STR_4(12), 
  6373 ;;		 -> changeStages@buffer(10), printscore@buffer2(10), STR_1(16), 
  6374 ;; Auto vars:     Size  Location     Type
  6375 ;;		None
  6376 ;; Return value:  Size  Location     Type
  6377 ;;                  1    wreg      void 
  6378 ;; Registers used:
  6379 ;;		wreg, fsr0l, fsr0h, status,2, status,0, tblptrl, tblptrh, tblptru, cstack
  6380 ;; Tracked objects:
  6381 ;;		On entry : 0/0
  6382 ;;		On exit  : 0/0
  6383 ;;		Unchanged: 0/0
  6384 ;; Data sizes:     COMRAM   BANK0   BANK1   BANK2   BANK3   BANK4   BANK5   BANK6   BANK7
  6385 ;;      Params:         2       0       0       0       0       0       0       0       0
  6386 ;;      Locals:         0       0       0       0       0       0       0       0       0
  6387 ;;      Temps:          0       0       0       0       0       0       0       0       0
  6388 ;;      Totals:         2       0       0       0       0       0       0       0       0
  6389 ;;Total ram usage:        2 bytes
  6390 ;; Hardware stack levels used:    1
  6391 ;; Hardware stack levels required when called:    5
  6392 ;; This function calls:
  6393 ;;		_BusyXLCD
  6394 ;;		_WriteDataXLCD
  6395 ;; This function is called by:
  6396 ;;		_printscore
  6397 ;;		_changeStages
  6398 ;; This function uses a non-reentrant model
  6399 ;;
  6400                           
  6401                           	psect	text10
  6402  00239A                     __ptext10:
  6403                           	opt stack 0
  6404  00239A                     _putsXLCD:
  6405                           	opt stack 24
  6406                           
  6407                           ;putsxlcd.c: 18: while(*buffer)
  6408                           
  6409                           ;incstack = 0
  6410  00239A  D019               	goto	l105
  6411  00239C                     
  6412                           ;putsxlcd.c: 19: {
  6413                           ;putsxlcd.c: 20: while(BusyXLCD());
  6414  00239C  EC43  F013         	call	_BusyXLCD	;wreg free
  6415  0023A0  0900               	iorlw	0
  6416  0023A2  A4D8               	btfss	status,2,c
  6417  0023A4  D7FB               	goto	l106
  6418                           
  6419                           ;putsxlcd.c: 21: WriteDataXLCD(*buffer);
  6420  0023A6  C017  FFF6         	movff	putsXLCD@buffer,tblptrl
  6421  0023AA  C018  FFF7         	movff	putsXLCD@buffer+1,tblptrh
  6422  0023AE  6AF8               	clrf	tblptru,c
  6423  0023B0  0E07               	movlw	(high __ramtop+-1)
  6424  0023B2  64F7               	cpfsgt	tblptrh,c
  6425  0023B4  D003               	bra	u3697
  6426  0023B6  0008               	tblrd		*
  6427  0023B8  50F5               	movf	tablat,w,c
  6428  0023BA  D005               	bra	u3690
  6429  0023BC                     u3697:
  6430  0023BC  CFF6 FFE9          	movff	tblptrl,fsr0l
  6431  0023C0  CFF7 FFEA          	movff	tblptrh,fsr0h
  6432  0023C4  50EF               	movf	indf0,w,c
  6433  0023C6                     u3690:
  6434  0023C6  ECE7  F012         	call	_WriteDataXLCD
  6435                           
  6436                           ;putsxlcd.c: 22: buffer++;
  6437  0023CA  4A17               	infsnz	putsXLCD@buffer,f,c
  6438  0023CC  2A18               	incf	putsXLCD@buffer+1,f,c
  6439  0023CE                     l105:
  6440  0023CE  C017  FFF6         	movff	putsXLCD@buffer,tblptrl
  6441  0023D2  C018  FFF7         	movff	putsXLCD@buffer+1,tblptrh
  6442  0023D6  6AF8               	clrf	tblptru,c
  6443  0023D8  0E07               	movlw	(high __ramtop+-1)
  6444  0023DA  64F7               	cpfsgt	tblptrh,c
  6445  0023DC  D003               	bra	u3707
  6446  0023DE  0008               	tblrd		*
  6447  0023E0  50F5               	movf	tablat,w,c
  6448  0023E2  D005               	bra	u3700
  6449  0023E4                     u3707:
  6450  0023E4  CFF6 FFE9          	movff	tblptrl,fsr0l
  6451  0023E8  CFF7 FFEA          	movff	tblptrh,fsr0h
  6452  0023EC  50EF               	movf	indf0,w,c
  6453  0023EE                     u3700:
  6454  0023EE  0900               	iorlw	0
  6455  0023F0  B4D8               	btfsc	status,2,c
  6456  0023F2  0012               	return	
  6457  0023F4  D7D3               	goto	l106
  6458  0023F6                     __end_of_putsXLCD:
  6459                           	opt stack 0
  6460                           tblptru	equ	0xFF8
  6461                           tblptrh	equ	0xFF7
  6462                           tblptrl	equ	0xFF6
  6463                           tablat	equ	0xFF5
  6464                           prodh	equ	0xFF4
  6465                           prodl	equ	0xFF3
  6466                           intcon	equ	0xFF2
  6467                           indf0	equ	0xFEF
  6468                           postinc0	equ	0xFEE
  6469                           fsr0h	equ	0xFEA
  6470                           fsr0l	equ	0xFE9
  6471                           wreg	equ	0xFE8
  6472                           postdec1	equ	0xFE5
  6473                           fsr1l	equ	0xFE1
  6474                           indf2	equ	0xFDF
  6475                           postinc2	equ	0xFDE
  6476                           postdec2	equ	0xFDD
  6477                           fsr2h	equ	0xFDA
  6478                           fsr2l	equ	0xFD9
  6479                           status	equ	0xFD8
  6480                           
  6481 ;; *************** function _printCharacter *****************
  6482 ;; Defined at:
  6483 ;;		line 80 in file "main.c"
  6484 ;; Parameters:    Size  Location     Type
  6485 ;;  number          2   22[COMRAM] unsigned int 
  6486 ;; Auto vars:     Size  Location     Type
  6487 ;;		None
  6488 ;; Return value:  Size  Location     Type
  6489 ;;                  1    wreg      void 
  6490 ;; Registers used:
  6491 ;;		wreg, status,2, status,0, cstack
  6492 ;; Tracked objects:
  6493 ;;		On entry : 0/0
  6494 ;;		On exit  : 0/0
  6495 ;;		Unchanged: 0/0
  6496 ;; Data sizes:     COMRAM   BANK0   BANK1   BANK2   BANK3   BANK4   BANK5   BANK6   BANK7
  6497 ;;      Params:         2       0       0       0       0       0       0       0       0
  6498 ;;      Locals:         0       0       0       0       0       0       0       0       0
  6499 ;;      Temps:          0       0       0       0       0       0       0       0       0
  6500 ;;      Totals:         2       0       0       0       0       0       0       0       0
  6501 ;;Total ram usage:        2 bytes
  6502 ;; Hardware stack levels used:    1
  6503 ;; Hardware stack levels required when called:    5
  6504 ;; This function calls:
  6505 ;;		_BusyXLCD
  6506 ;;		_WriteDataXLCD
  6507 ;; This function is called by:
  6508 ;;		_changeStages
  6509 ;; This function uses a non-reentrant model
  6510 ;;
  6511                           
  6512                           	psect	text11
  6513  0027E0                     __ptext11:
  6514                           	opt stack 0
  6515  0027E0                     _printCharacter:
  6516                           	opt stack 23
  6517                           
  6518                           ;main.c: 81: while(BusyXLCD());
  6519                           
  6520                           ;incstack = 0
  6521  0027E0  EC43  F013         	call	_BusyXLCD	;wreg free
  6522  0027E4  0900               	iorlw	0
  6523  0027E6  A4D8               	btfss	status,2,c
  6524  0027E8  D7FB               	goto	_printCharacter
  6525                           
  6526                           ;main.c: 82: WriteDataXLCD(number);
  6527  0027EA  5017               	movf	printCharacter@number,w,c
  6528  0027EC  ECE7  F012         	call	_WriteDataXLCD
  6529  0027F0  0012               	return		;funcret
  6530  0027F2                     __end_of_printCharacter:
  6531                           	opt stack 0
  6532                           tblptru	equ	0xFF8
  6533                           tblptrh	equ	0xFF7
  6534                           tblptrl	equ	0xFF6
  6535                           tablat	equ	0xFF5
  6536                           prodh	equ	0xFF4
  6537                           prodl	equ	0xFF3
  6538                           intcon	equ	0xFF2
  6539                           indf0	equ	0xFEF
  6540                           postinc0	equ	0xFEE
  6541                           fsr0h	equ	0xFEA
  6542                           fsr0l	equ	0xFE9
  6543                           wreg	equ	0xFE8
  6544                           postdec1	equ	0xFE5
  6545                           fsr1l	equ	0xFE1
  6546                           indf2	equ	0xFDF
  6547                           postinc2	equ	0xFDE
  6548                           postdec2	equ	0xFDD
  6549                           fsr2h	equ	0xFDA
  6550                           fsr2l	equ	0xFD9
  6551                           status	equ	0xFD8
  6552                           
  6553 ;; *************** function _SYSTEM_Initialize *****************
  6554 ;; Defined at:
  6555 ;;		line 77 in file "mcc.c"
  6556 ;; Parameters:    Size  Location     Type
  6557 ;;		None
  6558 ;; Auto vars:     Size  Location     Type
  6559 ;;		None
  6560 ;; Return value:  Size  Location     Type
  6561 ;;                  1    wreg      void 
  6562 ;; Registers used:
  6563 ;;		wreg, status,2, status,0, cstack
  6564 ;; Tracked objects:
  6565 ;;		On entry : 0/0
  6566 ;;		On exit  : 0/0
  6567 ;;		Unchanged: 0/0
  6568 ;; Data sizes:     COMRAM   BANK0   BANK1   BANK2   BANK3   BANK4   BANK5   BANK6   BANK7
  6569 ;;      Params:         0       0       0       0       0       0       0       0       0
  6570 ;;      Locals:         0       0       0       0       0       0       0       0       0
  6571 ;;      Temps:          0       0       0       0       0       0       0       0       0
  6572 ;;      Totals:         0       0       0       0       0       0       0       0       0
  6573 ;;Total ram usage:        0 bytes
  6574 ;; Hardware stack levels used:    1
  6575 ;; Hardware stack levels required when called:    7
  6576 ;; This function calls:
  6577 ;;		_INTERRUPT_Initialize
  6578 ;;		_OSCILLATOR_Initialize
  6579 ;;		_PIN_MANAGER_Initialize
  6580 ;;		_TMR0_Initialize
  6581 ;;		_XLCD_Initialize
  6582 ;; This function is called by:
  6583 ;;		_main
  6584 ;;		_changeStages
  6585 ;; This function uses a non-reentrant model
  6586 ;;
  6587                           
  6588                           	psect	text12
  6589  0027B4                     __ptext12:
  6590                           	opt stack 0
  6591  0027B4                     _SYSTEM_Initialize:
  6592                           	opt stack 21
  6593                           
  6594                           ;mcc.c: 80: INTERRUPT_Initialize();
  6595                           
  6596                           ;incstack = 0
  6597  0027B4  ECA6  F013         	call	_INTERRUPT_Initialize	;wreg free
  6598                           
  6599                           ;mcc.c: 81: PIN_MANAGER_Initialize();
  6600  0027B8  EC0A  F014         	call	_PIN_MANAGER_Initialize	;wreg free
  6601                           
  6602                           ;mcc.c: 82: OSCILLATOR_Initialize();
  6603  0027BC  EC15  F014         	call	_OSCILLATOR_Initialize	;wreg free
  6604                           
  6605                           ;mcc.c: 83: XLCD_Initialize();
  6606  0027C0  EC25  F013         	call	_XLCD_Initialize	;wreg free
  6607                           
  6608                           ;mcc.c: 88: TMR0_Initialize();
  6609  0027C4  ECB4  F013         	call	_TMR0_Initialize	;wreg free
  6610  0027C8  0012               	return		;funcret
  6611  0027CA                     __end_of_SYSTEM_Initialize:
  6612                           	opt stack 0
  6613                           tblptru	equ	0xFF8
  6614                           tblptrh	equ	0xFF7
  6615                           tblptrl	equ	0xFF6
  6616                           tablat	equ	0xFF5
  6617                           prodh	equ	0xFF4
  6618                           prodl	equ	0xFF3
  6619                           intcon	equ	0xFF2
  6620                           indf0	equ	0xFEF
  6621                           postinc0	equ	0xFEE
  6622                           fsr0h	equ	0xFEA
  6623                           fsr0l	equ	0xFE9
  6624                           wreg	equ	0xFE8
  6625                           postdec1	equ	0xFE5
  6626                           fsr1l	equ	0xFE1
  6627                           indf2	equ	0xFDF
  6628                           postinc2	equ	0xFDE
  6629                           postdec2	equ	0xFDD
  6630                           fsr2h	equ	0xFDA
  6631                           fsr2l	equ	0xFD9
  6632                           status	equ	0xFD8
  6633                           
  6634 ;; *************** function _XLCD_Initialize *****************
  6635 ;; Defined at:
  6636 ;;		line 6 in file "user_xlcd.c"
  6637 ;; Parameters:    Size  Location     Type
  6638 ;;		None
  6639 ;; Auto vars:     Size  Location     Type
  6640 ;;		None
  6641 ;; Return value:  Size  Location     Type
  6642 ;;                  1    wreg      void 
  6643 ;; Registers used:
  6644 ;;		wreg, status,2, status,0, cstack
  6645 ;; Tracked objects:
  6646 ;;		On entry : 0/0
  6647 ;;		On exit  : 0/0
  6648 ;;		Unchanged: 0/0
  6649 ;; Data sizes:     COMRAM   BANK0   BANK1   BANK2   BANK3   BANK4   BANK5   BANK6   BANK7
  6650 ;;      Params:         0       0       0       0       0       0       0       0       0
  6651 ;;      Locals:         0       0       0       0       0       0       0       0       0
  6652 ;;      Temps:          0       0       0       0       0       0       0       0       0
  6653 ;;      Totals:         0       0       0       0       0       0       0       0       0
  6654 ;;Total ram usage:        0 bytes
  6655 ;; Hardware stack levels used:    1
  6656 ;; Hardware stack levels required when called:    6
  6657 ;; This function calls:
  6658 ;;		_BusyXLCD
  6659 ;;		_OpenXLCD
  6660 ;;		_SetDDRamAddr
  6661 ;;		_WriteCmdXLCD
  6662 ;; This function is called by:
  6663 ;;		_SYSTEM_Initialize
  6664 ;; This function uses a non-reentrant model
  6665 ;;
  6666                           
  6667                           	psect	text13
  6668  00264A                     __ptext13:
  6669                           	opt stack 0
  6670  00264A                     _XLCD_Initialize:
  6671                           	opt stack 21
  6672                           
  6673                           ;user_xlcd.c: 11: TRISDbits.TRISD7 = 0;
  6674                           
  6675                           ;incstack = 0
  6676  00264A  9E95               	bcf	3989,7,c	;volatile
  6677                           
  6678                           ;user_xlcd.c: 12: LATDbits.LATD7 = 1;
  6679  00264C  8E8C               	bsf	3980,7,c	;volatile
  6680                           
  6681                           ;user_xlcd.c: 15: OpenXLCD(0b00101100 & 0b00111000);
  6682  00264E  0E28               	movlw	40
  6683  002650  EC4B  F011         	call	_OpenXLCD
  6684  002654  EC43  F013         	call	_BusyXLCD	;wreg free
  6685  002658  0900               	iorlw	0
  6686  00265A  A4D8               	btfss	status,2,c
  6687  00265C  D7FB               	goto	l1011
  6688                           
  6689                           ;user_xlcd.c: 18: WriteCmdXLCD(0b00001111 & 0b00001111 & 0b00001111);
  6690  00265E  0E0F               	movlw	15
  6691  002660  EC06  F013         	call	_WriteCmdXLCD
  6692  002664  EC43  F013         	call	_BusyXLCD	;wreg free
  6693  002668  0900               	iorlw	0
  6694  00266A  A4D8               	btfss	status,2,c
  6695  00266C  D7FB               	goto	l1014
  6696                           
  6697                           ;user_xlcd.c: 21: WriteCmdXLCD(0b00000110);
  6698  00266E  0E06               	movlw	6
  6699  002670  EC06  F013         	call	_WriteCmdXLCD
  6700  002674  EC43  F013         	call	_BusyXLCD	;wreg free
  6701  002678  0900               	iorlw	0
  6702  00267A  A4D8               	btfss	status,2,c
  6703  00267C  D7FB               	goto	l1017
  6704                           
  6705                           ;user_xlcd.c: 24: SetDDRamAddr(0x0);
  6706  00267E  0E00               	movlw	0
  6707  002680  EC7A  F012         	call	_SetDDRamAddr
  6708  002684  0012               	return		;funcret
  6709  002686                     __end_of_XLCD_Initialize:
  6710                           	opt stack 0
  6711                           tblptru	equ	0xFF8
  6712                           tblptrh	equ	0xFF7
  6713                           tblptrl	equ	0xFF6
  6714                           tablat	equ	0xFF5
  6715                           prodh	equ	0xFF4
  6716                           prodl	equ	0xFF3
  6717                           intcon	equ	0xFF2
  6718                           indf0	equ	0xFEF
  6719                           postinc0	equ	0xFEE
  6720                           fsr0h	equ	0xFEA
  6721                           fsr0l	equ	0xFE9
  6722                           wreg	equ	0xFE8
  6723                           postdec1	equ	0xFE5
  6724                           fsr1l	equ	0xFE1
  6725                           indf2	equ	0xFDF
  6726                           postinc2	equ	0xFDE
  6727                           postdec2	equ	0xFDD
  6728                           fsr2h	equ	0xFDA
  6729                           fsr2l	equ	0xFD9
  6730                           status	equ	0xFD8
  6731                           
  6732 ;; *************** function _OpenXLCD *****************
  6733 ;; Defined at:
  6734 ;;		line 19 in file "XLCD/openxlcd.c"
  6735 ;; Parameters:    Size  Location     Type
  6736 ;;  lcdtype         1    wreg     unsigned char 
  6737 ;; Auto vars:     Size  Location     Type
  6738 ;;  lcdtype         1   25[COMRAM] unsigned char 
  6739 ;; Return value:  Size  Location     Type
  6740 ;;                  1    wreg      void 
  6741 ;; Registers used:
  6742 ;;		wreg, status,2, status,0, cstack
  6743 ;; Tracked objects:
  6744 ;;		On entry : 0/0
  6745 ;;		On exit  : 0/0
  6746 ;;		Unchanged: 0/0
  6747 ;; Data sizes:     COMRAM   BANK0   BANK1   BANK2   BANK3   BANK4   BANK5   BANK6   BANK7
  6748 ;;      Params:         0       0       0       0       0       0       0       0       0
  6749 ;;      Locals:         1       0       0       0       0       0       0       0       0
  6750 ;;      Temps:          0       0       0       0       0       0       0       0       0
  6751 ;;      Totals:         1       0       0       0       0       0       0       0       0
  6752 ;;Total ram usage:        1 bytes
  6753 ;; Hardware stack levels used:    1
  6754 ;; Hardware stack levels required when called:    5
  6755 ;; This function calls:
  6756 ;;		_BusyXLCD
  6757 ;;		_Delay10KTCYx
  6758 ;;		_DelayPORXLCD
  6759 ;;		_SetDDRamAddr
  6760 ;;		_WriteCmdXLCD
  6761 ;; This function is called by:
  6762 ;;		_XLCD_Initialize
  6763 ;; This function uses a non-reentrant model
  6764 ;;
  6765                           
  6766                           	psect	text14
  6767  002296                     __ptext14:
  6768                           	opt stack 0
  6769  002296                     _OpenXLCD:
  6770                           	opt stack 21
  6771                           
  6772                           ;incstack = 0
  6773                           ;OpenXLCD@lcdtype stored from wreg
  6774  002296  6E1A               	movwf	OpenXLCD@lcdtype,c
  6775                           
  6776                           ;openxlcd.c: 31: PORTD &= 0xf0;
  6777  002298  0EF0               	movlw	240
  6778  00229A  1683               	andwf	3971,f,c	;volatile
  6779                           
  6780                           ;openxlcd.c: 32: TRISD &= 0xF0;
  6781  00229C  0EF0               	movlw	240
  6782  00229E  1695               	andwf	3989,f,c	;volatile
  6783                           
  6784                           ;openxlcd.c: 35: TRISDbits.TRISD5 = 0;
  6785  0022A0  9A95               	bcf	3989,5,c	;volatile
  6786                           
  6787                           ;openxlcd.c: 36: TRISDbits.TRISD4 = 0;
  6788  0022A2  9895               	bcf	3989,4,c	;volatile
  6789                           
  6790                           ;openxlcd.c: 37: TRISDbits.TRISD6 = 0;
  6791  0022A4  9C95               	bcf	3989,6,c	;volatile
  6792                           
  6793                           ;openxlcd.c: 38: LATDbits.LATD5 = 0;
  6794  0022A6  9A8C               	bcf	3980,5,c	;volatile
  6795                           
  6796                           ;openxlcd.c: 39: LATDbits.LATD4 = 0;
  6797  0022A8  988C               	bcf	3980,4,c	;volatile
  6798                           
  6799                           ;openxlcd.c: 40: LATDbits.LATD6 = 0;
  6800  0022AA  9C8C               	bcf	3980,6,c	;volatile
  6801                           
  6802                           ;openxlcd.c: 43: DelayPORXLCD();
  6803  0022AC  ECF9  F013         	call	_DelayPORXLCD	;wreg free
  6804                           
  6805                           ;openxlcd.c: 45: WriteCmdXLCD(0x30);
  6806  0022B0  0E30               	movlw	48
  6807  0022B2  EC06  F013         	call	_WriteCmdXLCD
  6808                           
  6809                           ;openxlcd.c: 46: Delay10KTCYx(0x05);
  6810  0022B6  0E05               	movlw	5
  6811  0022B8  ECE5  F013         	call	_Delay10KTCYx
  6812                           
  6813                           ;openxlcd.c: 48: WriteCmdXLCD(0x30);
  6814  0022BC  0E30               	movlw	48
  6815  0022BE  EC06  F013         	call	_WriteCmdXLCD
  6816                           
  6817                           ;openxlcd.c: 49: Delay10KTCYx(0x01);
  6818  0022C2  0E01               	movlw	1
  6819  0022C4  ECE5  F013         	call	_Delay10KTCYx
  6820                           
  6821                           ;openxlcd.c: 52: WriteCmdXLCD(0x32);
  6822  0022C8  0E32               	movlw	50
  6823  0022CA  EC06  F013         	call	_WriteCmdXLCD
  6824  0022CE  EC43  F013         	call	_BusyXLCD	;wreg free
  6825  0022D2  0900               	iorlw	0
  6826  0022D4  A4D8               	btfss	status,2,c
  6827  0022D6  D7FB               	goto	l65
  6828  0022D8                     u3520:
  6829                           
  6830                           ;openxlcd.c: 58: while(BusyXLCD());
  6831  0022D8  EC43  F013         	call	_BusyXLCD	;wreg free
  6832  0022DC  0900               	iorlw	0
  6833  0022DE  A4D8               	btfss	status,2,c
  6834  0022E0  D7FB               	goto	u3520
  6835                           
  6836                           ;openxlcd.c: 59: WriteCmdXLCD(lcdtype);
  6837  0022E2  501A               	movf	OpenXLCD@lcdtype,w,c
  6838  0022E4  EC06  F013         	call	_WriteCmdXLCD
  6839  0022E8  EC43  F013         	call	_BusyXLCD	;wreg free
  6840  0022EC  0900               	iorlw	0
  6841  0022EE  A4D8               	btfss	status,2,c
  6842  0022F0  D7FB               	goto	l71
  6843                           
  6844                           ;openxlcd.c: 63: WriteCmdXLCD(0b00001011&0b00001101&0b00001110);
  6845  0022F2  0E08               	movlw	8
  6846  0022F4  EC06  F013         	call	_WriteCmdXLCD
  6847  0022F8  EC43  F013         	call	_BusyXLCD	;wreg free
  6848  0022FC  0900               	iorlw	0
  6849  0022FE  A4D8               	btfss	status,2,c
  6850  002300  D7FB               	goto	l74
  6851                           
  6852                           ;openxlcd.c: 65: WriteCmdXLCD(0b00001111&0b00001111&0b00001111);
  6853  002302  0E0F               	movlw	15
  6854  002304  EC06  F013         	call	_WriteCmdXLCD
  6855  002308  EC43  F013         	call	_BusyXLCD	;wreg free
  6856  00230C  0900               	iorlw	0
  6857  00230E  A4D8               	btfss	status,2,c
  6858  002310  D7FB               	goto	l77
  6859                           
  6860                           ;openxlcd.c: 69: WriteCmdXLCD(0x01);
  6861  002312  0E01               	movlw	1
  6862  002314  EC06  F013         	call	_WriteCmdXLCD
  6863  002318  EC43  F013         	call	_BusyXLCD	;wreg free
  6864  00231C  0900               	iorlw	0
  6865  00231E  A4D8               	btfss	status,2,c
  6866  002320  D7FB               	goto	l80
  6867                           
  6868                           ;openxlcd.c: 73: WriteCmdXLCD(0b00000100);
  6869  002322  0E04               	movlw	4
  6870  002324  EC06  F013         	call	_WriteCmdXLCD
  6871  002328  EC43  F013         	call	_BusyXLCD	;wreg free
  6872  00232C  0900               	iorlw	0
  6873  00232E  A4D8               	btfss	status,2,c
  6874  002330  D7FB               	goto	l83
  6875                           
  6876                           ;openxlcd.c: 77: SetDDRamAddr(0x80);
  6877  002332  0E80               	movlw	128
  6878  002334  EC7A  F012         	call	_SetDDRamAddr
  6879  002338  0012               	return	
  6880  00233A                     __end_of_OpenXLCD:
  6881                           	opt stack 0
  6882                           tblptru	equ	0xFF8
  6883                           tblptrh	equ	0xFF7
  6884                           tblptrl	equ	0xFF6
  6885                           tablat	equ	0xFF5
  6886                           prodh	equ	0xFF4
  6887                           prodl	equ	0xFF3
  6888                           intcon	equ	0xFF2
  6889                           indf0	equ	0xFEF
  6890                           postinc0	equ	0xFEE
  6891                           fsr0h	equ	0xFEA
  6892                           fsr0l	equ	0xFE9
  6893                           wreg	equ	0xFE8
  6894                           postdec1	equ	0xFE5
  6895                           fsr1l	equ	0xFE1
  6896                           indf2	equ	0xFDF
  6897                           postinc2	equ	0xFDE
  6898                           postdec2	equ	0xFDD
  6899                           fsr2h	equ	0xFDA
  6900                           fsr2l	equ	0xFD9
  6901                           status	equ	0xFD8
  6902                           
  6903 ;; *************** function _SetDDRamAddr *****************
  6904 ;; Defined at:
  6905 ;;		line 13 in file "XLCD/setddram.c"
  6906 ;; Parameters:    Size  Location     Type
  6907 ;;  DDaddr          1    wreg     unsigned char 
  6908 ;; Auto vars:     Size  Location     Type
  6909 ;;  DDaddr          1   24[COMRAM] unsigned char 
  6910 ;; Return value:  Size  Location     Type
  6911 ;;                  1    wreg      void 
  6912 ;; Registers used:
  6913 ;;		wreg, status,2, status,0, cstack
  6914 ;; Tracked objects:
  6915 ;;		On entry : 0/0
  6916 ;;		On exit  : 0/0
  6917 ;;		Unchanged: 0/0
  6918 ;; Data sizes:     COMRAM   BANK0   BANK1   BANK2   BANK3   BANK4   BANK5   BANK6   BANK7
  6919 ;;      Params:         0       0       0       0       0       0       0       0       0
  6920 ;;      Locals:         1       0       0       0       0       0       0       0       0
  6921 ;;      Temps:          3       0       0       0       0       0       0       0       0
  6922 ;;      Totals:         4       0       0       0       0       0       0       0       0
  6923 ;;Total ram usage:        4 bytes
  6924 ;; Hardware stack levels used:    1
  6925 ;; Hardware stack levels required when called:    4
  6926 ;; This function calls:
  6927 ;;		_DelayFor18TCY
  6928 ;; This function is called by:
  6929 ;;		_OpenXLCD
  6930 ;;		_printscore
  6931 ;;		_changeStages
  6932 ;;		_XLCD_Initialize
  6933 ;; This function uses a non-reentrant model
  6934 ;;
  6935                           
  6936                           	psect	text15
  6937  0024F4                     __ptext15:
  6938                           	opt stack 0
  6939  0024F4                     _SetDDRamAddr:
  6940                           	opt stack 25
  6941                           
  6942                           ;incstack = 0
  6943                           ;SetDDRamAddr@DDaddr stored from wreg
  6944  0024F4  6E19               	movwf	SetDDRamAddr@DDaddr,c
  6945                           
  6946                           ;setddram.c: 32: TRISD &= 0xf0;
  6947  0024F6  0EF0               	movlw	240
  6948  0024F8  1695               	andwf	3989,f,c	;volatile
  6949                           
  6950                           ;setddram.c: 33: PORTD &= 0xf0;
  6951  0024FA  0EF0               	movlw	240
  6952  0024FC  1683               	andwf	3971,f,c	;volatile
  6953                           
  6954                           ;setddram.c: 34: PORTD |= (((DDaddr | 0b10000000)>>4) & 0x0f);
  6955  0024FE  5019               	movf	SetDDRamAddr@DDaddr,w,c
  6956  002500  6E16               	movwf	??_SetDDRamAddr& (0+255),c
  6957  002502  6A17               	clrf	(??_SetDDRamAddr+1)& (0+255),c
  6958  002504  8E16               	bsf	??_SetDDRamAddr,7,c
  6959  002506  0E04               	movlw	4
  6960  002508  6E18               	movwf	(??_SetDDRamAddr+2)& (0+255),c
  6961  00250A                     u3515:
  6962  00250A  3417               	rlcf	??_SetDDRamAddr+1,w,c
  6963  00250C  3217               	rrcf	??_SetDDRamAddr+1,f,c
  6964  00250E  3216               	rrcf	??_SetDDRamAddr,f,c
  6965  002510  2E18               	decfsz	(??_SetDDRamAddr+2)& (0+255),f,c
  6966  002512  D7FB               	goto	u3515
  6967  002514  5016               	movf	??_SetDDRamAddr,w,c
  6968  002516  0B0F               	andlw	15
  6969  002518  1283               	iorwf	3971,f,c	;volatile
  6970                           
  6971                           ;setddram.c: 36: LATDbits.LATD5 = 0;
  6972  00251A  9A8C               	bcf	3980,5,c	;volatile
  6973                           
  6974                           ;setddram.c: 37: LATDbits.LATD4 = 0;
  6975  00251C  988C               	bcf	3980,4,c	;volatile
  6976                           
  6977                           ;setddram.c: 38: DelayFor18TCY();
  6978  00251E  EC24  F014         	call	_DelayFor18TCY	;wreg free
  6979                           
  6980                           ;setddram.c: 39: LATDbits.LATD6 = 1;
  6981  002522  8C8C               	bsf	3980,6,c	;volatile
  6982                           
  6983                           ;setddram.c: 40: DelayFor18TCY();
  6984  002524  EC24  F014         	call	_DelayFor18TCY	;wreg free
  6985                           
  6986                           ;setddram.c: 41: LATDbits.LATD6 = 0;
  6987  002528  9C8C               	bcf	3980,6,c	;volatile
  6988                           
  6989                           ;setddram.c: 46: PORTD &= 0xf0;
  6990  00252A  0EF0               	movlw	240
  6991  00252C  1683               	andwf	3971,f,c	;volatile
  6992                           
  6993                           ;setddram.c: 47: PORTD |= (DDaddr&0x0f);
  6994  00252E  5019               	movf	SetDDRamAddr@DDaddr,w,c
  6995  002530  0B0F               	andlw	15
  6996  002532  1283               	iorwf	3971,f,c	;volatile
  6997                           
  6998                           ;setddram.c: 49: DelayFor18TCY();
  6999  002534  EC24  F014         	call	_DelayFor18TCY	;wreg free
  7000                           
  7001                           ;setddram.c: 50: LATDbits.LATD6 = 1;
  7002  002538  8C8C               	bsf	3980,6,c	;volatile
  7003                           
  7004                           ;setddram.c: 51: DelayFor18TCY();
  7005  00253A  EC24  F014         	call	_DelayFor18TCY	;wreg free
  7006                           
  7007                           ;setddram.c: 52: LATDbits.LATD6 = 0;
  7008  00253E  9C8C               	bcf	3980,6,c	;volatile
  7009                           
  7010                           ;setddram.c: 56: TRISD |= 0x0f;
  7011  002540  0E0F               	movlw	15
  7012  002542  1295               	iorwf	3989,f,c	;volatile
  7013  002544  0012               	return	
  7014  002546                     __end_of_SetDDRamAddr:
  7015                           	opt stack 0
  7016                           tblptru	equ	0xFF8
  7017                           tblptrh	equ	0xFF7
  7018                           tblptrl	equ	0xFF6
  7019                           tablat	equ	0xFF5
  7020                           prodh	equ	0xFF4
  7021                           prodl	equ	0xFF3
  7022                           intcon	equ	0xFF2
  7023                           indf0	equ	0xFEF
  7024                           postinc0	equ	0xFEE
  7025                           fsr0h	equ	0xFEA
  7026                           fsr0l	equ	0xFE9
  7027                           wreg	equ	0xFE8
  7028                           postdec1	equ	0xFE5
  7029                           fsr1l	equ	0xFE1
  7030                           indf2	equ	0xFDF
  7031                           postinc2	equ	0xFDE
  7032                           postdec2	equ	0xFDD
  7033                           fsr2h	equ	0xFDA
  7034                           fsr2l	equ	0xFD9
  7035                           status	equ	0xFD8
  7036                           
  7037 ;; *************** function _DelayPORXLCD *****************
  7038 ;; Defined at:
  7039 ;;		line 34 in file "user_xlcd.c"
  7040 ;; Parameters:    Size  Location     Type
  7041 ;;		None
  7042 ;; Auto vars:     Size  Location     Type
  7043 ;;		None
  7044 ;; Return value:  Size  Location     Type
  7045 ;;                  1    wreg      void 
  7046 ;; Registers used:
  7047 ;;		wreg
  7048 ;; Tracked objects:
  7049 ;;		On entry : 0/0
  7050 ;;		On exit  : 0/0
  7051 ;;		Unchanged: 0/0
  7052 ;; Data sizes:     COMRAM   BANK0   BANK1   BANK2   BANK3   BANK4   BANK5   BANK6   BANK7
  7053 ;;      Params:         0       0       0       0       0       0       0       0       0
  7054 ;;      Locals:         0       0       0       0       0       0       0       0       0
  7055 ;;      Temps:          1       0       0       0       0       0       0       0       0
  7056 ;;      Totals:         1       0       0       0       0       0       0       0       0
  7057 ;;Total ram usage:        1 bytes
  7058 ;; Hardware stack levels used:    1
  7059 ;; Hardware stack levels required when called:    3
  7060 ;; This function calls:
  7061 ;;		Nothing
  7062 ;; This function is called by:
  7063 ;;		_OpenXLCD
  7064 ;; This function uses a non-reentrant model
  7065 ;;
  7066                           
  7067                           	psect	text16
  7068  0027F2                     __ptext16:
  7069                           	opt stack 0
  7070  0027F2                     _DelayPORXLCD:
  7071                           	opt stack 22
  7072                           
  7073                           ;user_xlcd.c: 37: _delay((unsigned long)((15)*(24000000ul/4000.0)));
  7074                           
  7075                           ;incstack = 0
  7076  0027F2  0E75               	movlw	117
  7077  0027F4  6E16               	movwf	??_DelayPORXLCD& (0+255),c
  7078  0027F6  0EE1               	movlw	225
  7079  0027F8                     u5187:
  7080  0027F8  2EE8               	decfsz	wreg,f,c
  7081  0027FA  D7FE               	bra	u5187
  7082  0027FC  2E16               	decfsz	??_DelayPORXLCD& (0+255),f,c
  7083  0027FE  D7FC               	bra	u5187
  7084  002800  F000               	nop	
  7085  002802  0012               	return		;funcret
  7086  002804                     __end_of_DelayPORXLCD:
  7087                           	opt stack 0
  7088                           tblptru	equ	0xFF8
  7089                           tblptrh	equ	0xFF7
  7090                           tblptrl	equ	0xFF6
  7091                           tablat	equ	0xFF5
  7092                           prodh	equ	0xFF4
  7093                           prodl	equ	0xFF3
  7094                           intcon	equ	0xFF2
  7095                           indf0	equ	0xFEF
  7096                           postinc0	equ	0xFEE
  7097                           fsr0h	equ	0xFEA
  7098                           fsr0l	equ	0xFE9
  7099                           wreg	equ	0xFE8
  7100                           postdec1	equ	0xFE5
  7101                           fsr1l	equ	0xFE1
  7102                           indf2	equ	0xFDF
  7103                           postinc2	equ	0xFDE
  7104                           postdec2	equ	0xFDD
  7105                           fsr2h	equ	0xFDA
  7106                           fsr2l	equ	0xFD9
  7107                           status	equ	0xFD8
  7108                           
  7109 ;; *************** function _Delay10KTCYx *****************
  7110 ;; Defined at:
  7111 ;;		line 8 in file "C:\Program Files (x86)\Microchip\xc8\v1.43\sources\pic18\d10ktcyx.c"
  7112 ;; Parameters:    Size  Location     Type
  7113 ;;  unit            1    wreg     unsigned char 
  7114 ;; Auto vars:     Size  Location     Type
  7115 ;;  unit            1   22[COMRAM] unsigned char 
  7116 ;; Return value:  Size  Location     Type
  7117 ;;                  1    wreg      void 
  7118 ;; Registers used:
  7119 ;;		wreg
  7120 ;; Tracked objects:
  7121 ;;		On entry : 0/0
  7122 ;;		On exit  : 0/0
  7123 ;;		Unchanged: 0/0
  7124 ;; Data sizes:     COMRAM   BANK0   BANK1   BANK2   BANK3   BANK4   BANK5   BANK6   BANK7
  7125 ;;      Params:         0       0       0       0       0       0       0       0       0
  7126 ;;      Locals:         1       0       0       0       0       0       0       0       0
  7127 ;;      Temps:          1       0       0       0       0       0       0       0       0
  7128 ;;      Totals:         2       0       0       0       0       0       0       0       0
  7129 ;;Total ram usage:        2 bytes
  7130 ;; Hardware stack levels used:    1
  7131 ;; Hardware stack levels required when called:    3
  7132 ;; This function calls:
  7133 ;;		Nothing
  7134 ;; This function is called by:
  7135 ;;		_OpenXLCD
  7136 ;; This function uses a non-reentrant model
  7137 ;;
  7138                           
  7139                           	psect	text17
  7140  0027CA                     __ptext17:
  7141                           	opt stack 0
  7142  0027CA                     _Delay10KTCYx:
  7143                           	opt stack 22
  7144                           
  7145                           ;incstack = 0
  7146                           ;Delay10KTCYx@unit stored from wreg
  7147  0027CA  6E17               	movwf	Delay10KTCYx@unit,c
  7148  0027CC                     l1755:
  7149  0027CC  0E0D               	movlw	13
  7150  0027CE  6E16               	movwf	??_Delay10KTCYx& (0+255),c
  7151  0027D0  0EFC               	movlw	252
  7152  0027D2                     u5197:
  7153  0027D2  2EE8               	decfsz	wreg,f,c
  7154  0027D4  D7FE               	bra	u5197
  7155  0027D6  2E16               	decfsz	??_Delay10KTCYx& (0+255),f,c
  7156  0027D8  D7FC               	bra	u5197
  7157  0027DA  2E17               	decfsz	Delay10KTCYx@unit,f,c
  7158  0027DC  D7F7               	goto	l1755
  7159  0027DE  0012               	return	
  7160  0027E0                     __end_of_Delay10KTCYx:
  7161                           	opt stack 0
  7162                           tblptru	equ	0xFF8
  7163                           tblptrh	equ	0xFF7
  7164                           tblptrl	equ	0xFF6
  7165                           tablat	equ	0xFF5
  7166                           prodh	equ	0xFF4
  7167                           prodl	equ	0xFF3
  7168                           intcon	equ	0xFF2
  7169                           indf0	equ	0xFEF
  7170                           postinc0	equ	0xFEE
  7171                           fsr0h	equ	0xFEA
  7172                           fsr0l	equ	0xFE9
  7173                           wreg	equ	0xFE8
  7174                           postdec1	equ	0xFE5
  7175                           fsr1l	equ	0xFE1
  7176                           indf2	equ	0xFDF
  7177                           postinc2	equ	0xFDE
  7178                           postdec2	equ	0xFDD
  7179                           fsr2h	equ	0xFDA
  7180                           fsr2l	equ	0xFD9
  7181                           status	equ	0xFD8
  7182                           
  7183 ;; *************** function _TMR0_Initialize *****************
  7184 ;; Defined at:
  7185 ;;		line 66 in file "tmr0.c"
  7186 ;; Parameters:    Size  Location     Type
  7187 ;;		None
  7188 ;; Auto vars:     Size  Location     Type
  7189 ;;		None
  7190 ;; Return value:  Size  Location     Type
  7191 ;;                  1    wreg      void 
  7192 ;; Registers used:
  7193 ;;		wreg, status,2, cstack
  7194 ;; Tracked objects:
  7195 ;;		On entry : 0/0
  7196 ;;		On exit  : 0/0
  7197 ;;		Unchanged: 0/0
  7198 ;; Data sizes:     COMRAM   BANK0   BANK1   BANK2   BANK3   BANK4   BANK5   BANK6   BANK7
  7199 ;;      Params:         0       0       0       0       0       0       0       0       0
  7200 ;;      Locals:         0       0       0       0       0       0       0       0       0
  7201 ;;      Temps:          0       0       0       0       0       0       0       0       0
  7202 ;;      Totals:         0       0       0       0       0       0       0       0       0
  7203 ;;Total ram usage:        0 bytes
  7204 ;; Hardware stack levels used:    1
  7205 ;; Hardware stack levels required when called:    4
  7206 ;; This function calls:
  7207 ;;		_TMR0_StartTimer
  7208 ;;		_TMR0_WriteTimer
  7209 ;; This function is called by:
  7210 ;;		_SYSTEM_Initialize
  7211 ;; This function uses a non-reentrant model
  7212 ;;
  7213                           
  7214                           	psect	text18
  7215  002768                     __ptext18:
  7216                           	opt stack 0
  7217  002768                     _TMR0_Initialize:
  7218                           	opt stack 23
  7219                           
  7220                           ;tmr0.c: 69: T0CON = 0b00010001;
  7221                           
  7222                           ;incstack = 0
  7223  002768  0E11               	movlw	17
  7224  00276A  6ED5               	movwf	4053,c	;volatile
  7225                           
  7226                           ;tmr0.c: 72: TMR0_WriteTimer(0);
  7227  00276C  0E00               	movlw	0
  7228  00276E  6E17               	movwf	TMR0_WriteTimer@timerVal+1,c
  7229  002770  0E00               	movlw	0
  7230  002772  6E16               	movwf	TMR0_WriteTimer@timerVal,c
  7231  002774  EC10  F014         	call	_TMR0_WriteTimer	;wreg free
  7232                           
  7233                           ;tmr0.c: 75: INTCONbits.TMR0IF = 0;
  7234  002778  94F2               	bcf	intcon,2,c	;volatile
  7235                           
  7236                           ;tmr0.c: 78: INTCONbits.TMR0IE = 1;
  7237  00277A  8AF2               	bsf	intcon,5,c	;volatile
  7238                           
  7239                           ;tmr0.c: 81: TMR0_StartTimer();
  7240  00277C  EC2C  F014         	call	_TMR0_StartTimer	;wreg free
  7241  002780  0012               	return		;funcret
  7242  002782                     __end_of_TMR0_Initialize:
  7243                           	opt stack 0
  7244                           tblptru	equ	0xFF8
  7245                           tblptrh	equ	0xFF7
  7246                           tblptrl	equ	0xFF6
  7247                           tablat	equ	0xFF5
  7248                           prodh	equ	0xFF4
  7249                           prodl	equ	0xFF3
  7250                           intcon	equ	0xFF2
  7251                           indf0	equ	0xFEF
  7252                           postinc0	equ	0xFEE
  7253                           fsr0h	equ	0xFEA
  7254                           fsr0l	equ	0xFE9
  7255                           wreg	equ	0xFE8
  7256                           postdec1	equ	0xFE5
  7257                           fsr1l	equ	0xFE1
  7258                           indf2	equ	0xFDF
  7259                           postinc2	equ	0xFDE
  7260                           postdec2	equ	0xFDD
  7261                           fsr2h	equ	0xFDA
  7262                           fsr2l	equ	0xFD9
  7263                           status	equ	0xFD8
  7264                           
  7265 ;; *************** function _TMR0_WriteTimer *****************
  7266 ;; Defined at:
  7267 ;;		line 133 in file "tmr0.c"
  7268 ;; Parameters:    Size  Location     Type
  7269 ;;  timerVal        2   21[COMRAM] unsigned int 
  7270 ;; Auto vars:     Size  Location     Type
  7271 ;;		None
  7272 ;; Return value:  Size  Location     Type
  7273 ;;                  1    wreg      void 
  7274 ;; Registers used:
  7275 ;;		wreg, status,2
  7276 ;; Tracked objects:
  7277 ;;		On entry : 0/0
  7278 ;;		On exit  : 0/0
  7279 ;;		Unchanged: 0/0
  7280 ;; Data sizes:     COMRAM   BANK0   BANK1   BANK2   BANK3   BANK4   BANK5   BANK6   BANK7
  7281 ;;      Params:         2       0       0       0       0       0       0       0       0
  7282 ;;      Locals:         0       0       0       0       0       0       0       0       0
  7283 ;;      Temps:          0       0       0       0       0       0       0       0       0
  7284 ;;      Totals:         2       0       0       0       0       0       0       0       0
  7285 ;;Total ram usage:        2 bytes
  7286 ;; Hardware stack levels used:    1
  7287 ;; Hardware stack levels required when called:    3
  7288 ;; This function calls:
  7289 ;;		Nothing
  7290 ;; This function is called by:
  7291 ;;		_TMR0_Initialize
  7292 ;; This function uses a non-reentrant model
  7293 ;;
  7294                           
  7295                           	psect	text19
  7296  002820                     __ptext19:
  7297                           	opt stack 0
  7298  002820                     _TMR0_WriteTimer:
  7299                           	opt stack 23
  7300                           
  7301                           ;tmr0.c: 136: TMR0H = (timerVal >> 8);
  7302                           
  7303                           ;incstack = 0
  7304  002820  5017               	movf	TMR0_WriteTimer@timerVal+1,w,c
  7305  002822  6ED7               	movwf	4055,c	;volatile
  7306                           
  7307                           ;tmr0.c: 137: TMR0L = (uint8_t) timerVal;
  7308  002824  C016  FFD6         	movff	TMR0_WriteTimer@timerVal,4054	;volatile
  7309  002828  0012               	return		;funcret
  7310  00282A                     __end_of_TMR0_WriteTimer:
  7311                           	opt stack 0
  7312                           tblptru	equ	0xFF8
  7313                           tblptrh	equ	0xFF7
  7314                           tblptrl	equ	0xFF6
  7315                           tablat	equ	0xFF5
  7316                           prodh	equ	0xFF4
  7317                           prodl	equ	0xFF3
  7318                           intcon	equ	0xFF2
  7319                           indf0	equ	0xFEF
  7320                           postinc0	equ	0xFEE
  7321                           fsr0h	equ	0xFEA
  7322                           fsr0l	equ	0xFE9
  7323                           wreg	equ	0xFE8
  7324                           postdec1	equ	0xFE5
  7325                           fsr1l	equ	0xFE1
  7326                           indf2	equ	0xFDF
  7327                           postinc2	equ	0xFDE
  7328                           postdec2	equ	0xFDD
  7329                           fsr2h	equ	0xFDA
  7330                           fsr2l	equ	0xFD9
  7331                           status	equ	0xFD8
  7332                           
  7333 ;; *************** function _TMR0_StartTimer *****************
  7334 ;; Defined at:
  7335 ;;		line 84 in file "tmr0.c"
  7336 ;; Parameters:    Size  Location     Type
  7337 ;;		None
  7338 ;; Auto vars:     Size  Location     Type
  7339 ;;		None
  7340 ;; Return value:  Size  Location     Type
  7341 ;;                  1    wreg      void 
  7342 ;; Registers used:
  7343 ;;		None
  7344 ;; Tracked objects:
  7345 ;;		On entry : 0/0
  7346 ;;		On exit  : 0/0
  7347 ;;		Unchanged: 0/0
  7348 ;; Data sizes:     COMRAM   BANK0   BANK1   BANK2   BANK3   BANK4   BANK5   BANK6   BANK7
  7349 ;;      Params:         0       0       0       0       0       0       0       0       0
  7350 ;;      Locals:         0       0       0       0       0       0       0       0       0
  7351 ;;      Temps:          0       0       0       0       0       0       0       0       0
  7352 ;;      Totals:         0       0       0       0       0       0       0       0       0
  7353 ;;Total ram usage:        0 bytes
  7354 ;; Hardware stack levels used:    1
  7355 ;; Hardware stack levels required when called:    3
  7356 ;; This function calls:
  7357 ;;		Nothing
  7358 ;; This function is called by:
  7359 ;;		_TMR0_Initialize
  7360 ;; This function uses a non-reentrant model
  7361 ;;
  7362                           
  7363                           	psect	text20
  7364  002858                     __ptext20:
  7365                           	opt stack 0
  7366  002858                     _TMR0_StartTimer:
  7367                           	opt stack 23
  7368                           
  7369                           ;tmr0.c: 87: T0CONbits.TMR0ON = 1;
  7370                           
  7371                           ;incstack = 0
  7372  002858  8ED5               	bsf	4053,7,c	;volatile
  7373  00285A  0012               	return		;funcret
  7374  00285C                     __end_of_TMR0_StartTimer:
  7375                           	opt stack 0
  7376                           tblptru	equ	0xFF8
  7377                           tblptrh	equ	0xFF7
  7378                           tblptrl	equ	0xFF6
  7379                           tablat	equ	0xFF5
  7380                           prodh	equ	0xFF4
  7381                           prodl	equ	0xFF3
  7382                           intcon	equ	0xFF2
  7383                           indf0	equ	0xFEF
  7384                           postinc0	equ	0xFEE
  7385                           fsr0h	equ	0xFEA
  7386                           fsr0l	equ	0xFE9
  7387                           wreg	equ	0xFE8
  7388                           postdec1	equ	0xFE5
  7389                           fsr1l	equ	0xFE1
  7390                           indf2	equ	0xFDF
  7391                           postinc2	equ	0xFDE
  7392                           postdec2	equ	0xFDD
  7393                           fsr2h	equ	0xFDA
  7394                           fsr2l	equ	0xFD9
  7395                           status	equ	0xFD8
  7396                           
  7397 ;; *************** function _PIN_MANAGER_Initialize *****************
  7398 ;; Defined at:
  7399 ;;		line 5 in file "pin_manager.c"
  7400 ;; Parameters:    Size  Location     Type
  7401 ;;		None
  7402 ;; Auto vars:     Size  Location     Type
  7403 ;;		None
  7404 ;; Return value:  Size  Location     Type
  7405 ;;                  1    wreg      void 
  7406 ;; Registers used:
  7407 ;;		wreg, status,2
  7408 ;; Tracked objects:
  7409 ;;		On entry : 0/0
  7410 ;;		On exit  : 0/0
  7411 ;;		Unchanged: 0/0
  7412 ;; Data sizes:     COMRAM   BANK0   BANK1   BANK2   BANK3   BANK4   BANK5   BANK6   BANK7
  7413 ;;      Params:         0       0       0       0       0       0       0       0       0
  7414 ;;      Locals:         0       0       0       0       0       0       0       0       0
  7415 ;;      Temps:          0       0       0       0       0       0       0       0       0
  7416 ;;      Totals:         0       0       0       0       0       0       0       0       0
  7417 ;;Total ram usage:        0 bytes
  7418 ;; Hardware stack levels used:    1
  7419 ;; Hardware stack levels required when called:    3
  7420 ;; This function calls:
  7421 ;;		Nothing
  7422 ;; This function is called by:
  7423 ;;		_SYSTEM_Initialize
  7424 ;; This function uses a non-reentrant model
  7425 ;;
  7426                           
  7427                           	psect	text21
  7428  002814                     __ptext21:
  7429                           	opt stack 0
  7430  002814                     _PIN_MANAGER_Initialize:
  7431                           	opt stack 24
  7432                           
  7433                           ;pin_manager.c: 8: TRISAbits.TRISA0 = 1;
  7434                           
  7435                           ;incstack = 0
  7436  002814  8092               	bsf	3986,0,c	;volatile
  7437                           
  7438                           ;pin_manager.c: 10: ADCON1bits.PCFG = 0xD;
  7439  002816  50C1               	movf	4033,w,c	;volatile
  7440  002818  0BF0               	andlw	-16
  7441  00281A  090D               	iorlw	13
  7442  00281C  6EC1               	movwf	4033,c	;volatile
  7443  00281E  0012               	return		;funcret
  7444  002820                     __end_of_PIN_MANAGER_Initialize:
  7445                           	opt stack 0
  7446                           tblptru	equ	0xFF8
  7447                           tblptrh	equ	0xFF7
  7448                           tblptrl	equ	0xFF6
  7449                           tablat	equ	0xFF5
  7450                           prodh	equ	0xFF4
  7451                           prodl	equ	0xFF3
  7452                           intcon	equ	0xFF2
  7453                           indf0	equ	0xFEF
  7454                           postinc0	equ	0xFEE
  7455                           fsr0h	equ	0xFEA
  7456                           fsr0l	equ	0xFE9
  7457                           wreg	equ	0xFE8
  7458                           postdec1	equ	0xFE5
  7459                           fsr1l	equ	0xFE1
  7460                           indf2	equ	0xFDF
  7461                           postinc2	equ	0xFDE
  7462                           postdec2	equ	0xFDD
  7463                           fsr2h	equ	0xFDA
  7464                           fsr2l	equ	0xFD9
  7465                           status	equ	0xFD8
  7466                           
  7467 ;; *************** function _OSCILLATOR_Initialize *****************
  7468 ;; Defined at:
  7469 ;;		line 97 in file "mcc.c"
  7470 ;; Parameters:    Size  Location     Type
  7471 ;;		None
  7472 ;; Auto vars:     Size  Location     Type
  7473 ;;		None
  7474 ;; Return value:  Size  Location     Type
  7475 ;;                  1    wreg      void 
  7476 ;; Registers used:
  7477 ;;		wreg, status,2
  7478 ;; Tracked objects:
  7479 ;;		On entry : 0/0
  7480 ;;		On exit  : 0/0
  7481 ;;		Unchanged: 0/0
  7482 ;; Data sizes:     COMRAM   BANK0   BANK1   BANK2   BANK3   BANK4   BANK5   BANK6   BANK7
  7483 ;;      Params:         0       0       0       0       0       0       0       0       0
  7484 ;;      Locals:         0       0       0       0       0       0       0       0       0
  7485 ;;      Temps:          0       0       0       0       0       0       0       0       0
  7486 ;;      Totals:         0       0       0       0       0       0       0       0       0
  7487 ;;Total ram usage:        0 bytes
  7488 ;; Hardware stack levels used:    1
  7489 ;; Hardware stack levels required when called:    3
  7490 ;; This function calls:
  7491 ;;		Nothing
  7492 ;; This function is called by:
  7493 ;;		_SYSTEM_Initialize
  7494 ;; This function uses a non-reentrant model
  7495 ;;
  7496                           
  7497                           	psect	text22
  7498  00282A                     __ptext22:
  7499                           	opt stack 0
  7500  00282A                     _OSCILLATOR_Initialize:
  7501                           	opt stack 24
  7502                           
  7503                           ;mcc.c: 100: OSCCON = 0x60;
  7504                           
  7505                           ;incstack = 0
  7506  00282A  0E60               	movlw	96
  7507  00282C  6ED3               	movwf	4051,c	;volatile
  7508                           
  7509                           ;mcc.c: 102: OSCTUNE = 0x00;
  7510  00282E  0E00               	movlw	0
  7511  002830  6E9B               	movwf	3995,c	;volatile
  7512  002832  0012               	return		;funcret
  7513  002834                     __end_of_OSCILLATOR_Initialize:
  7514                           	opt stack 0
  7515                           tblptru	equ	0xFF8
  7516                           tblptrh	equ	0xFF7
  7517                           tblptrl	equ	0xFF6
  7518                           tablat	equ	0xFF5
  7519                           prodh	equ	0xFF4
  7520                           prodl	equ	0xFF3
  7521                           intcon	equ	0xFF2
  7522                           indf0	equ	0xFEF
  7523                           postinc0	equ	0xFEE
  7524                           fsr0h	equ	0xFEA
  7525                           fsr0l	equ	0xFE9
  7526                           wreg	equ	0xFE8
  7527                           postdec1	equ	0xFE5
  7528                           fsr1l	equ	0xFE1
  7529                           indf2	equ	0xFDF
  7530                           postinc2	equ	0xFDE
  7531                           postdec2	equ	0xFDD
  7532                           fsr2h	equ	0xFDA
  7533                           fsr2l	equ	0xFD9
  7534                           status	equ	0xFD8
  7535                           
  7536 ;; *************** function _INTERRUPT_Initialize *****************
  7537 ;; Defined at:
  7538 ;;		line 5 in file "interrupt_manager.c"
  7539 ;; Parameters:    Size  Location     Type
  7540 ;;		None
  7541 ;; Auto vars:     Size  Location     Type
  7542 ;;		None
  7543 ;; Return value:  Size  Location     Type
  7544 ;;                  1    wreg      void 
  7545 ;; Registers used:
  7546 ;;		None
  7547 ;; Tracked objects:
  7548 ;;		On entry : 0/0
  7549 ;;		On exit  : 0/0
  7550 ;;		Unchanged: 0/0
  7551 ;; Data sizes:     COMRAM   BANK0   BANK1   BANK2   BANK3   BANK4   BANK5   BANK6   BANK7
  7552 ;;      Params:         0       0       0       0       0       0       0       0       0
  7553 ;;      Locals:         0       0       0       0       0       0       0       0       0
  7554 ;;      Temps:          0       0       0       0       0       0       0       0       0
  7555 ;;      Totals:         0       0       0       0       0       0       0       0       0
  7556 ;;Total ram usage:        0 bytes
  7557 ;; Hardware stack levels used:    1
  7558 ;; Hardware stack levels required when called:    3
  7559 ;; This function calls:
  7560 ;;		Nothing
  7561 ;; This function is called by:
  7562 ;;		_SYSTEM_Initialize
  7563 ;; This function uses a non-reentrant model
  7564 ;;
  7565                           
  7566                           	psect	text23
  7567  00274C                     __ptext23:
  7568                           	opt stack 0
  7569  00274C                     _INTERRUPT_Initialize:
  7570                           	opt stack 24
  7571                           
  7572                           ;interrupt_manager.c: 8: IPEN = 0;
  7573                           
  7574                           ;incstack = 0
  7575  00274C  9ED0               	bcf	4048,7,c	;volatile
  7576                           
  7577                           ;interrupt_manager.c: 13: IPR1bits.ADIP = 0;
  7578  00274E  9C9F               	bcf	3999,6,c	;volatile
  7579                           
  7580                           ;interrupt_manager.c: 15: INTCON2bits.TMR0IP = 0;
  7581  002750  94F1               	bcf	intcon2,2,c	;volatile
  7582                           
  7583                           ;interrupt_manager.c: 17: IPR2bits.EEIP = 0;
  7584  002752  98A2               	bcf	4002,4,c	;volatile
  7585                           
  7586                           ;interrupt_manager.c: 19: IPR2bits.BCLIP = 0;
  7587  002754  96A2               	bcf	4002,3,c	;volatile
  7588                           
  7589                           ;interrupt_manager.c: 21: IPR1bits.SSPIP = 0;
  7590  002756  969F               	bcf	3999,3,c	;volatile
  7591                           
  7592                           ;interrupt_manager.c: 23: IPR1bits.TX1IP = 0;
  7593  002758  989F               	bcf	3999,4,c	;volatile
  7594                           
  7595                           ;interrupt_manager.c: 25: IPR1bits.RC1IP = 0;
  7596  00275A  9A9F               	bcf	3999,5,c	;volatile
  7597                           
  7598                           ;interrupt_manager.c: 27: IPR1bits.TMR1IP = 0;
  7599  00275C  909F               	bcf	3999,0,c	;volatile
  7600                           
  7601                           ;interrupt_manager.c: 29: INTCON2bits.RBIP = 0;
  7602  00275E  90F1               	bcf	intcon2,0,c	;volatile
  7603                           
  7604                           ;interrupt_manager.c: 31: IPR2bits.CCP2IP = 0;
  7605  002760  90A2               	bcf	4002,0,c	;volatile
  7606                           
  7607                           ;interrupt_manager.c: 33: IPR2bits.TMR3IP = 0;
  7608  002762  92A2               	bcf	4002,1,c	;volatile
  7609                           
  7610                           ;interrupt_manager.c: 35: IPR1bits.TMR2IP = 0;
  7611  002764  929F               	bcf	3999,1,c	;volatile
  7612  002766  0012               	return		;funcret
  7613  002768                     __end_of_INTERRUPT_Initialize:
  7614                           	opt stack 0
  7615                           tblptru	equ	0xFF8
  7616                           tblptrh	equ	0xFF7
  7617                           tblptrl	equ	0xFF6
  7618                           tablat	equ	0xFF5
  7619                           prodh	equ	0xFF4
  7620                           prodl	equ	0xFF3
  7621                           intcon	equ	0xFF2
  7622                           intcon2	equ	0xFF1
  7623                           indf0	equ	0xFEF
  7624                           postinc0	equ	0xFEE
  7625                           fsr0h	equ	0xFEA
  7626                           fsr0l	equ	0xFE9
  7627                           wreg	equ	0xFE8
  7628                           postdec1	equ	0xFE5
  7629                           fsr1l	equ	0xFE1
  7630                           indf2	equ	0xFDF
  7631                           postinc2	equ	0xFDE
  7632                           postdec2	equ	0xFDD
  7633                           fsr2h	equ	0xFDA
  7634                           fsr2l	equ	0xFD9
  7635                           status	equ	0xFD8
  7636                           
  7637 ;; *************** function _ADC_GetConversion *****************
  7638 ;; Defined at:
  7639 ;;		line 109 in file "adc.c"
  7640 ;; Parameters:    Size  Location     Type
  7641 ;;  channel         1    wreg     enum E5249
  7642 ;; Auto vars:     Size  Location     Type
  7643 ;;  channel         1   25[COMRAM] enum E5249
  7644 ;; Return value:  Size  Location     Type
  7645 ;;                  2   21[COMRAM] unsigned int 
  7646 ;; Registers used:
  7647 ;;		wreg, status,2, status,0
  7648 ;; Tracked objects:
  7649 ;;		On entry : 0/0
  7650 ;;		On exit  : 0/0
  7651 ;;		Unchanged: 0/0
  7652 ;; Data sizes:     COMRAM   BANK0   BANK1   BANK2   BANK3   BANK4   BANK5   BANK6   BANK7
  7653 ;;      Params:         2       0       0       0       0       0       0       0       0
  7654 ;;      Locals:         1       0       0       0       0       0       0       0       0
  7655 ;;      Temps:          2       0       0       0       0       0       0       0       0
  7656 ;;      Totals:         5       0       0       0       0       0       0       0       0
  7657 ;;Total ram usage:        5 bytes
  7658 ;; Hardware stack levels used:    1
  7659 ;; Hardware stack levels required when called:    3
  7660 ;; This function calls:
  7661 ;;		Nothing
  7662 ;; This function is called by:
  7663 ;;		_changeStages
  7664 ;; This function uses a non-reentrant model
  7665 ;;
  7666                           
  7667                           	psect	text24
  7668  0026C0                     __ptext24:
  7669                           	opt stack 0
  7670  0026C0                     _ADC_GetConversion:
  7671                           	opt stack 25
  7672                           
  7673                           ;incstack = 0
  7674                           ;ADC_GetConversion@channel stored from wreg
  7675  0026C0  6E1A               	movwf	ADC_GetConversion@channel,c
  7676                           
  7677                           ;adc.c: 112: ADCON0bits.CHS = channel;
  7678  0026C2  C01A  F018         	movff	ADC_GetConversion@channel,??_ADC_GetConversion
  7679  0026C6  4618               	rlncf	??_ADC_GetConversion,f,c
  7680  0026C8  4618               	rlncf	??_ADC_GetConversion,f,c
  7681  0026CA  50C2               	movf	4034,w,c	;volatile
  7682  0026CC  1818               	xorwf	??_ADC_GetConversion,w,c
  7683  0026CE  0BC3               	andlw	-61
  7684  0026D0  1818               	xorwf	??_ADC_GetConversion,w,c
  7685  0026D2  6EC2               	movwf	4034,c	;volatile
  7686                           
  7687                           ;adc.c: 115: ADCON0bits.ADON = 1;
  7688  0026D4  80C2               	bsf	4034,0,c	;volatile
  7689                           
  7690                           ;adc.c: 119: ADCON0bits.GO_nDONE = 1;
  7691  0026D6  82C2               	bsf	4034,1,c	;volatile
  7692  0026D8                     
  7693                           ;adc.c: 123: {
  7694  0026D8  B2C2               	btfsc	4034,1,c	;volatile
  7695  0026DA  D7FE               	goto	l215
  7696                           
  7697                           ;adc.c: 124: }
  7698                           ;adc.c: 127: return ((ADRESH << 8) + ADRESL);
  7699  0026DC  50C4               	movf	4036,w,c	;volatile
  7700  0026DE  6E19               	movwf	(??_ADC_GetConversion+1)& (0+255),c
  7701  0026E0  6A18               	clrf	??_ADC_GetConversion& (0+255),c
  7702  0026E2  50C3               	movf	4035,w,c	;volatile
  7703  0026E4  2418               	addwf	??_ADC_GetConversion,w,c
  7704  0026E6  6E16               	movwf	?_ADC_GetConversion,c
  7705  0026E8  0E00               	movlw	0
  7706  0026EA  2019               	addwfc	??_ADC_GetConversion+1,w,c
  7707  0026EC  6E17               	movwf	?_ADC_GetConversion+1,c
  7708  0026EE  0012               	return	
  7709  0026F0                     __end_of_ADC_GetConversion:
  7710                           	opt stack 0
  7711                           tblptru	equ	0xFF8
  7712                           tblptrh	equ	0xFF7
  7713                           tblptrl	equ	0xFF6
  7714                           tablat	equ	0xFF5
  7715                           prodh	equ	0xFF4
  7716                           prodl	equ	0xFF3
  7717                           intcon	equ	0xFF2
  7718                           intcon2	equ	0xFF1
  7719                           indf0	equ	0xFEF
  7720                           postinc0	equ	0xFEE
  7721                           fsr0h	equ	0xFEA
  7722                           fsr0l	equ	0xFE9
  7723                           wreg	equ	0xFE8
  7724                           postdec1	equ	0xFE5
  7725                           fsr1l	equ	0xFE1
  7726                           indf2	equ	0xFDF
  7727                           postinc2	equ	0xFDE
  7728                           postdec2	equ	0xFDD
  7729                           fsr2h	equ	0xFDA
  7730                           fsr2l	equ	0xFD9
  7731                           status	equ	0xFD8
  7732                           
  7733 ;; *************** function _createCharacter *****************
  7734 ;; Defined at:
  7735 ;;		line 71 in file "main.c"
  7736 ;; Parameters:    Size  Location     Type
  7737 ;;  data            2   22[COMRAM] PTR unsigned char 
  7738 ;;		 -> data1(8), data0(8), 
  7739 ;;  number          1   24[COMRAM] unsigned char 
  7740 ;; Auto vars:     Size  Location     Type
  7741 ;;  i               2   26[COMRAM] int 
  7742 ;;  i               1   25[COMRAM] unsigned char 
  7743 ;; Return value:  Size  Location     Type
  7744 ;;                  1    wreg      void 
  7745 ;; Registers used:
  7746 ;;		wreg, fsr2l, fsr2h, status,2, status,0, prodl, prodh, cstack
  7747 ;; Tracked objects:
  7748 ;;		On entry : 0/0
  7749 ;;		On exit  : 0/0
  7750 ;;		Unchanged: 0/0
  7751 ;; Data sizes:     COMRAM   BANK0   BANK1   BANK2   BANK3   BANK4   BANK5   BANK6   BANK7
  7752 ;;      Params:         3       0       0       0       0       0       0       0       0
  7753 ;;      Locals:         3       0       0       0       0       0       0       0       0
  7754 ;;      Temps:          0       0       0       0       0       0       0       0       0
  7755 ;;      Totals:         6       0       0       0       0       0       0       0       0
  7756 ;;Total ram usage:        6 bytes
  7757 ;; Hardware stack levels used:    1
  7758 ;; Hardware stack levels required when called:    5
  7759 ;; This function calls:
  7760 ;;		_BusyXLCD
  7761 ;;		_WriteCmdXLCD
  7762 ;;		_WriteDataXLCD
  7763 ;; This function is called by:
  7764 ;;		_main
  7765 ;; This function uses a non-reentrant model
  7766 ;;
  7767                           
  7768                           	psect	text25
  7769  00244C                     __ptext25:
  7770                           	opt stack 0
  7771  00244C                     _createCharacter:
  7772                           	opt stack 25
  7773                           
  7774                           ;main.c: 72: unsigned char i = 0;
  7775                           
  7776                           ;incstack = 0
  7777  00244C  0E00               	movlw	0
  7778  00244E  6E1A               	movwf	createCharacter@i,c
  7779  002450  EC43  F013         	call	_BusyXLCD	;wreg free
  7780  002454  0900               	iorlw	0
  7781  002456  A4D8               	btfss	status,2,c
  7782  002458  D7FB               	goto	l618
  7783                           
  7784                           ;main.c: 74: WriteCmdXLCD(0x40 + ((number)*8));
  7785  00245A  5019               	movf	createCharacter@number,w,c
  7786  00245C  0D08               	mullw	8
  7787  00245E  50F3               	movf	prodl,w,c
  7788  002460  0F40               	addlw	64
  7789  002462  EC06  F013         	call	_WriteCmdXLCD
  7790                           
  7791                           ;main.c: 75: for(int i = 0; i < 8; i++){
  7792  002466  0E00               	movlw	0
  7793  002468  6E1C               	movwf	createCharacter@i_1981+1,c
  7794  00246A  0E00               	movlw	0
  7795  00246C  6E1B               	movwf	createCharacter@i_1981,c
  7796  00246E                     l5782:
  7797  00246E  BE1C               	btfsc	createCharacter@i_1981+1,7,c
  7798  002470  D006               	goto	l620
  7799  002472  501C               	movf	createCharacter@i_1981+1,w,c
  7800  002474  E115               	bnz	l625
  7801  002476  0E08               	movlw	8
  7802  002478  5C1B               	subwf	createCharacter@i_1981,w,c
  7803  00247A  B0D8               	btfsc	status,0,c
  7804  00247C  0012               	return	
  7805  00247E                     l620:
  7806                           
  7807                           ;main.c: 76: while(BusyXLCD());
  7808  00247E  EC43  F013         	call	_BusyXLCD	;wreg free
  7809  002482  0900               	iorlw	0
  7810  002484  A4D8               	btfss	status,2,c
  7811  002486  D7FB               	goto	l620
  7812                           
  7813                           ;main.c: 77: WriteDataXLCD(data[i]);
  7814  002488  501B               	movf	createCharacter@i_1981,w,c
  7815  00248A  2417               	addwf	createCharacter@data,w,c
  7816  00248C  6ED9               	movwf	fsr2l,c
  7817  00248E  501C               	movf	createCharacter@i_1981+1,w,c
  7818  002490  2018               	addwfc	createCharacter@data+1,w,c
  7819  002492  6EDA               	movwf	fsr2h,c
  7820  002494  50DF               	movf	indf2,w,c
  7821  002496  ECE7  F012         	call	_WriteDataXLCD
  7822  00249A  4A1B               	infsnz	createCharacter@i_1981,f,c
  7823  00249C  2A1C               	incf	createCharacter@i_1981+1,f,c
  7824  00249E  D7E7               	goto	l5782
  7825  0024A0                     l625:
  7826  0024A0  0012               	return		;funcret
  7827  0024A2                     __end_of_createCharacter:
  7828                           	opt stack 0
  7829                           tblptru	equ	0xFF8
  7830                           tblptrh	equ	0xFF7
  7831                           tblptrl	equ	0xFF6
  7832                           tablat	equ	0xFF5
  7833                           prodh	equ	0xFF4
  7834                           prodl	equ	0xFF3
  7835                           intcon	equ	0xFF2
  7836                           intcon2	equ	0xFF1
  7837                           indf0	equ	0xFEF
  7838                           postinc0	equ	0xFEE
  7839                           fsr0h	equ	0xFEA
  7840                           fsr0l	equ	0xFE9
  7841                           wreg	equ	0xFE8
  7842                           postdec1	equ	0xFE5
  7843                           fsr1l	equ	0xFE1
  7844                           indf2	equ	0xFDF
  7845                           postinc2	equ	0xFDE
  7846                           postdec2	equ	0xFDD
  7847                           fsr2h	equ	0xFDA
  7848                           fsr2l	equ	0xFD9
  7849                           status	equ	0xFD8
  7850                           
  7851 ;; *************** function _WriteDataXLCD *****************
  7852 ;; Defined at:
  7853 ;;		line 16 in file "XLCD/writdata.c"
  7854 ;; Parameters:    Size  Location     Type
  7855 ;;  data            1    wreg     unsigned char 
  7856 ;; Auto vars:     Size  Location     Type
  7857 ;;  data            1   21[COMRAM] unsigned char 
  7858 ;; Return value:  Size  Location     Type
  7859 ;;                  1    wreg      void 
  7860 ;; Registers used:
  7861 ;;		wreg, status,2, status,0, cstack
  7862 ;; Tracked objects:
  7863 ;;		On entry : 0/0
  7864 ;;		On exit  : 0/0
  7865 ;;		Unchanged: 0/0
  7866 ;; Data sizes:     COMRAM   BANK0   BANK1   BANK2   BANK3   BANK4   BANK5   BANK6   BANK7
  7867 ;;      Params:         0       0       0       0       0       0       0       0       0
  7868 ;;      Locals:         1       0       0       0       0       0       0       0       0
  7869 ;;      Temps:          0       0       0       0       0       0       0       0       0
  7870 ;;      Totals:         1       0       0       0       0       0       0       0       0
  7871 ;;Total ram usage:        1 bytes
  7872 ;; Hardware stack levels used:    1
  7873 ;; Hardware stack levels required when called:    4
  7874 ;; This function calls:
  7875 ;;		_DelayFor18TCY
  7876 ;; This function is called by:
  7877 ;;		_putsXLCD
  7878 ;;		_createCharacter
  7879 ;;		_printCharacter
  7880 ;;		_putrsXLCD
  7881 ;; This function uses a non-reentrant model
  7882 ;;
  7883                           
  7884                           	psect	text26
  7885  0025CE                     __ptext26:
  7886                           	opt stack 0
  7887  0025CE                     _WriteDataXLCD:
  7888                           	opt stack 24
  7889                           
  7890                           ;incstack = 0
  7891                           ;WriteDataXLCD@data stored from wreg
  7892  0025CE  6E16               	movwf	WriteDataXLCD@data,c
  7893                           
  7894                           ;writdata.c: 35: TRISD &= 0xf0;
  7895  0025D0  0EF0               	movlw	240
  7896  0025D2  1695               	andwf	3989,f,c	;volatile
  7897                           
  7898                           ;writdata.c: 36: PORTD &= 0xf0;
  7899  0025D4  0EF0               	movlw	240
  7900  0025D6  1683               	andwf	3971,f,c	;volatile
  7901                           
  7902                           ;writdata.c: 37: PORTD |= ((data>>4)&0x0f);
  7903  0025D8  3816               	swapf	WriteDataXLCD@data,w,c
  7904  0025DA  0B0F               	andlw	15
  7905  0025DC  0B0F               	andlw	15
  7906  0025DE  1283               	iorwf	3971,f,c	;volatile
  7907                           
  7908                           ;writdata.c: 39: LATDbits.LATD4 = 1;
  7909  0025E0  888C               	bsf	3980,4,c	;volatile
  7910                           
  7911                           ;writdata.c: 40: LATDbits.LATD5 = 0;
  7912  0025E2  9A8C               	bcf	3980,5,c	;volatile
  7913                           
  7914                           ;writdata.c: 41: DelayFor18TCY();
  7915  0025E4  EC24  F014         	call	_DelayFor18TCY	;wreg free
  7916                           
  7917                           ;writdata.c: 42: LATDbits.LATD6 = 1;
  7918  0025E8  8C8C               	bsf	3980,6,c	;volatile
  7919                           
  7920                           ;writdata.c: 43: DelayFor18TCY();
  7921  0025EA  EC24  F014         	call	_DelayFor18TCY	;wreg free
  7922                           
  7923                           ;writdata.c: 44: LATDbits.LATD6 = 0;
  7924  0025EE  9C8C               	bcf	3980,6,c	;volatile
  7925                           
  7926                           ;writdata.c: 49: PORTD &= 0xf0;
  7927  0025F0  0EF0               	movlw	240
  7928  0025F2  1683               	andwf	3971,f,c	;volatile
  7929                           
  7930                           ;writdata.c: 50: PORTD |= (data&0x0f);
  7931  0025F4  5016               	movf	WriteDataXLCD@data,w,c
  7932  0025F6  0B0F               	andlw	15
  7933  0025F8  1283               	iorwf	3971,f,c	;volatile
  7934                           
  7935                           ;writdata.c: 52: DelayFor18TCY();
  7936  0025FA  EC24  F014         	call	_DelayFor18TCY	;wreg free
  7937                           
  7938                           ;writdata.c: 53: LATDbits.LATD6 = 1;
  7939  0025FE  8C8C               	bsf	3980,6,c	;volatile
  7940                           
  7941                           ;writdata.c: 54: DelayFor18TCY();
  7942  002600  EC24  F014         	call	_DelayFor18TCY	;wreg free
  7943                           
  7944                           ;writdata.c: 55: LATDbits.LATD6 = 0;
  7945  002604  9C8C               	bcf	3980,6,c	;volatile
  7946                           
  7947                           ;writdata.c: 59: TRISD |= 0x0f;
  7948  002606  0E0F               	movlw	15
  7949  002608  1295               	iorwf	3989,f,c	;volatile
  7950  00260A  0012               	return	
  7951  00260C                     __end_of_WriteDataXLCD:
  7952                           	opt stack 0
  7953                           tblptru	equ	0xFF8
  7954                           tblptrh	equ	0xFF7
  7955                           tblptrl	equ	0xFF6
  7956                           tablat	equ	0xFF5
  7957                           prodh	equ	0xFF4
  7958                           prodl	equ	0xFF3
  7959                           intcon	equ	0xFF2
  7960                           intcon2	equ	0xFF1
  7961                           indf0	equ	0xFEF
  7962                           postinc0	equ	0xFEE
  7963                           fsr0h	equ	0xFEA
  7964                           fsr0l	equ	0xFE9
  7965                           wreg	equ	0xFE8
  7966                           postdec1	equ	0xFE5
  7967                           fsr1l	equ	0xFE1
  7968                           indf2	equ	0xFDF
  7969                           postinc2	equ	0xFDE
  7970                           postdec2	equ	0xFDD
  7971                           fsr2h	equ	0xFDA
  7972                           fsr2l	equ	0xFD9
  7973                           status	equ	0xFD8
  7974                           
  7975 ;; *************** function _WriteCmdXLCD *****************
  7976 ;; Defined at:
  7977 ;;		line 13 in file "XLCD/wcmdxlcd.c"
  7978 ;; Parameters:    Size  Location     Type
  7979 ;;  cmd             1    wreg     unsigned char 
  7980 ;; Auto vars:     Size  Location     Type
  7981 ;;  cmd             1   21[COMRAM] unsigned char 
  7982 ;; Return value:  Size  Location     Type
  7983 ;;                  1    wreg      void 
  7984 ;; Registers used:
  7985 ;;		wreg, status,2, status,0, cstack
  7986 ;; Tracked objects:
  7987 ;;		On entry : 0/0
  7988 ;;		On exit  : 0/0
  7989 ;;		Unchanged: 0/0
  7990 ;; Data sizes:     COMRAM   BANK0   BANK1   BANK2   BANK3   BANK4   BANK5   BANK6   BANK7
  7991 ;;      Params:         0       0       0       0       0       0       0       0       0
  7992 ;;      Locals:         1       0       0       0       0       0       0       0       0
  7993 ;;      Temps:          0       0       0       0       0       0       0       0       0
  7994 ;;      Totals:         1       0       0       0       0       0       0       0       0
  7995 ;;Total ram usage:        1 bytes
  7996 ;; Hardware stack levels used:    1
  7997 ;; Hardware stack levels required when called:    4
  7998 ;; This function calls:
  7999 ;;		_DelayFor18TCY
  8000 ;; This function is called by:
  8001 ;;		_OpenXLCD
  8002 ;;		_createCharacter
  8003 ;;		_XLCD_Initialize
  8004 ;; This function uses a non-reentrant model
  8005 ;;
  8006                           
  8007                           	psect	text27
  8008  00260C                     __ptext27:
  8009                           	opt stack 0
  8010  00260C                     _WriteCmdXLCD:
  8011                           	opt stack 22
  8012                           
  8013                           ;incstack = 0
  8014                           ;WriteCmdXLCD@cmd stored from wreg
  8015  00260C  6E16               	movwf	WriteCmdXLCD@cmd,c
  8016                           
  8017                           ;wcmdxlcd.c: 32: TRISD &= 0xf0;
  8018  00260E  0EF0               	movlw	240
  8019  002610  1695               	andwf	3989,f,c	;volatile
  8020                           
  8021                           ;wcmdxlcd.c: 33: PORTD &= 0xf0;
  8022  002612  0EF0               	movlw	240
  8023  002614  1683               	andwf	3971,f,c	;volatile
  8024                           
  8025                           ;wcmdxlcd.c: 34: PORTD |= (cmd>>4)&0x0f;
  8026  002616  3816               	swapf	WriteCmdXLCD@cmd,w,c
  8027  002618  0B0F               	andlw	15
  8028  00261A  0B0F               	andlw	15
  8029  00261C  1283               	iorwf	3971,f,c	;volatile
  8030                           
  8031                           ;wcmdxlcd.c: 36: LATDbits.LATD5 = 0;
  8032  00261E  9A8C               	bcf	3980,5,c	;volatile
  8033                           
  8034                           ;wcmdxlcd.c: 37: LATDbits.LATD4 = 0;
  8035  002620  988C               	bcf	3980,4,c	;volatile
  8036                           
  8037                           ;wcmdxlcd.c: 38: DelayFor18TCY();
  8038  002622  EC24  F014         	call	_DelayFor18TCY	;wreg free
  8039                           
  8040                           ;wcmdxlcd.c: 39: LATDbits.LATD6 = 1;
  8041  002626  8C8C               	bsf	3980,6,c	;volatile
  8042                           
  8043                           ;wcmdxlcd.c: 40: DelayFor18TCY();
  8044  002628  EC24  F014         	call	_DelayFor18TCY	;wreg free
  8045                           
  8046                           ;wcmdxlcd.c: 41: LATDbits.LATD6 = 0;
  8047  00262C  9C8C               	bcf	3980,6,c	;volatile
  8048                           
  8049                           ;wcmdxlcd.c: 46: PORTD &= 0xf0;
  8050  00262E  0EF0               	movlw	240
  8051  002630  1683               	andwf	3971,f,c	;volatile
  8052                           
  8053                           ;wcmdxlcd.c: 47: PORTD |= cmd&0x0f;
  8054  002632  5016               	movf	WriteCmdXLCD@cmd,w,c
  8055  002634  0B0F               	andlw	15
  8056  002636  1283               	iorwf	3971,f,c	;volatile
  8057                           
  8058                           ;wcmdxlcd.c: 49: DelayFor18TCY();
  8059  002638  EC24  F014         	call	_DelayFor18TCY	;wreg free
  8060                           
  8061                           ;wcmdxlcd.c: 50: LATDbits.LATD6 = 1;
  8062  00263C  8C8C               	bsf	3980,6,c	;volatile
  8063                           
  8064                           ;wcmdxlcd.c: 51: DelayFor18TCY();
  8065  00263E  EC24  F014         	call	_DelayFor18TCY	;wreg free
  8066                           
  8067                           ;wcmdxlcd.c: 52: LATDbits.LATD6 = 0;
  8068  002642  9C8C               	bcf	3980,6,c	;volatile
  8069                           
  8070                           ;wcmdxlcd.c: 56: TRISD |= 0x0f;
  8071  002644  0E0F               	movlw	15
  8072  002646  1295               	iorwf	3989,f,c	;volatile
  8073  002648  0012               	return	
  8074  00264A                     __end_of_WriteCmdXLCD:
  8075                           	opt stack 0
  8076                           tblptru	equ	0xFF8
  8077                           tblptrh	equ	0xFF7
  8078                           tblptrl	equ	0xFF6
  8079                           tablat	equ	0xFF5
  8080                           prodh	equ	0xFF4
  8081                           prodl	equ	0xFF3
  8082                           intcon	equ	0xFF2
  8083                           intcon2	equ	0xFF1
  8084                           indf0	equ	0xFEF
  8085                           postinc0	equ	0xFEE
  8086                           fsr0h	equ	0xFEA
  8087                           fsr0l	equ	0xFE9
  8088                           wreg	equ	0xFE8
  8089                           postdec1	equ	0xFE5
  8090                           fsr1l	equ	0xFE1
  8091                           indf2	equ	0xFDF
  8092                           postinc2	equ	0xFDE
  8093                           postdec2	equ	0xFDD
  8094                           fsr2h	equ	0xFDA
  8095                           fsr2l	equ	0xFD9
  8096                           status	equ	0xFD8
  8097                           
  8098 ;; *************** function _BusyXLCD *****************
  8099 ;; Defined at:
  8100 ;;		line 11 in file "XLCD/busyxlcd.c"
  8101 ;; Parameters:    Size  Location     Type
  8102 ;;		None
  8103 ;; Auto vars:     Size  Location     Type
  8104 ;;		None
  8105 ;; Return value:  Size  Location     Type
  8106 ;;                  1    wreg      unsigned char 
  8107 ;; Registers used:
  8108 ;;		wreg, cstack
  8109 ;; Tracked objects:
  8110 ;;		On entry : 0/0
  8111 ;;		On exit  : 0/0
  8112 ;;		Unchanged: 0/0
  8113 ;; Data sizes:     COMRAM   BANK0   BANK1   BANK2   BANK3   BANK4   BANK5   BANK6   BANK7
  8114 ;;      Params:         0       0       0       0       0       0       0       0       0
  8115 ;;      Locals:         0       0       0       0       0       0       0       0       0
  8116 ;;      Temps:          0       0       0       0       0       0       0       0       0
  8117 ;;      Totals:         0       0       0       0       0       0       0       0       0
  8118 ;;Total ram usage:        0 bytes
  8119 ;; Hardware stack levels used:    1
  8120 ;; Hardware stack levels required when called:    4
  8121 ;; This function calls:
  8122 ;;		_DelayFor18TCY
  8123 ;; This function is called by:
  8124 ;;		_OpenXLCD
  8125 ;;		_putsXLCD
  8126 ;;		_createCharacter
  8127 ;;		_printCharacter
  8128 ;;		_printscore
  8129 ;;		_changeStages
  8130 ;;		_XLCD_Initialize
  8131 ;;		_putrsXLCD
  8132 ;; This function uses a non-reentrant model
  8133 ;;
  8134                           
  8135                           	psect	text28
  8136  002686                     __ptext28:
  8137                           	opt stack 0
  8138  002686                     _BusyXLCD:
  8139                           	opt stack 24
  8140                           
  8141                           ;busyxlcd.c: 13: LATDbits.LATD5 = 1;
  8142                           
  8143                           ;incstack = 0
  8144  002686  8A8C               	bsf	3980,5,c	;volatile
  8145                           
  8146                           ;busyxlcd.c: 14: LATDbits.LATD4 = 0;
  8147  002688  988C               	bcf	3980,4,c	;volatile
  8148                           
  8149                           ;busyxlcd.c: 15: DelayFor18TCY();
  8150  00268A  EC24  F014         	call	_DelayFor18TCY	;wreg free
  8151                           
  8152                           ;busyxlcd.c: 16: LATDbits.LATD6 = 1;
  8153  00268E  8C8C               	bsf	3980,6,c	;volatile
  8154                           
  8155                           ;busyxlcd.c: 17: DelayFor18TCY();
  8156  002690  EC24  F014         	call	_DelayFor18TCY	;wreg free
  8157                           
  8158                           ;busyxlcd.c: 35: if(PORTD&0x08)
  8159  002694  A683               	btfss	3971,3,c	;volatile
  8160  002696  D00A               	goto	l41
  8161                           
  8162                           ;busyxlcd.c: 37: {
  8163                           ;busyxlcd.c: 38: LATDbits.LATD6 = 0;
  8164  002698  9C8C               	bcf	3980,6,c	;volatile
  8165                           
  8166                           ;busyxlcd.c: 39: DelayFor18TCY();
  8167  00269A  EC24  F014         	call	_DelayFor18TCY	;wreg free
  8168                           
  8169                           ;busyxlcd.c: 40: LATDbits.LATD6 = 1;
  8170  00269E  8C8C               	bsf	3980,6,c	;volatile
  8171                           
  8172                           ;busyxlcd.c: 41: DelayFor18TCY();
  8173  0026A0  EC24  F014         	call	_DelayFor18TCY	;wreg free
  8174                           
  8175                           ;busyxlcd.c: 42: LATDbits.LATD6 = 0;
  8176  0026A4  9C8C               	bcf	3980,6,c	;volatile
  8177                           
  8178                           ;busyxlcd.c: 43: LATDbits.LATD5 = 0;
  8179  0026A6  9A8C               	bcf	3980,5,c	;volatile
  8180                           
  8181                           ;busyxlcd.c: 44: return 1;
  8182  0026A8  0E01               	movlw	1
  8183                           
  8184                           ;busyxlcd.c: 45: }
  8185  0026AA  0012               	return	
  8186  0026AC                     l41:
  8187                           
  8188                           ;busyxlcd.c: 46: else
  8189                           ;busyxlcd.c: 47: {
  8190                           ;busyxlcd.c: 48: LATDbits.LATD6 = 0;
  8191  0026AC  9C8C               	bcf	3980,6,c	;volatile
  8192                           
  8193                           ;busyxlcd.c: 49: DelayFor18TCY();
  8194  0026AE  EC24  F014         	call	_DelayFor18TCY	;wreg free
  8195                           
  8196                           ;busyxlcd.c: 50: LATDbits.LATD6 = 1;
  8197  0026B2  8C8C               	bsf	3980,6,c	;volatile
  8198                           
  8199                           ;busyxlcd.c: 51: DelayFor18TCY();
  8200  0026B4  EC24  F014         	call	_DelayFor18TCY	;wreg free
  8201                           
  8202                           ;busyxlcd.c: 52: LATDbits.LATD6 = 0;
  8203  0026B8  9C8C               	bcf	3980,6,c	;volatile
  8204                           
  8205                           ;busyxlcd.c: 53: LATDbits.LATD5 = 0;
  8206  0026BA  9A8C               	bcf	3980,5,c	;volatile
  8207                           
  8208                           ;busyxlcd.c: 54: return 0;
  8209  0026BC  0E00               	movlw	0
  8210  0026BE  0012               	return	
  8211  0026C0                     __end_of_BusyXLCD:
  8212                           	opt stack 0
  8213                           tblptru	equ	0xFF8
  8214                           tblptrh	equ	0xFF7
  8215                           tblptrl	equ	0xFF6
  8216                           tablat	equ	0xFF5
  8217                           prodh	equ	0xFF4
  8218                           prodl	equ	0xFF3
  8219                           intcon	equ	0xFF2
  8220                           intcon2	equ	0xFF1
  8221                           indf0	equ	0xFEF
  8222                           postinc0	equ	0xFEE
  8223                           fsr0h	equ	0xFEA
  8224                           fsr0l	equ	0xFE9
  8225                           wreg	equ	0xFE8
  8226                           postdec1	equ	0xFE5
  8227                           fsr1l	equ	0xFE1
  8228                           indf2	equ	0xFDF
  8229                           postinc2	equ	0xFDE
  8230                           postdec2	equ	0xFDD
  8231                           fsr2h	equ	0xFDA
  8232                           fsr2l	equ	0xFD9
  8233                           status	equ	0xFD8
  8234                           
  8235 ;; *************** function _DelayFor18TCY *****************
  8236 ;; Defined at:
  8237 ;;		line 28 in file "user_xlcd.c"
  8238 ;; Parameters:    Size  Location     Type
  8239 ;;		None
  8240 ;; Auto vars:     Size  Location     Type
  8241 ;;		None
  8242 ;; Return value:  Size  Location     Type
  8243 ;;                  1    wreg      void 
  8244 ;; Registers used:
  8245 ;;		wreg
  8246 ;; Tracked objects:
  8247 ;;		On entry : 0/0
  8248 ;;		On exit  : 0/0
  8249 ;;		Unchanged: 0/0
  8250 ;; Data sizes:     COMRAM   BANK0   BANK1   BANK2   BANK3   BANK4   BANK5   BANK6   BANK7
  8251 ;;      Params:         0       0       0       0       0       0       0       0       0
  8252 ;;      Locals:         0       0       0       0       0       0       0       0       0
  8253 ;;      Temps:          0       0       0       0       0       0       0       0       0
  8254 ;;      Totals:         0       0       0       0       0       0       0       0       0
  8255 ;;Total ram usage:        0 bytes
  8256 ;; Hardware stack levels used:    1
  8257 ;; Hardware stack levels required when called:    3
  8258 ;; This function calls:
  8259 ;;		Nothing
  8260 ;; This function is called by:
  8261 ;;		_BusyXLCD
  8262 ;;		_SetDDRamAddr
  8263 ;;		_WriteCmdXLCD
  8264 ;;		_WriteDataXLCD
  8265 ;;		_ReadAddrXLCD
  8266 ;;		_ReadDataXLCD
  8267 ;;		_SetCGRamAddr
  8268 ;; This function uses a non-reentrant model
  8269 ;;
  8270                           
  8271                           	psect	text29
  8272  002848                     __ptext29:
  8273                           	opt stack 0
  8274  002848                     _DelayFor18TCY:
  8275                           	opt stack 24
  8276                           
  8277                           ;user_xlcd.c: 30: _delay(18);
  8278                           
  8279                           ;incstack = 0
  8280  002848  0E06               	movlw	6
  8281  00284A                     u5207:
  8282  00284A  2EE8               	decfsz	wreg,f,c
  8283  00284C  D7FE               	bra	u5207
  8284  00284E  0012               	return		;funcret
  8285  002850                     __end_of_DelayFor18TCY:
  8286                           	opt stack 0
  8287                           tblptru	equ	0xFF8
  8288                           tblptrh	equ	0xFF7
  8289                           tblptrl	equ	0xFF6
  8290                           tablat	equ	0xFF5
  8291                           prodh	equ	0xFF4
  8292                           prodl	equ	0xFF3
  8293                           intcon	equ	0xFF2
  8294                           intcon2	equ	0xFF1
  8295                           indf0	equ	0xFEF
  8296                           postinc0	equ	0xFEE
  8297                           fsr0h	equ	0xFEA
  8298                           fsr0l	equ	0xFE9
  8299                           wreg	equ	0xFE8
  8300                           postdec1	equ	0xFE5
  8301                           fsr1l	equ	0xFE1
  8302                           indf2	equ	0xFDF
  8303                           postinc2	equ	0xFDE
  8304                           postdec2	equ	0xFDD
  8305                           fsr2h	equ	0xFDA
  8306                           fsr2l	equ	0xFD9
  8307                           status	equ	0xFD8
  8308                           
  8309 ;; *************** function _INTERRUPT_InterruptManager *****************
  8310 ;; Defined at:
  8311 ;;		line 38 in file "interrupt_manager.c"
  8312 ;; Parameters:    Size  Location     Type
  8313 ;;		None
  8314 ;; Auto vars:     Size  Location     Type
  8315 ;;  __portb__       1   20[COMRAM] unsigned char 
  8316 ;; Return value:  Size  Location     Type
  8317 ;;                  1    wreg      void 
  8318 ;; Registers used:
  8319 ;;		wreg, fsr2l, fsr2h, status,2, status,0, pclath, tosl, prodl, prodh, cstack
  8320 ;; Tracked objects:
  8321 ;;		On entry : 0/0
  8322 ;;		On exit  : 0/0
  8323 ;;		Unchanged: 0/0
  8324 ;; Data sizes:     COMRAM   BANK0   BANK1   BANK2   BANK3   BANK4   BANK5   BANK6   BANK7
  8325 ;;      Params:         0       0       0       0       0       0       0       0       0
  8326 ;;      Locals:         1       0       0       0       0       0       0       0       0
  8327 ;;      Temps:         18       0       0       0       0       0       0       0       0
  8328 ;;      Totals:        19       0       0       0       0       0       0       0       0
  8329 ;;Total ram usage:       19 bytes
  8330 ;; Hardware stack levels used:    1
  8331 ;; Hardware stack levels required when called:    2
  8332 ;; This function calls:
  8333 ;;		_ADC_ISR
  8334 ;;		_EUSART1_Receive_ISR
  8335 ;;		_EUSART1_Transmit_ISR
  8336 ;;		_I2C1_BusCollisionISR
  8337 ;;		_I2C1_ISR
  8338 ;;		_MEMORY_ISR
  8339 ;;		_PIN_MANAGER_INT0
  8340 ;;		_PIN_MANAGER_INT1
  8341 ;;		_PIN_MANAGER_INT2
  8342 ;;		_PIN_MANAGER_IOC
  8343 ;;		_TMR0_ISR
  8344 ;;		_TMR1_ISR
  8345 ;;		_TMR2_ISR
  8346 ;;		_TMR3_ISR
  8347 ;; This function is called by:
  8348 ;;		Interrupt level 2
  8349 ;; This function uses a non-reentrant model
  8350 ;;
  8351                           
  8352                           	psect	intcode
  8353  000008                     __pintcode:
  8354                           	opt stack 0
  8355  000008                     _INTERRUPT_InterruptManager:
  8356                           	opt stack 21
  8357                           
  8358                           ;incstack = 0
  8359  000008  8249               	bsf	btemp,1,c	;set compiler interrupt flag (level 2)
  8360  00000A  ED6C  F00F         	call	int_func,f	;refresh shadow registers
  8361                           tblptru	equ	0xFF8
  8362                           tblptrh	equ	0xFF7
  8363                           tblptrl	equ	0xFF6
  8364                           tablat	equ	0xFF5
  8365                           prodh	equ	0xFF4
  8366                           prodl	equ	0xFF3
  8367                           intcon	equ	0xFF2
  8368                           intcon2	equ	0xFF1
  8369                           indf0	equ	0xFEF
  8370                           postinc0	equ	0xFEE
  8371                           fsr0h	equ	0xFEA
  8372                           fsr0l	equ	0xFE9
  8373                           wreg	equ	0xFE8
  8374                           postdec1	equ	0xFE5
  8375                           fsr1l	equ	0xFE1
  8376                           indf2	equ	0xFDF
  8377                           postinc2	equ	0xFDE
  8378                           postdec2	equ	0xFDD
  8379                           fsr2h	equ	0xFDA
  8380                           fsr2l	equ	0xFD9
  8381                           status	equ	0xFD8
  8382                           
  8383                           	psect	intcode_body
  8384  001ED8                     __pintcode_body:
  8385                           	opt stack 21
  8386  001ED8                     int_func:
  8387                           	opt stack 21
  8388  001ED8  0006               	pop		; remove dummy address from shadow register refresh
  8389  001EDA  CFFA F003          	movff	pclath,??_INTERRUPT_InterruptManager
  8390  001EDE  CFFB F004          	movff	pclatu,??_INTERRUPT_InterruptManager+1
  8391  001EE2  CFE9 F005          	movff	fsr0l,??_INTERRUPT_InterruptManager+2
  8392  001EE6  CFEA F006          	movff	fsr0h,??_INTERRUPT_InterruptManager+3
  8393  001EEA  CFE1 F007          	movff	fsr1l,??_INTERRUPT_InterruptManager+4
  8394  001EEE  CFE2 F008          	movff	fsr1h,??_INTERRUPT_InterruptManager+5
  8395  001EF2  CFD9 F009          	movff	fsr2l,??_INTERRUPT_InterruptManager+6
  8396  001EF6  CFDA F00A          	movff	fsr2h,??_INTERRUPT_InterruptManager+7
  8397  001EFA  CFF3 F00B          	movff	prodl,??_INTERRUPT_InterruptManager+8
  8398  001EFE  CFF4 F00C          	movff	prodh,??_INTERRUPT_InterruptManager+9
  8399  001F02  CFF6 F00D          	movff	tblptrl,??_INTERRUPT_InterruptManager+10
  8400  001F06  CFF7 F00E          	movff	tblptrh,??_INTERRUPT_InterruptManager+11
  8401  001F0A  CFF8 F00F          	movff	tblptru,??_INTERRUPT_InterruptManager+12
  8402  001F0E  CFF5 F010          	movff	tablat,??_INTERRUPT_InterruptManager+13
  8403  001F12  C049  F011         	movff	btemp,??_INTERRUPT_InterruptManager+14
  8404  001F16  C04A  F012         	movff	btemp+1,??_INTERRUPT_InterruptManager+15
  8405  001F1A  C04B  F013         	movff	btemp+2,??_INTERRUPT_InterruptManager+16
  8406  001F1E  C04C  F014         	movff	btemp+3,??_INTERRUPT_InterruptManager+17
  8407                           
  8408                           ;interrupt_manager.c: 41: if(PIE1bits.ADIE == 1 && PIR1bits.ADIF == 1)
  8409  001F22  BC9D               	btfsc	3997,6,c	;volatile
  8410  001F24  AC9E               	btfss	3998,6,c	;volatile
  8411  001F26  D004               	goto	i2l518
  8412                           
  8413                           ;interrupt_manager.c: 42: {
  8414                           ;interrupt_manager.c: 43: ADC_ISR();
  8415  001F28  EC37  F014         	call	_ADC_ISR	;wreg free
  8416                           
  8417                           ;interrupt_manager.c: 45: PIR1bits.ADIF = 0;
  8418  001F2C  9C9E               	bcf	3998,6,c	;volatile
  8419                           
  8420                           ;interrupt_manager.c: 46: }
  8421  001F2E  D061               	goto	i2l546
  8422  001F30                     i2l518:
  8423                           
  8424                           ;interrupt_manager.c: 47: else if(INTCONbits.TMR0IE == 1 && INTCONbits.TMR0IF == 1)
  8425  001F30  BAF2               	btfsc	intcon,5,c	;volatile
  8426  001F32  A4F2               	btfss	intcon,2,c	;volatile
  8427  001F34  D004               	goto	i2l520
  8428                           
  8429                           ;interrupt_manager.c: 48: {
  8430                           ;interrupt_manager.c: 49: TMR0_ISR();
  8431  001F36  ECCE  F013         	call	_TMR0_ISR	;wreg free
  8432                           
  8433                           ;interrupt_manager.c: 51: INTCONbits.TMR0IF = 0;
  8434  001F3A  94F2               	bcf	intcon,2,c	;volatile
  8435                           
  8436                           ;interrupt_manager.c: 52: }
  8437  001F3C  D05A               	goto	i2l546
  8438  001F3E                     i2l520:
  8439                           
  8440                           ;interrupt_manager.c: 53: else if(PIE2bits.EEIE == 1 && PIR2bits.EEIF == 1)
  8441  001F3E  B8A0               	btfsc	4000,4,c	;volatile
  8442  001F40  A8A1               	btfss	4001,4,c	;volatile
  8443  001F42  D004               	goto	i2l522
  8444                           
  8445                           ;interrupt_manager.c: 54: {
  8446                           ;interrupt_manager.c: 55: MEMORY_ISR();
  8447  001F44  EC35  F014         	call	_MEMORY_ISR	;wreg free
  8448                           
  8449                           ;interrupt_manager.c: 56: PIR2bits.EEIF = 0;
  8450  001F48  98A1               	bcf	4001,4,c	;volatile
  8451                           
  8452                           ;interrupt_manager.c: 57: }
  8453  001F4A  D053               	goto	i2l546
  8454  001F4C                     i2l522:
  8455                           
  8456                           ;interrupt_manager.c: 58: else if(PIE2bits.BCLIE == 1 && PIR2bits.BCLIF == 1)
  8457  001F4C  B6A0               	btfsc	4000,3,c	;volatile
  8458  001F4E  A6A1               	btfss	4001,3,c	;volatile
  8459  001F50  D004               	goto	i2l524
  8460                           
  8461                           ;interrupt_manager.c: 59: {
  8462                           ;interrupt_manager.c: 60: I2C1_BusCollisionISR();
  8463  001F52  EC36  F014         	call	_I2C1_BusCollisionISR	;wreg free
  8464                           
  8465                           ;interrupt_manager.c: 61: PIR2bits.BCLIF = 0;
  8466  001F56  96A1               	bcf	4001,3,c	;volatile
  8467                           
  8468                           ;interrupt_manager.c: 62: }
  8469  001F58  D04C               	goto	i2l546
  8470  001F5A                     i2l524:
  8471                           
  8472                           ;interrupt_manager.c: 63: else if(PIE1bits.SSPIE == 1 && PIR1bits.SSPIF == 1)
  8473  001F5A  B69D               	btfsc	3997,3,c	;volatile
  8474  001F5C  A69E               	btfss	3998,3,c	;volatile
  8475  001F5E  D004               	goto	i2l526
  8476                           
  8477                           ;interrupt_manager.c: 64: {
  8478                           ;interrupt_manager.c: 65: I2C1_ISR();
  8479  001F60  EC43  F00E         	call	_I2C1_ISR	;wreg free
  8480                           
  8481                           ;interrupt_manager.c: 66: PIR1bits.SSPIF = 0;
  8482  001F64  969E               	bcf	3998,3,c	;volatile
  8483                           
  8484                           ;interrupt_manager.c: 67: }
  8485  001F66  D045               	goto	i2l546
  8486  001F68                     i2l526:
  8487                           
  8488                           ;interrupt_manager.c: 68: else if(PIE1bits.TX1IE == 1 && PIR1bits.TX1IF == 1)
  8489  001F68  B89D               	btfsc	3997,4,c	;volatile
  8490  001F6A  A89E               	btfss	3998,4,c	;volatile
  8491  001F6C  D004               	goto	i2l528
  8492                           
  8493                           ;interrupt_manager.c: 69: {
  8494                           ;interrupt_manager.c: 70: EUSART1_Transmit_ISR();
  8495  001F6E  EC8F  F013         	call	_EUSART1_Transmit_ISR	;wreg free
  8496                           
  8497                           ;interrupt_manager.c: 71: PIR1bits.TX1IF = 0;
  8498  001F72  989E               	bcf	3998,4,c	;volatile
  8499                           
  8500                           ;interrupt_manager.c: 72: }
  8501  001F74  D03E               	goto	i2l546
  8502  001F76                     i2l528:
  8503                           
  8504                           ;interrupt_manager.c: 73: else if(PIE1bits.RC1IE == 1 && PIR1bits.RC1IF == 1)
  8505  001F76  BA9D               	btfsc	3997,5,c	;volatile
  8506  001F78  AA9E               	btfss	3998,5,c	;volatile
  8507  001F7A  D004               	goto	i2l530
  8508                           
  8509                           ;interrupt_manager.c: 74: {
  8510                           ;interrupt_manager.c: 75: EUSART1_Receive_ISR();
  8511  001F7C  EC1F  F014         	call	_EUSART1_Receive_ISR	;wreg free
  8512                           
  8513                           ;interrupt_manager.c: 76: PIR1bits.RC1IF = 0;
  8514  001F80  9A9E               	bcf	3998,5,c	;volatile
  8515                           
  8516                           ;interrupt_manager.c: 77: }
  8517  001F82  D037               	goto	i2l546
  8518  001F84                     i2l530:
  8519                           
  8520                           ;interrupt_manager.c: 78: else if(PIE1bits.TMR1IE == 1 && PIR1bits.TMR1IF == 1)
  8521  001F84  B09D               	btfsc	3997,0,c	;volatile
  8522  001F86  A09E               	btfss	3998,0,c	;volatile
  8523  001F88  D004               	goto	i2l532
  8524                           
  8525                           ;interrupt_manager.c: 79: {
  8526                           ;interrupt_manager.c: 80: TMR1_ISR();
  8527  001F8A  EC30  F014         	call	_TMR1_ISR	;wreg free
  8528                           
  8529                           ;interrupt_manager.c: 81: PIR1bits.TMR1IF = 0;
  8530  001F8E  909E               	bcf	3998,0,c	;volatile
  8531                           
  8532                           ;interrupt_manager.c: 82: }
  8533  001F90  D030               	goto	i2l546
  8534  001F92                     i2l532:
  8535                           
  8536                           ;interrupt_manager.c: 83: else if(INTCONbits.RBIE == 1 && INTCONbits.RBIF == 1)
  8537  001F92  B6F2               	btfsc	intcon,3,c	;volatile
  8538  001F94  A0F2               	btfss	intcon,0,c	;volatile
  8539  001F96  D006               	goto	i2l534
  8540                           
  8541                           ;interrupt_manager.c: 84: {
  8542                           ;interrupt_manager.c: 85: PIN_MANAGER_IOC();
  8543  001F98  EC31  F014         	call	_PIN_MANAGER_IOC	;wreg free
  8544                           
  8545                           ;interrupt_manager.c: 88: unsigned char __portb__ = PORTB;
  8546  001F9C  CF81 F015          	movff	3969,INTERRUPT_InterruptManager@__portb__	;volatile
  8547                           
  8548                           ;interrupt_manager.c: 89: INTCONbits.RBIF = 0;
  8549  001FA0  90F2               	bcf	intcon,0,c	;volatile
  8550                           
  8551                           ;interrupt_manager.c: 90: }
  8552  001FA2  D027               	goto	i2l546
  8553  001FA4                     i2l534:
  8554                           
  8555                           ;interrupt_manager.c: 91: else if(INTCONbits.INT0IE == 1 && INTCONbits.INT0IF == 1)
  8556  001FA4  B8F2               	btfsc	intcon,4,c	;volatile
  8557  001FA6  A2F2               	btfss	intcon,1,c	;volatile
  8558  001FA8  D004               	goto	i2l536
  8559                           
  8560                           ;interrupt_manager.c: 92: {
  8561                           ;interrupt_manager.c: 93: PIN_MANAGER_INT0();
  8562  001FAA  EC34  F014         	call	_PIN_MANAGER_INT0	;wreg free
  8563                           
  8564                           ;interrupt_manager.c: 95: INTCONbits.INT0IF = 0;
  8565  001FAE  92F2               	bcf	intcon,1,c	;volatile
  8566                           
  8567                           ;interrupt_manager.c: 96: }
  8568  001FB0  D020               	goto	i2l546
  8569  001FB2                     i2l536:
  8570                           
  8571                           ;interrupt_manager.c: 97: else if(INTCON3bits.INT1IE == 1 && INTCON3bits.INT1IF == 1)
  8572  001FB2  B6F0               	btfsc	intcon3,3,c	;volatile
  8573  001FB4  A0F0               	btfss	intcon3,0,c	;volatile
  8574  001FB6  D004               	goto	i2l538
  8575                           
  8576                           ;interrupt_manager.c: 98: {
  8577                           ;interrupt_manager.c: 99: PIN_MANAGER_INT1();
  8578  001FB8  EC33  F014         	call	_PIN_MANAGER_INT1	;wreg free
  8579                           
  8580                           ;interrupt_manager.c: 101: INTCON3bits.INT1IF = 0;
  8581  001FBC  90F0               	bcf	intcon3,0,c	;volatile
  8582                           
  8583                           ;interrupt_manager.c: 102: }
  8584  001FBE  D019               	goto	i2l546
  8585  001FC0                     i2l538:
  8586                           
  8587                           ;interrupt_manager.c: 103: else if(INTCON3bits.INT2IE == 1 && INTCON3bits.INT2IF == 1)
  8588  001FC0  B8F0               	btfsc	intcon3,4,c	;volatile
  8589  001FC2  A2F0               	btfss	intcon3,1,c	;volatile
  8590  001FC4  D004               	goto	i2l540
  8591                           
  8592                           ;interrupt_manager.c: 104: {
  8593                           ;interrupt_manager.c: 105: PIN_MANAGER_INT2();
  8594  001FC6  EC32  F014         	call	_PIN_MANAGER_INT2	;wreg free
  8595                           
  8596                           ;interrupt_manager.c: 107: INTCON3bits.INT2IF = 0;
  8597  001FCA  92F0               	bcf	intcon3,1,c	;volatile
  8598                           
  8599                           ;interrupt_manager.c: 108: }
  8600  001FCC  D012               	goto	i2l546
  8601  001FCE                     i2l540:
  8602                           
  8603                           ;interrupt_manager.c: 109: else if(PIE2bits.CCP2IE == 1 && PIR2bits.CCP2IF == 1)
  8604  001FCE  B0A0               	btfsc	4000,0,c	;volatile
  8605  001FD0  A0A1               	btfss	4001,0,c	;volatile
  8606  001FD2  D002               	goto	i2l542
  8607                           
  8608                           ;interrupt_manager.c: 110: {
  8609                           ;interrupt_manager.c: 113: PIR2bits.CCP2IF = 0;
  8610  001FD4  90A1               	bcf	4001,0,c	;volatile
  8611                           
  8612                           ;interrupt_manager.c: 114: }
  8613  001FD6  D00D               	goto	i2l546
  8614  001FD8                     i2l542:
  8615                           
  8616                           ;interrupt_manager.c: 115: else if(PIE2bits.TMR3IE == 1 && PIR2bits.TMR3IF == 1)
  8617  001FD8  B2A0               	btfsc	4000,1,c	;volatile
  8618  001FDA  A2A1               	btfss	4001,1,c	;volatile
  8619  001FDC  D004               	goto	i2l544
  8620                           
  8621                           ;interrupt_manager.c: 116: {
  8622                           ;interrupt_manager.c: 117: TMR3_ISR();
  8623  001FDE  EC78  F013         	call	_TMR3_ISR	;wreg free
  8624                           
  8625                           ;interrupt_manager.c: 118: PIR2bits.TMR3IF = 0;
  8626  001FE2  92A1               	bcf	4001,1,c	;volatile
  8627                           
  8628                           ;interrupt_manager.c: 119: }
  8629  001FE4  D006               	goto	i2l546
  8630  001FE6                     i2l544:
  8631                           
  8632                           ;interrupt_manager.c: 120: else if(PIE1bits.TMR2IE == 1 && PIR1bits.TMR2IF == 1)
  8633  001FE6  B29D               	btfsc	3997,1,c	;volatile
  8634  001FE8  A29E               	btfss	3998,1,c	;volatile
  8635  001FEA  D003               	goto	i2l546
  8636                           
  8637                           ;interrupt_manager.c: 121: {
  8638                           ;interrupt_manager.c: 122: TMR2_ISR();
  8639  001FEC  EC2F  F014         	call	_TMR2_ISR	;wreg free
  8640                           
  8641                           ;interrupt_manager.c: 123: PIR1bits.TMR2IF = 0;
  8642  001FF0  929E               	bcf	3998,1,c	;volatile
  8643  001FF2                     i2l546:
  8644                           
  8645                           ;interrupt_manager.c: 125: else
  8646                           ;interrupt_manager.c: 126: {
  8647  001FF2  C014  F04C         	movff	??_INTERRUPT_InterruptManager+17,btemp+3
  8648  001FF6  C013  F04B         	movff	??_INTERRUPT_InterruptManager+16,btemp+2
  8649  001FFA  C012  F04A         	movff	??_INTERRUPT_InterruptManager+15,btemp+1
  8650  001FFE  C011  F049         	movff	??_INTERRUPT_InterruptManager+14,btemp
  8651  002002  C010  FFF5         	movff	??_INTERRUPT_InterruptManager+13,tablat
  8652  002006  C00F  FFF8         	movff	??_INTERRUPT_InterruptManager+12,tblptru
  8653  00200A  C00E  FFF7         	movff	??_INTERRUPT_InterruptManager+11,tblptrh
  8654  00200E  C00D  FFF6         	movff	??_INTERRUPT_InterruptManager+10,tblptrl
  8655  002012  C00C  FFF4         	movff	??_INTERRUPT_InterruptManager+9,prodh
  8656  002016  C00B  FFF3         	movff	??_INTERRUPT_InterruptManager+8,prodl
  8657  00201A  C00A  FFDA         	movff	??_INTERRUPT_InterruptManager+7,fsr2h
  8658  00201E  C009  FFD9         	movff	??_INTERRUPT_InterruptManager+6,fsr2l
  8659  002022  C008  FFE2         	movff	??_INTERRUPT_InterruptManager+5,fsr1h
  8660  002026  C007  FFE1         	movff	??_INTERRUPT_InterruptManager+4,fsr1l
  8661  00202A  C006  FFEA         	movff	??_INTERRUPT_InterruptManager+3,fsr0h
  8662  00202E  C005  FFE9         	movff	??_INTERRUPT_InterruptManager+2,fsr0l
  8663  002032  C004  FFFB         	movff	??_INTERRUPT_InterruptManager+1,pclatu
  8664  002036  C003  FFFA         	movff	??_INTERRUPT_InterruptManager,pclath
  8665  00203A  9249               	bcf	btemp,1,c	;clear compiler interrupt flag (level 2)
  8666  00203C  0011               	retfie		f
  8667  00203E                     __end_of_INTERRUPT_InterruptManager:
  8668                           	opt stack 0
  8669                           pclatu	equ	0xFFB
  8670                           pclath	equ	0xFFA
  8671                           tblptru	equ	0xFF8
  8672                           tblptrh	equ	0xFF7
  8673                           tblptrl	equ	0xFF6
  8674                           tablat	equ	0xFF5
  8675                           prodh	equ	0xFF4
  8676                           prodl	equ	0xFF3
  8677                           intcon	equ	0xFF2
  8678                           intcon2	equ	0xFF1
  8679                           intcon3	equ	0xFF0
  8680                           indf0	equ	0xFEF
  8681                           postinc0	equ	0xFEE
  8682                           fsr0h	equ	0xFEA
  8683                           fsr0l	equ	0xFE9
  8684                           wreg	equ	0xFE8
  8685                           postdec1	equ	0xFE5
  8686                           fsr1h	equ	0xFE2
  8687                           fsr1l	equ	0xFE1
  8688                           indf2	equ	0xFDF
  8689                           postinc2	equ	0xFDE
  8690                           postdec2	equ	0xFDD
  8691                           fsr2h	equ	0xFDA
  8692                           fsr2l	equ	0xFD9
  8693                           status	equ	0xFD8
  8694                           
  8695 ;; *************** function _TMR3_ISR *****************
  8696 ;; Defined at:
  8697 ;;		line 158 in file "tmr3.c"
  8698 ;; Parameters:    Size  Location     Type
  8699 ;;		None
  8700 ;; Auto vars:     Size  Location     Type
  8701 ;;		None
  8702 ;; Return value:  Size  Location     Type
  8703 ;;                  1    wreg      void 
  8704 ;; Registers used:
  8705 ;;		wreg, status,2, status,0, pclath, tosl, cstack
  8706 ;; Tracked objects:
  8707 ;;		On entry : 0/0
  8708 ;;		On exit  : 0/0
  8709 ;;		Unchanged: 0/0
  8710 ;; Data sizes:     COMRAM   BANK0   BANK1   BANK2   BANK3   BANK4   BANK5   BANK6   BANK7
  8711 ;;      Params:         0       0       0       0       0       0       0       0       0
  8712 ;;      Locals:         0       0       0       0       0       0       0       0       0
  8713 ;;      Temps:          0       0       0       0       0       0       0       0       0
  8714 ;;      Totals:         0       0       0       0       0       0       0       0       0
  8715 ;;Total ram usage:        0 bytes
  8716 ;; Hardware stack levels used:    1
  8717 ;; Hardware stack levels required when called:    1
  8718 ;; This function calls:
  8719 ;;		Absolute function
  8720 ;;		_TMR3_DefaultInterruptHandler
  8721 ;; This function is called by:
  8722 ;;		_INTERRUPT_InterruptManager
  8723 ;; This function uses a non-reentrant model
  8724 ;;
  8725                           
  8726                           	psect	text31
  8727  0026F0                     __ptext31:
  8728                           	opt stack 0
  8729  0026F0                     _TMR3_ISR:
  8730                           	opt stack 21
  8731                           
  8732                           ;tmr3.c: 162: TMR3H = (timer3ReloadVal >> 8);
  8733                           
  8734                           ;incstack = 0
  8735  0026F0  5035               	movf	_timer3ReloadVal+1,w,c	;volatile
  8736  0026F2  6EB3               	movwf	4019,c	;volatile
  8737                           
  8738                           ;tmr3.c: 163: TMR3L = (uint8_t) timer3ReloadVal;
  8739  0026F4  C034  FFB2         	movff	_timer3ReloadVal,4018	;volatile
  8740                           
  8741                           ;tmr3.c: 165: if(TMR3_InterruptHandler)
  8742  0026F8  0100               	movlb	0	; () banked
  8743  0026FA  51B9               	movf	_TMR3_InterruptHandler& (0+255),w,b
  8744  0026FC  0100               	movlb	0	; () banked
  8745  0026FE  11BA               	iorwf	(_TMR3_InterruptHandler+1)& (0+255),w,b
  8746  002700  B4D8               	btfsc	status,2,c
  8747  002702  0012               	return	
  8748                           
  8749                           ; BSR set to: 0
  8750                           ;tmr3.c: 166: {
  8751                           ;tmr3.c: 167: TMR3_InterruptHandler();
  8752  002704  D801               	call	i2u298_48
  8753  002706  0012               	return	
  8754  002708                     i2u298_48:
  8755  002708  0005               	push	
  8756  00270A  0100               	movlb	0	; () banked
  8757  00270C  6EFA               	movwf	pclath,c
  8758  00270E  51B9               	movf	_TMR3_InterruptHandler& (0+255),w,b
  8759  002710  6EFD               	movwf	tosl,c
  8760  002712  51BA               	movf	(_TMR3_InterruptHandler+1)& (0+255),w,b
  8761  002714  6EFE               	movwf	tosh,c
  8762  002716  50F8               	movf	tblptru,w,c
  8763  002718  6EFF               	movwf	tosu,c
  8764  00271A  50FA               	movf	pclath,w,c
  8765  00271C  0012               	return		;indir
  8766  00271E                     __end_of_TMR3_ISR:
  8767                           	opt stack 0
  8768                           tosu	equ	0xFFF
  8769                           tosh	equ	0xFFE
  8770                           tosl	equ	0xFFD
  8771                           pclatu	equ	0xFFB
  8772                           pclath	equ	0xFFA
  8773                           tblptru	equ	0xFF8
  8774                           tblptrh	equ	0xFF7
  8775                           tblptrl	equ	0xFF6
  8776                           tablat	equ	0xFF5
  8777                           prodh	equ	0xFF4
  8778                           prodl	equ	0xFF3
  8779                           intcon	equ	0xFF2
  8780                           intcon2	equ	0xFF1
  8781                           intcon3	equ	0xFF0
  8782                           indf0	equ	0xFEF
  8783                           postinc0	equ	0xFEE
  8784                           fsr0h	equ	0xFEA
  8785                           fsr0l	equ	0xFE9
  8786                           wreg	equ	0xFE8
  8787                           postdec1	equ	0xFE5
  8788                           fsr1h	equ	0xFE2
  8789                           fsr1l	equ	0xFE1
  8790                           indf2	equ	0xFDF
  8791                           postinc2	equ	0xFDE
  8792                           postdec2	equ	0xFDD
  8793                           fsr2h	equ	0xFDA
  8794                           fsr2l	equ	0xFD9
  8795                           status	equ	0xFD8
  8796                           
  8797 ;; *************** function _TMR3_DefaultInterruptHandler *****************
  8798 ;; Defined at:
  8799 ;;		line 176 in file "tmr3.c"
  8800 ;; Parameters:    Size  Location     Type
  8801 ;;		None
  8802 ;; Auto vars:     Size  Location     Type
  8803 ;;		None
  8804 ;; Return value:  Size  Location     Type
  8805 ;;                  1    wreg      void 
  8806 ;; Registers used:
  8807 ;;		None
  8808 ;; Tracked objects:
  8809 ;;		On entry : 0/0
  8810 ;;		On exit  : 0/0
  8811 ;;		Unchanged: 0/0
  8812 ;; Data sizes:     COMRAM   BANK0   BANK1   BANK2   BANK3   BANK4   BANK5   BANK6   BANK7
  8813 ;;      Params:         0       0       0       0       0       0       0       0       0
  8814 ;;      Locals:         0       0       0       0       0       0       0       0       0
  8815 ;;      Temps:          0       0       0       0       0       0       0       0       0
  8816 ;;      Totals:         0       0       0       0       0       0       0       0       0
  8817 ;;Total ram usage:        0 bytes
  8818 ;; Hardware stack levels used:    1
  8819 ;; This function calls:
  8820 ;;		Nothing
  8821 ;; This function is called by:
  8822 ;;		_TMR3_Initialize
  8823 ;;		_TMR3_ISR
  8824 ;; This function uses a non-reentrant model
  8825 ;;
  8826                           
  8827                           	psect	text32
  8828  00285C                     __ptext32:
  8829                           	opt stack 0
  8830  00285C                     _TMR3_DefaultInterruptHandler:
  8831                           	opt stack 21
  8832                           
  8833                           ;incstack = 0
  8834  00285C  0012               	return		;funcret
  8835  00285E                     __end_of_TMR3_DefaultInterruptHandler:
  8836                           	opt stack 0
  8837                           tosu	equ	0xFFF
  8838                           tosh	equ	0xFFE
  8839                           tosl	equ	0xFFD
  8840                           pclatu	equ	0xFFB
  8841                           pclath	equ	0xFFA
  8842                           tblptru	equ	0xFF8
  8843                           tblptrh	equ	0xFF7
  8844                           tblptrl	equ	0xFF6
  8845                           tablat	equ	0xFF5
  8846                           prodh	equ	0xFF4
  8847                           prodl	equ	0xFF3
  8848                           intcon	equ	0xFF2
  8849                           intcon2	equ	0xFF1
  8850                           intcon3	equ	0xFF0
  8851                           indf0	equ	0xFEF
  8852                           postinc0	equ	0xFEE
  8853                           fsr0h	equ	0xFEA
  8854                           fsr0l	equ	0xFE9
  8855                           wreg	equ	0xFE8
  8856                           postdec1	equ	0xFE5
  8857                           fsr1h	equ	0xFE2
  8858                           fsr1l	equ	0xFE1
  8859                           indf2	equ	0xFDF
  8860                           postinc2	equ	0xFDE
  8861                           postdec2	equ	0xFDD
  8862                           fsr2h	equ	0xFDA
  8863                           fsr2l	equ	0xFD9
  8864                           status	equ	0xFD8
  8865                           
  8866 ;; *************** function _TMR2_ISR *****************
  8867 ;; Defined at:
  8868 ;;		line 123 in file "tmr2.c"
  8869 ;; Parameters:    Size  Location     Type
  8870 ;;		None
  8871 ;; Auto vars:     Size  Location     Type
  8872 ;;		None
  8873 ;; Return value:  Size  Location     Type
  8874 ;;                  1    wreg      void 
  8875 ;; Registers used:
  8876 ;;		None
  8877 ;; Tracked objects:
  8878 ;;		On entry : 0/0
  8879 ;;		On exit  : 0/0
  8880 ;;		Unchanged: 0/0
  8881 ;; Data sizes:     COMRAM   BANK0   BANK1   BANK2   BANK3   BANK4   BANK5   BANK6   BANK7
  8882 ;;      Params:         0       0       0       0       0       0       0       0       0
  8883 ;;      Locals:         0       0       0       0       0       0       0       0       0
  8884 ;;      Temps:          0       0       0       0       0       0       0       0       0
  8885 ;;      Totals:         0       0       0       0       0       0       0       0       0
  8886 ;;Total ram usage:        0 bytes
  8887 ;; Hardware stack levels used:    1
  8888 ;; This function calls:
  8889 ;;		Nothing
  8890 ;; This function is called by:
  8891 ;;		_INTERRUPT_InterruptManager
  8892 ;; This function uses a non-reentrant model
  8893 ;;
  8894                           
  8895                           	psect	text33
  8896  00285E                     __ptext33:
  8897                           	opt stack 0
  8898  00285E                     _TMR2_ISR:
  8899                           	opt stack 22
  8900                           
  8901                           ;incstack = 0
  8902  00285E  0012               	return		;funcret
  8903  002860                     __end_of_TMR2_ISR:
  8904                           	opt stack 0
  8905                           tosu	equ	0xFFF
  8906                           tosh	equ	0xFFE
  8907                           tosl	equ	0xFFD
  8908                           pclatu	equ	0xFFB
  8909                           pclath	equ	0xFFA
  8910                           tblptru	equ	0xFF8
  8911                           tblptrh	equ	0xFF7
  8912                           tblptrl	equ	0xFF6
  8913                           tablat	equ	0xFF5
  8914                           prodh	equ	0xFF4
  8915                           prodl	equ	0xFF3
  8916                           intcon	equ	0xFF2
  8917                           intcon2	equ	0xFF1
  8918                           intcon3	equ	0xFF0
  8919                           indf0	equ	0xFEF
  8920                           postinc0	equ	0xFEE
  8921                           fsr0h	equ	0xFEA
  8922                           fsr0l	equ	0xFE9
  8923                           wreg	equ	0xFE8
  8924                           postdec1	equ	0xFE5
  8925                           fsr1h	equ	0xFE2
  8926                           fsr1l	equ	0xFE1
  8927                           indf2	equ	0xFDF
  8928                           postinc2	equ	0xFDE
  8929                           postdec2	equ	0xFDD
  8930                           fsr2h	equ	0xFDA
  8931                           fsr2l	equ	0xFD9
  8932                           status	equ	0xFD8
  8933                           
  8934 ;; *************** function _TMR1_ISR *****************
  8935 ;; Defined at:
  8936 ;;		line 151 in file "tmr1.c"
  8937 ;; Parameters:    Size  Location     Type
  8938 ;;		None
  8939 ;; Auto vars:     Size  Location     Type
  8940 ;;		None
  8941 ;; Return value:  Size  Location     Type
  8942 ;;                  1    wreg      void 
  8943 ;; Registers used:
  8944 ;;		None
  8945 ;; Tracked objects:
  8946 ;;		On entry : 0/0
  8947 ;;		On exit  : 0/0
  8948 ;;		Unchanged: 0/0
  8949 ;; Data sizes:     COMRAM   BANK0   BANK1   BANK2   BANK3   BANK4   BANK5   BANK6   BANK7
  8950 ;;      Params:         0       0       0       0       0       0       0       0       0
  8951 ;;      Locals:         0       0       0       0       0       0       0       0       0
  8952 ;;      Temps:          0       0       0       0       0       0       0       0       0
  8953 ;;      Totals:         0       0       0       0       0       0       0       0       0
  8954 ;;Total ram usage:        0 bytes
  8955 ;; Hardware stack levels used:    1
  8956 ;; This function calls:
  8957 ;;		Nothing
  8958 ;; This function is called by:
  8959 ;;		_INTERRUPT_InterruptManager
  8960 ;; This function uses a non-reentrant model
  8961 ;;
  8962                           
  8963                           	psect	text34
  8964  002860                     __ptext34:
  8965                           	opt stack 0
  8966  002860                     _TMR1_ISR:
  8967                           	opt stack 22
  8968                           
  8969                           ;incstack = 0
  8970  002860  0012               	return		;funcret
  8971  002862                     __end_of_TMR1_ISR:
  8972                           	opt stack 0
  8973                           tosu	equ	0xFFF
  8974                           tosh	equ	0xFFE
  8975                           tosl	equ	0xFFD
  8976                           pclatu	equ	0xFFB
  8977                           pclath	equ	0xFFA
  8978                           tblptru	equ	0xFF8
  8979                           tblptrh	equ	0xFF7
  8980                           tblptrl	equ	0xFF6
  8981                           tablat	equ	0xFF5
  8982                           prodh	equ	0xFF4
  8983                           prodl	equ	0xFF3
  8984                           intcon	equ	0xFF2
  8985                           intcon2	equ	0xFF1
  8986                           intcon3	equ	0xFF0
  8987                           indf0	equ	0xFEF
  8988                           postinc0	equ	0xFEE
  8989                           fsr0h	equ	0xFEA
  8990                           fsr0l	equ	0xFE9
  8991                           wreg	equ	0xFE8
  8992                           postdec1	equ	0xFE5
  8993                           fsr1h	equ	0xFE2
  8994                           fsr1l	equ	0xFE1
  8995                           indf2	equ	0xFDF
  8996                           postinc2	equ	0xFDE
  8997                           postdec2	equ	0xFDD
  8998                           fsr2h	equ	0xFDA
  8999                           fsr2l	equ	0xFD9
  9000                           status	equ	0xFD8
  9001                           
  9002 ;; *************** function _TMR0_ISR *****************
  9003 ;; Defined at:
  9004 ;;		line 150 in file "tmr0.c"
  9005 ;; Parameters:    Size  Location     Type
  9006 ;;		None
  9007 ;; Auto vars:     Size  Location     Type
  9008 ;;		None
  9009 ;; Return value:  Size  Location     Type
  9010 ;;                  1    wreg      void 
  9011 ;; Registers used:
  9012 ;;		wreg, status,2, status,0, cstack
  9013 ;; Tracked objects:
  9014 ;;		On entry : 0/0
  9015 ;;		On exit  : 0/0
  9016 ;;		Unchanged: 0/0
  9017 ;; Data sizes:     COMRAM   BANK0   BANK1   BANK2   BANK3   BANK4   BANK5   BANK6   BANK7
  9018 ;;      Params:         0       0       0       0       0       0       0       0       0
  9019 ;;      Locals:         0       0       0       0       0       0       0       0       0
  9020 ;;      Temps:          0       0       0       0       0       0       0       0       0
  9021 ;;      Totals:         0       0       0       0       0       0       0       0       0
  9022 ;;Total ram usage:        0 bytes
  9023 ;; Hardware stack levels used:    1
  9024 ;; Hardware stack levels required when called:    1
  9025 ;; This function calls:
  9026 ;;		i2_TMR0_WriteTimer
  9027 ;; This function is called by:
  9028 ;;		_INTERRUPT_InterruptManager
  9029 ;; This function uses a non-reentrant model
  9030 ;;
  9031                           
  9032                           	psect	text35
  9033  00279C                     __ptext35:
  9034                           	opt stack 0
  9035  00279C                     _TMR0_ISR:
  9036                           	opt stack 21
  9037                           
  9038                           ;tmr0.c: 154: TMR0_WriteTimer(0);
  9039                           
  9040                           ;incstack = 0
  9041  00279C  0E00               	movlw	0
  9042  00279E  6E02               	movwf	i2TMR0_WriteTimer@timerVal+1,c
  9043  0027A0  0E00               	movlw	0
  9044  0027A2  6E01               	movwf	i2TMR0_WriteTimer@timerVal,c
  9045  0027A4  EC1A  F014         	call	i2_TMR0_WriteTimer	;wreg free
  9046                           
  9047                           ;tmr0.c: 156: Timer0_Counter++;
  9048  0027A8  0100               	movlb	0	; () banked
  9049  0027AA  2BC1               	incf	_Timer0_Counter& (0+255),f,b
  9050                           
  9051                           ; BSR set to: 0
  9052                           ;tmr0.c: 157: Timer0_Flag = 1;
  9053  0027AC  0E01               	movlw	1
  9054  0027AE  0100               	movlb	0	; () banked
  9055  0027B0  6FC0               	movwf	_Timer0_Flag& (0+255),b
  9056                           
  9057                           ; BSR set to: 0
  9058  0027B2  0012               	return		;funcret
  9059  0027B4                     __end_of_TMR0_ISR:
  9060                           	opt stack 0
  9061                           tosu	equ	0xFFF
  9062                           tosh	equ	0xFFE
  9063                           tosl	equ	0xFFD
  9064                           pclatu	equ	0xFFB
  9065                           pclath	equ	0xFFA
  9066                           tblptru	equ	0xFF8
  9067                           tblptrh	equ	0xFF7
  9068                           tblptrl	equ	0xFF6
  9069                           tablat	equ	0xFF5
  9070                           prodh	equ	0xFF4
  9071                           prodl	equ	0xFF3
  9072                           intcon	equ	0xFF2
  9073                           intcon2	equ	0xFF1
  9074                           intcon3	equ	0xFF0
  9075                           indf0	equ	0xFEF
  9076                           postinc0	equ	0xFEE
  9077                           fsr0h	equ	0xFEA
  9078                           fsr0l	equ	0xFE9
  9079                           wreg	equ	0xFE8
  9080                           postdec1	equ	0xFE5
  9081                           fsr1h	equ	0xFE2
  9082                           fsr1l	equ	0xFE1
  9083                           indf2	equ	0xFDF
  9084                           postinc2	equ	0xFDE
  9085                           postdec2	equ	0xFDD
  9086                           fsr2h	equ	0xFDA
  9087                           fsr2l	equ	0xFD9
  9088                           status	equ	0xFD8
  9089                           
  9090 ;; *************** function i2_TMR0_WriteTimer *****************
  9091 ;; Defined at:
  9092 ;;		line 133 in file "tmr0.c"
  9093 ;; Parameters:    Size  Location     Type
  9094 ;;  timerVal        2    0[COMRAM] unsigned int 
  9095 ;; Auto vars:     Size  Location     Type
  9096 ;;		None
  9097 ;; Return value:  Size  Location     Type
  9098 ;;                  1    wreg      void 
  9099 ;; Registers used:
  9100 ;;		wreg, status,2
  9101 ;; Tracked objects:
  9102 ;;		On entry : 0/0
  9103 ;;		On exit  : 0/0
  9104 ;;		Unchanged: 0/0
  9105 ;; Data sizes:     COMRAM   BANK0   BANK1   BANK2   BANK3   BANK4   BANK5   BANK6   BANK7
  9106 ;;      Params:         2       0       0       0       0       0       0       0       0
  9107 ;;      Locals:         0       0       0       0       0       0       0       0       0
  9108 ;;      Temps:          0       0       0       0       0       0       0       0       0
  9109 ;;      Totals:         2       0       0       0       0       0       0       0       0
  9110 ;;Total ram usage:        2 bytes
  9111 ;; Hardware stack levels used:    1
  9112 ;; This function calls:
  9113 ;;		Nothing
  9114 ;; This function is called by:
  9115 ;;		_TMR0_ISR
  9116 ;; This function uses a non-reentrant model
  9117 ;;
  9118                           
  9119                           	psect	text36
  9120  002834                     __ptext36:
  9121                           	opt stack 0
  9122  002834                     i2_TMR0_WriteTimer:
  9123                           	opt stack 21
  9124                           
  9125                           ;tmr0.c: 136: TMR0H = (timerVal >> 8);
  9126                           
  9127                           ; BSR set to: 0
  9128                           ;incstack = 0
  9129  002834  5002               	movf	i2TMR0_WriteTimer@timerVal+1,w,c
  9130  002836  6ED7               	movwf	4055,c	;volatile
  9131                           
  9132                           ;tmr0.c: 137: TMR0L = (uint8_t) timerVal;
  9133  002838  C001  FFD6         	movff	i2TMR0_WriteTimer@timerVal,4054	;volatile
  9134  00283C  0012               	return		;funcret
  9135  00283E                     __end_ofi2_TMR0_WriteTimer:
  9136                           	opt stack 0
  9137                           tosu	equ	0xFFF
  9138                           tosh	equ	0xFFE
  9139                           tosl	equ	0xFFD
  9140                           pclatu	equ	0xFFB
  9141                           pclath	equ	0xFFA
  9142                           tblptru	equ	0xFF8
  9143                           tblptrh	equ	0xFF7
  9144                           tblptrl	equ	0xFF6
  9145                           tablat	equ	0xFF5
  9146                           prodh	equ	0xFF4
  9147                           prodl	equ	0xFF3
  9148                           intcon	equ	0xFF2
  9149                           intcon2	equ	0xFF1
  9150                           intcon3	equ	0xFF0
  9151                           indf0	equ	0xFEF
  9152                           postinc0	equ	0xFEE
  9153                           fsr0h	equ	0xFEA
  9154                           fsr0l	equ	0xFE9
  9155                           wreg	equ	0xFE8
  9156                           postdec1	equ	0xFE5
  9157                           fsr1h	equ	0xFE2
  9158                           fsr1l	equ	0xFE1
  9159                           indf2	equ	0xFDF
  9160                           postinc2	equ	0xFDE
  9161                           postdec2	equ	0xFDD
  9162                           fsr2h	equ	0xFDA
  9163                           fsr2l	equ	0xFD9
  9164                           status	equ	0xFD8
  9165                           
  9166 ;; *************** function _PIN_MANAGER_IOC *****************
  9167 ;; Defined at:
  9168 ;;		line 14 in file "pin_manager.c"
  9169 ;; Parameters:    Size  Location     Type
  9170 ;;		None
  9171 ;; Auto vars:     Size  Location     Type
  9172 ;;		None
  9173 ;; Return value:  Size  Location     Type
  9174 ;;                  1    wreg      void 
  9175 ;; Registers used:
  9176 ;;		None
  9177 ;; Tracked objects:
  9178 ;;		On entry : 0/0
  9179 ;;		On exit  : 0/0
  9180 ;;		Unchanged: 0/0
  9181 ;; Data sizes:     COMRAM   BANK0   BANK1   BANK2   BANK3   BANK4   BANK5   BANK6   BANK7
  9182 ;;      Params:         0       0       0       0       0       0       0       0       0
  9183 ;;      Locals:         0       0       0       0       0       0       0       0       0
  9184 ;;      Temps:          0       0       0       0       0       0       0       0       0
  9185 ;;      Totals:         0       0       0       0       0       0       0       0       0
  9186 ;;Total ram usage:        0 bytes
  9187 ;; Hardware stack levels used:    1
  9188 ;; This function calls:
  9189 ;;		Nothing
  9190 ;; This function is called by:
  9191 ;;		_INTERRUPT_InterruptManager
  9192 ;; This function uses a non-reentrant model
  9193 ;;
  9194                           
  9195                           	psect	text37
  9196  002862                     __ptext37:
  9197                           	opt stack 0
  9198  002862                     _PIN_MANAGER_IOC:
  9199                           	opt stack 22
  9200                           
  9201                           ;incstack = 0
  9202  002862  0012               	return		;funcret
  9203  002864                     __end_of_PIN_MANAGER_IOC:
  9204                           	opt stack 0
  9205                           tosu	equ	0xFFF
  9206                           tosh	equ	0xFFE
  9207                           tosl	equ	0xFFD
  9208                           pclatu	equ	0xFFB
  9209                           pclath	equ	0xFFA
  9210                           tblptru	equ	0xFF8
  9211                           tblptrh	equ	0xFF7
  9212                           tblptrl	equ	0xFF6
  9213                           tablat	equ	0xFF5
  9214                           prodh	equ	0xFF4
  9215                           prodl	equ	0xFF3
  9216                           intcon	equ	0xFF2
  9217                           intcon2	equ	0xFF1
  9218                           intcon3	equ	0xFF0
  9219                           indf0	equ	0xFEF
  9220                           postinc0	equ	0xFEE
  9221                           fsr0h	equ	0xFEA
  9222                           fsr0l	equ	0xFE9
  9223                           wreg	equ	0xFE8
  9224                           postdec1	equ	0xFE5
  9225                           fsr1h	equ	0xFE2
  9226                           fsr1l	equ	0xFE1
  9227                           indf2	equ	0xFDF
  9228                           postinc2	equ	0xFDE
  9229                           postdec2	equ	0xFDD
  9230                           fsr2h	equ	0xFDA
  9231                           fsr2l	equ	0xFD9
  9232                           status	equ	0xFD8
  9233                           
  9234 ;; *************** function _PIN_MANAGER_INT2 *****************
  9235 ;; Defined at:
  9236 ;;		line 30 in file "pin_manager.c"
  9237 ;; Parameters:    Size  Location     Type
  9238 ;;		None
  9239 ;; Auto vars:     Size  Location     Type
  9240 ;;		None
  9241 ;; Return value:  Size  Location     Type
  9242 ;;                  1    wreg      void 
  9243 ;; Registers used:
  9244 ;;		None
  9245 ;; Tracked objects:
  9246 ;;		On entry : 0/0
  9247 ;;		On exit  : 0/0
  9248 ;;		Unchanged: 0/0
  9249 ;; Data sizes:     COMRAM   BANK0   BANK1   BANK2   BANK3   BANK4   BANK5   BANK6   BANK7
  9250 ;;      Params:         0       0       0       0       0       0       0       0       0
  9251 ;;      Locals:         0       0       0       0       0       0       0       0       0
  9252 ;;      Temps:          0       0       0       0       0       0       0       0       0
  9253 ;;      Totals:         0       0       0       0       0       0       0       0       0
  9254 ;;Total ram usage:        0 bytes
  9255 ;; Hardware stack levels used:    1
  9256 ;; This function calls:
  9257 ;;		Nothing
  9258 ;; This function is called by:
  9259 ;;		_INTERRUPT_InterruptManager
  9260 ;; This function uses a non-reentrant model
  9261 ;;
  9262                           
  9263                           	psect	text38
  9264  002864                     __ptext38:
  9265                           	opt stack 0
  9266  002864                     _PIN_MANAGER_INT2:
  9267                           	opt stack 22
  9268                           
  9269                           ;incstack = 0
  9270  002864  0012               	return		;funcret
  9271  002866                     __end_of_PIN_MANAGER_INT2:
  9272                           	opt stack 0
  9273                           tosu	equ	0xFFF
  9274                           tosh	equ	0xFFE
  9275                           tosl	equ	0xFFD
  9276                           pclatu	equ	0xFFB
  9277                           pclath	equ	0xFFA
  9278                           tblptru	equ	0xFF8
  9279                           tblptrh	equ	0xFF7
  9280                           tblptrl	equ	0xFF6
  9281                           tablat	equ	0xFF5
  9282                           prodh	equ	0xFF4
  9283                           prodl	equ	0xFF3
  9284                           intcon	equ	0xFF2
  9285                           intcon2	equ	0xFF1
  9286                           intcon3	equ	0xFF0
  9287                           indf0	equ	0xFEF
  9288                           postinc0	equ	0xFEE
  9289                           fsr0h	equ	0xFEA
  9290                           fsr0l	equ	0xFE9
  9291                           wreg	equ	0xFE8
  9292                           postdec1	equ	0xFE5
  9293                           fsr1h	equ	0xFE2
  9294                           fsr1l	equ	0xFE1
  9295                           indf2	equ	0xFDF
  9296                           postinc2	equ	0xFDE
  9297                           postdec2	equ	0xFDD
  9298                           fsr2h	equ	0xFDA
  9299                           fsr2l	equ	0xFD9
  9300                           status	equ	0xFD8
  9301                           
  9302 ;; *************** function _PIN_MANAGER_INT1 *****************
  9303 ;; Defined at:
  9304 ;;		line 25 in file "pin_manager.c"
  9305 ;; Parameters:    Size  Location     Type
  9306 ;;		None
  9307 ;; Auto vars:     Size  Location     Type
  9308 ;;		None
  9309 ;; Return value:  Size  Location     Type
  9310 ;;                  1    wreg      void 
  9311 ;; Registers used:
  9312 ;;		None
  9313 ;; Tracked objects:
  9314 ;;		On entry : 0/0
  9315 ;;		On exit  : 0/0
  9316 ;;		Unchanged: 0/0
  9317 ;; Data sizes:     COMRAM   BANK0   BANK1   BANK2   BANK3   BANK4   BANK5   BANK6   BANK7
  9318 ;;      Params:         0       0       0       0       0       0       0       0       0
  9319 ;;      Locals:         0       0       0       0       0       0       0       0       0
  9320 ;;      Temps:          0       0       0       0       0       0       0       0       0
  9321 ;;      Totals:         0       0       0       0       0       0       0       0       0
  9322 ;;Total ram usage:        0 bytes
  9323 ;; Hardware stack levels used:    1
  9324 ;; This function calls:
  9325 ;;		Nothing
  9326 ;; This function is called by:
  9327 ;;		_INTERRUPT_InterruptManager
  9328 ;; This function uses a non-reentrant model
  9329 ;;
  9330                           
  9331                           	psect	text39
  9332  002866                     __ptext39:
  9333                           	opt stack 0
  9334  002866                     _PIN_MANAGER_INT1:
  9335                           	opt stack 22
  9336                           
  9337                           ;incstack = 0
  9338  002866  0012               	return		;funcret
  9339  002868                     __end_of_PIN_MANAGER_INT1:
  9340                           	opt stack 0
  9341                           tosu	equ	0xFFF
  9342                           tosh	equ	0xFFE
  9343                           tosl	equ	0xFFD
  9344                           pclatu	equ	0xFFB
  9345                           pclath	equ	0xFFA
  9346                           tblptru	equ	0xFF8
  9347                           tblptrh	equ	0xFF7
  9348                           tblptrl	equ	0xFF6
  9349                           tablat	equ	0xFF5
  9350                           prodh	equ	0xFF4
  9351                           prodl	equ	0xFF3
  9352                           intcon	equ	0xFF2
  9353                           intcon2	equ	0xFF1
  9354                           intcon3	equ	0xFF0
  9355                           indf0	equ	0xFEF
  9356                           postinc0	equ	0xFEE
  9357                           fsr0h	equ	0xFEA
  9358                           fsr0l	equ	0xFE9
  9359                           wreg	equ	0xFE8
  9360                           postdec1	equ	0xFE5
  9361                           fsr1h	equ	0xFE2
  9362                           fsr1l	equ	0xFE1
  9363                           indf2	equ	0xFDF
  9364                           postinc2	equ	0xFDE
  9365                           postdec2	equ	0xFDD
  9366                           fsr2h	equ	0xFDA
  9367                           fsr2l	equ	0xFD9
  9368                           status	equ	0xFD8
  9369                           
  9370 ;; *************** function _PIN_MANAGER_INT0 *****************
  9371 ;; Defined at:
  9372 ;;		line 20 in file "pin_manager.c"
  9373 ;; Parameters:    Size  Location     Type
  9374 ;;		None
  9375 ;; Auto vars:     Size  Location     Type
  9376 ;;		None
  9377 ;; Return value:  Size  Location     Type
  9378 ;;                  1    wreg      void 
  9379 ;; Registers used:
  9380 ;;		None
  9381 ;; Tracked objects:
  9382 ;;		On entry : 0/0
  9383 ;;		On exit  : 0/0
  9384 ;;		Unchanged: 0/0
  9385 ;; Data sizes:     COMRAM   BANK0   BANK1   BANK2   BANK3   BANK4   BANK5   BANK6   BANK7
  9386 ;;      Params:         0       0       0       0       0       0       0       0       0
  9387 ;;      Locals:         0       0       0       0       0       0       0       0       0
  9388 ;;      Temps:          0       0       0       0       0       0       0       0       0
  9389 ;;      Totals:         0       0       0       0       0       0       0       0       0
  9390 ;;Total ram usage:        0 bytes
  9391 ;; Hardware stack levels used:    1
  9392 ;; This function calls:
  9393 ;;		Nothing
  9394 ;; This function is called by:
  9395 ;;		_INTERRUPT_InterruptManager
  9396 ;; This function uses a non-reentrant model
  9397 ;;
  9398                           
  9399                           	psect	text40
  9400  002868                     __ptext40:
  9401                           	opt stack 0
  9402  002868                     _PIN_MANAGER_INT0:
  9403                           	opt stack 22
  9404                           
  9405                           ;incstack = 0
  9406  002868  0012               	return		;funcret
  9407  00286A                     __end_of_PIN_MANAGER_INT0:
  9408                           	opt stack 0
  9409                           tosu	equ	0xFFF
  9410                           tosh	equ	0xFFE
  9411                           tosl	equ	0xFFD
  9412                           pclatu	equ	0xFFB
  9413                           pclath	equ	0xFFA
  9414                           tblptru	equ	0xFF8
  9415                           tblptrh	equ	0xFF7
  9416                           tblptrl	equ	0xFF6
  9417                           tablat	equ	0xFF5
  9418                           prodh	equ	0xFF4
  9419                           prodl	equ	0xFF3
  9420                           intcon	equ	0xFF2
  9421                           intcon2	equ	0xFF1
  9422                           intcon3	equ	0xFF0
  9423                           indf0	equ	0xFEF
  9424                           postinc0	equ	0xFEE
  9425                           fsr0h	equ	0xFEA
  9426                           fsr0l	equ	0xFE9
  9427                           wreg	equ	0xFE8
  9428                           postdec1	equ	0xFE5
  9429                           fsr1h	equ	0xFE2
  9430                           fsr1l	equ	0xFE1
  9431                           indf2	equ	0xFDF
  9432                           postinc2	equ	0xFDE
  9433                           postdec2	equ	0xFDD
  9434                           fsr2h	equ	0xFDA
  9435                           fsr2l	equ	0xFD9
  9436                           status	equ	0xFD8
  9437                           
  9438 ;; *************** function _MEMORY_ISR *****************
  9439 ;; Defined at:
  9440 ;;		line 198 in file "memory.c"
  9441 ;; Parameters:    Size  Location     Type
  9442 ;;		None
  9443 ;; Auto vars:     Size  Location     Type
  9444 ;;		None
  9445 ;; Return value:  Size  Location     Type
  9446 ;;                  1    wreg      void 
  9447 ;; Registers used:
  9448 ;;		None
  9449 ;; Tracked objects:
  9450 ;;		On entry : 0/0
  9451 ;;		On exit  : 0/0
  9452 ;;		Unchanged: 0/0
  9453 ;; Data sizes:     COMRAM   BANK0   BANK1   BANK2   BANK3   BANK4   BANK5   BANK6   BANK7
  9454 ;;      Params:         0       0       0       0       0       0       0       0       0
  9455 ;;      Locals:         0       0       0       0       0       0       0       0       0
  9456 ;;      Temps:          0       0       0       0       0       0       0       0       0
  9457 ;;      Totals:         0       0       0       0       0       0       0       0       0
  9458 ;;Total ram usage:        0 bytes
  9459 ;; Hardware stack levels used:    1
  9460 ;; This function calls:
  9461 ;;		Nothing
  9462 ;; This function is called by:
  9463 ;;		_INTERRUPT_InterruptManager
  9464 ;; This function uses a non-reentrant model
  9465 ;;
  9466                           
  9467                           	psect	text41
  9468  00286A                     __ptext41:
  9469                           	opt stack 0
  9470  00286A                     _MEMORY_ISR:
  9471                           	opt stack 22
  9472                           
  9473                           ;incstack = 0
  9474  00286A  0012               	return		;funcret
  9475  00286C                     __end_of_MEMORY_ISR:
  9476                           	opt stack 0
  9477                           tosu	equ	0xFFF
  9478                           tosh	equ	0xFFE
  9479                           tosl	equ	0xFFD
  9480                           pclatu	equ	0xFFB
  9481                           pclath	equ	0xFFA
  9482                           tblptru	equ	0xFF8
  9483                           tblptrh	equ	0xFF7
  9484                           tblptrl	equ	0xFF6
  9485                           tablat	equ	0xFF5
  9486                           prodh	equ	0xFF4
  9487                           prodl	equ	0xFF3
  9488                           intcon	equ	0xFF2
  9489                           intcon2	equ	0xFF1
  9490                           intcon3	equ	0xFF0
  9491                           indf0	equ	0xFEF
  9492                           postinc0	equ	0xFEE
  9493                           fsr0h	equ	0xFEA
  9494                           fsr0l	equ	0xFE9
  9495                           wreg	equ	0xFE8
  9496                           postdec1	equ	0xFE5
  9497                           fsr1h	equ	0xFE2
  9498                           fsr1l	equ	0xFE1
  9499                           indf2	equ	0xFDF
  9500                           postinc2	equ	0xFDE
  9501                           postdec2	equ	0xFDD
  9502                           fsr2h	equ	0xFDA
  9503                           fsr2l	equ	0xFD9
  9504                           status	equ	0xFD8
  9505                           
  9506 ;; *************** function _I2C1_ISR *****************
  9507 ;; Defined at:
  9508 ;;		line 236 in file "i2c1.c"
  9509 ;; Parameters:    Size  Location     Type
  9510 ;;		None
  9511 ;; Auto vars:     Size  Location     Type
  9512 ;;		None
  9513 ;; Return value:  Size  Location     Type
  9514 ;;                  1    wreg      void 
  9515 ;; Registers used:
  9516 ;;		wreg, fsr2l, fsr2h, status,2, status,0, cstack
  9517 ;; Tracked objects:
  9518 ;;		On entry : 0/0
  9519 ;;		On exit  : 0/0
  9520 ;;		Unchanged: 0/0
  9521 ;; Data sizes:     COMRAM   BANK0   BANK1   BANK2   BANK3   BANK4   BANK5   BANK6   BANK7
  9522 ;;      Params:         0       0       0       0       0       0       0       0       0
  9523 ;;      Locals:         0       0       0       0       0       0       0       0       0
  9524 ;;      Temps:          2       0       0       0       0       0       0       0       0
  9525 ;;      Totals:         2       0       0       0       0       0       0       0       0
  9526 ;;Total ram usage:        2 bytes
  9527 ;; Hardware stack levels used:    1
  9528 ;; Hardware stack levels required when called:    1
  9529 ;; This function calls:
  9530 ;;		_I2C1_FunctionComplete
  9531 ;;		_I2C1_Stop
  9532 ;; This function is called by:
  9533 ;;		_INTERRUPT_InterruptManager
  9534 ;; This function uses a non-reentrant model
  9535 ;;
  9536                           
  9537                           	psect	text42
  9538  001C86                     __ptext42:
  9539                           	opt stack 0
  9540  001C86                     _I2C1_ISR:
  9541                           	opt stack 21
  9542                           
  9543                           ;i2c1.c: 239: static uint8_t *pi2c_buf_ptr;
  9544                           ;i2c1.c: 240: static uint16_t i2c_address = 0;
  9545                           ;i2c1.c: 241: static uint8_t i2c_bytes_left = 0;
  9546                           ;i2c1.c: 242: static uint8_t i2c_10bit_address_restart = 0;
  9547                           ;i2c1.c: 244: PIR1bits.SSPIF = 0;
  9548                           
  9549                           ;incstack = 0
  9550  001C86  969E               	bcf	3998,3,c	;volatile
  9551                           
  9552                           ;i2c1.c: 248: if(SSPCON1bits.WCOL)
  9553  001C88  AEC6               	btfss	4038,7,c	;volatile
  9554  001C8A  D103               	goto	i2l362
  9555                           
  9556                           ;i2c1.c: 249: {
  9557                           ;i2c1.c: 251: SSPCON1bits.WCOL = 0;
  9558  001C8C  9EC6               	bcf	4038,7,c	;volatile
  9559                           
  9560                           ;i2c1.c: 253: *(p_i2c1_current->pTrFlag) = I2C1_MESSAGE_FAIL;
  9561  001C8E  0E00               	movlw	0
  9562  001C90  6E40               	movwf	_i2c1_state,c
  9563                           
  9564                           ;i2c1.c: 256: p_i2c1_current = (0);
  9565  001C92  0E00               	movlw	0
  9566  001C94  0100               	movlb	0	; () banked
  9567  001C96  6FB5               	movwf	_p_i2c1_current& (0+255),b
  9568  001C98  0E00               	movlw	0
  9569  001C9A  0100               	movlb	0	; () banked
  9570  001C9C  6FB6               	movwf	(_p_i2c1_current+1)& (0+255),b
  9571                           
  9572                           ; BSR set to: 0
  9573                           ;i2c1.c: 258: return;
  9574  001C9E  0012               	return	
  9575  001CA0                     i2l363:
  9576                           
  9577                           ;i2c1.c: 266: if(i2c1_object.trStatus.s.empty != 1)
  9578  001CA0  0100               	movlb	0	; () banked
  9579  001CA2  B3A8               	btfsc	(_i2c1_object+4)& (0+255),1,b
  9580  001CA4  0012               	return	
  9581                           
  9582                           ; BSR set to: 0
  9583                           ;i2c1.c: 267: {
  9584                           ;i2c1.c: 269: p_i2c1_current = i2c1_object.pTrHead;
  9585  001CA6  C0A6  F0B5         	movff	_i2c1_object+2,_p_i2c1_current
  9586  001CAA  C0A7  F0B6         	movff	_i2c1_object+3,_p_i2c1_current+1
  9587                           
  9588                           ; BSR set to: 0
  9589                           ;i2c1.c: 270: i2c1_trb_count = i2c1_object.pTrHead->count;
  9590  001CAE  C0A6  FFD9         	movff	_i2c1_object+2,fsr2l
  9591  001CB2  C0A7  FFDA         	movff	_i2c1_object+3,fsr2h
  9592  001CB6  50DF               	movf	indf2,w,c
  9593  001CB8  6E3F               	movwf	_i2c1_trb_count,c
  9594                           
  9595                           ; BSR set to: 0
  9596                           ;i2c1.c: 271: p_i2c1_trb_current = i2c1_object.pTrHead->ptrb_list;
  9597  001CBA  0100               	movlb	0	; () banked
  9598  001CBC  EE20 F001          	lfsr	2,1
  9599  001CC0  51A6               	movf	(_i2c1_object+2)& (0+255),w,b
  9600  001CC2  26D9               	addwf	fsr2l,f,c
  9601  001CC4  51A7               	movf	(_i2c1_object+3)& (0+255),w,b
  9602  001CC6  22DA               	addwfc	fsr2h,f,c
  9603  001CC8  CFDE F0B7          	movff	postinc2,_p_i2c1_trb_current
  9604  001CCC  CFDD F0B8          	movff	postdec2,_p_i2c1_trb_current+1
  9605                           
  9606                           ; BSR set to: 0
  9607                           ;i2c1.c: 273: i2c1_object.pTrHead++;
  9608  001CD0  0E06               	movlw	6
  9609  001CD2  0100               	movlb	0	; () banked
  9610  001CD4  27A6               	addwf	(_i2c1_object+2)& (0+255),f,b
  9611  001CD6  0E00               	movlw	0
  9612  001CD8  23A7               	addwfc	(_i2c1_object+3)& (0+255),f,b
  9613                           
  9614                           ; BSR set to: 0
  9615                           ;i2c1.c: 276: if(i2c1_object.pTrHead == (i2c1_tr_queue + 1))
  9616  001CDA  0ED4               	movlw	low (_i2c1_tr_queue+6)
  9617  001CDC  0100               	movlb	0	; () banked
  9618  001CDE  19A6               	xorwf	(_i2c1_object+2)& (0+255),w,b
  9619  001CE0  E10B               	bnz	i2l4556
  9620  001CE2  0E00               	movlw	high (_i2c1_tr_queue+6)
  9621  001CE4  0100               	movlb	0	; () banked
  9622  001CE6  19A7               	xorwf	(_i2c1_object+3)& (0+255),w,b
  9623  001CE8  A4D8               	btfss	status,2,c
  9624  001CEA  D006               	goto	i2l365
  9625                           
  9626                           ; BSR set to: 0
  9627                           ;i2c1.c: 277: {
  9628                           ;i2c1.c: 279: i2c1_object.pTrHead = i2c1_tr_queue;
  9629  001CEC  0ECE               	movlw	low _i2c1_tr_queue
  9630  001CEE  0100               	movlb	0	; () banked
  9631  001CF0  6FA6               	movwf	(_i2c1_object+2)& (0+255),b
  9632  001CF2  0E00               	movlw	high _i2c1_tr_queue
  9633  001CF4  0100               	movlb	0	; () banked
  9634  001CF6  6FA7               	movwf	(_i2c1_object+3)& (0+255),b
  9635  001CF8                     i2l365:
  9636  001CF8                     i2l4556:
  9637                           
  9638                           ; BSR set to: 0
  9639                           ;i2c1.c: 280: }
  9640                           ;i2c1.c: 284: i2c1_object.trStatus.s.full = 0;
  9641  001CF8  0100               	movlb	0	; () banked
  9642  001CFA  91A8               	bcf	(_i2c1_object+4)& (0+255),0,b
  9643                           
  9644                           ;i2c1.c: 287: if(i2c1_object.pTrHead == i2c1_object.pTrTail)
  9645  001CFC  0100               	movlb	0	; () banked
  9646  001CFE  51A4               	movf	_i2c1_object& (0+255),w,b
  9647  001D00  0100               	movlb	0	; () banked
  9648  001D02  19A6               	xorwf	(_i2c1_object+2)& (0+255),w,b
  9649  001D04  E108               	bnz	i2l366
  9650  001D06  0100               	movlb	0	; () banked
  9651  001D08  51A5               	movf	(_i2c1_object+1)& (0+255),w,b
  9652  001D0A  0100               	movlb	0	; () banked
  9653  001D0C  19A7               	xorwf	(_i2c1_object+3)& (0+255),w,b
  9654  001D0E  A4D8               	btfss	status,2,c
  9655  001D10  D002               	goto	i2l366
  9656                           
  9657                           ; BSR set to: 0
  9658                           ;i2c1.c: 288: {
  9659                           ;i2c1.c: 290: i2c1_object.trStatus.s.empty = 1;
  9660  001D12  0100               	movlb	0	; () banked
  9661  001D14  83A8               	bsf	(_i2c1_object+4)& (0+255),1,b
  9662  001D16                     i2l366:
  9663                           
  9664                           ; BSR set to: 0
  9665                           ;i2c1.c: 291: }
  9666                           ;i2c1.c: 294: SSPCON2bits.SEN = 1;
  9667  001D16  80C5               	bsf	4037,0,c	;volatile
  9668                           
  9669                           ; BSR set to: 0
  9670                           ;i2c1.c: 297: i2c1_state = S_MASTER_SEND_ADDR;
  9671  001D18  0E02               	movlw	2
  9672  001D1A  6E40               	movwf	_i2c1_state,c
  9673                           
  9674                           ; BSR set to: 0
  9675                           ;i2c1.c: 298: }
  9676                           ;i2c1.c: 300: break;
  9677  001D1C  0012               	return	
  9678  001D1E                     i2l368:
  9679                           
  9680                           ;i2c1.c: 307: SSPCON2bits.RSEN = 1;
  9681  001D1E  82C5               	bsf	4037,1,c	;volatile
  9682                           
  9683                           ;i2c1.c: 310: i2c1_state = S_MASTER_SEND_ADDR;
  9684  001D20  0E02               	movlw	2
  9685  001D22  6E40               	movwf	_i2c1_state,c
  9686                           
  9687                           ;i2c1.c: 312: break;
  9688  001D24  0012               	return	
  9689  001D26                     i2l369:
  9690                           
  9691                           ;i2c1.c: 316: if(SSPCON2bits.ACKSTAT)
  9692  001D26  ACC5               	btfss	4037,6,c	;volatile
  9693  001D28  D006               	goto	i2l370
  9694                           
  9695                           ;i2c1.c: 317: {
  9696                           ;i2c1.c: 318: i2c1_object.i2cErrors++;
  9697  001D2A  0100               	movlb	0	; () banked
  9698  001D2C  2BAA               	incf	(_i2c1_object+6)& (0+255),f,b
  9699                           
  9700                           ; BSR set to: 0
  9701                           ;i2c1.c: 319: I2C1_Stop(I2C1_MESSAGE_ADDRESS_NO_ACK);
  9702  001D2E  0E04               	movlw	4
  9703  001D30  EC28  F014         	call	_I2C1_Stop
  9704                           
  9705                           ;i2c1.c: 320: }
  9706  001D34  0012               	return	
  9707  001D36                     i2l370:
  9708                           
  9709                           ;i2c1.c: 321: else
  9710                           ;i2c1.c: 322: {
  9711                           ;i2c1.c: 324: SSPBUF = (i2c_address >> 1) & 0x00FF;
  9712  001D36  90D8               	bcf	status,0,c
  9713  001D38  3048               	rrcf	I2C1_ISR@i2c_address+1,w,c
  9714  001D3A  6E02               	movwf	(??_I2C1_ISR+1)& (0+255),c
  9715  001D3C  3047               	rrcf	I2C1_ISR@i2c_address,w,c
  9716  001D3E  6E01               	movwf	??_I2C1_ISR& (0+255),c
  9717  001D40  5001               	movf	??_I2C1_ISR,w,c
  9718  001D42  6EC9               	movwf	4041,c	;volatile
  9719                           
  9720                           ;i2c1.c: 327: if(i2c_address & 0x01)
  9721  001D44  A047               	btfss	I2C1_ISR@i2c_address,0,c
  9722  001D46  D003               	goto	i2l372
  9723                           
  9724                           ;i2c1.c: 328: {
  9725                           ;i2c1.c: 331: i2c1_state = S_MASTER_10BIT_RESTART;
  9726  001D48  0E0B               	movlw	11
  9727  001D4A  6E40               	movwf	_i2c1_state,c
  9728                           
  9729                           ;i2c1.c: 332: }
  9730  001D4C  0012               	return	
  9731  001D4E                     i2l372:
  9732                           
  9733                           ;i2c1.c: 333: else
  9734                           ;i2c1.c: 334: {
  9735                           ;i2c1.c: 336: i2c1_state = S_MASTER_SEND_DATA;
  9736  001D4E  0E03               	movlw	3
  9737  001D50  6E40               	movwf	_i2c1_state,c
  9738                           
  9739                           ;i2c1.c: 337: }
  9740                           ;i2c1.c: 338: }
  9741                           ;i2c1.c: 340: break;
  9742  001D52  0012               	return	
  9743  001D54                     i2l374:
  9744                           
  9745                           ;i2c1.c: 344: if(SSPCON2bits.ACKSTAT)
  9746  001D54  ACC5               	btfss	4037,6,c	;volatile
  9747  001D56  D006               	goto	i2l375
  9748                           
  9749                           ;i2c1.c: 345: {
  9750                           ;i2c1.c: 346: i2c1_object.i2cErrors++;
  9751  001D58  0100               	movlb	0	; () banked
  9752  001D5A  2BAA               	incf	(_i2c1_object+6)& (0+255),f,b
  9753                           
  9754                           ; BSR set to: 0
  9755                           ;i2c1.c: 347: I2C1_Stop(I2C1_MESSAGE_ADDRESS_NO_ACK);
  9756  001D5C  0E04               	movlw	4
  9757  001D5E  EC28  F014         	call	_I2C1_Stop
  9758                           
  9759                           ;i2c1.c: 348: }
  9760  001D62  0012               	return	
  9761  001D64                     i2l375:
  9762                           
  9763                           ;i2c1.c: 349: else
  9764                           ;i2c1.c: 350: {
  9765                           ;i2c1.c: 353: SSPCON2bits.RSEN = 1;
  9766  001D64  82C5               	bsf	4037,1,c	;volatile
  9767                           
  9768                           ;i2c1.c: 357: i2c_address = 0x00F0 | ((i2c_address >> 8) & 0x0006);
  9769  001D66  C047  F001         	movff	I2C1_ISR@i2c_address,??_I2C1_ISR
  9770  001D6A  C048  F002         	movff	I2C1_ISR@i2c_address+1,??_I2C1_ISR+1
  9771  001D6E  C002  F001         	movff	??_I2C1_ISR+1,??_I2C1_ISR
  9772  001D72  6A02               	clrf	??_I2C1_ISR+1,c
  9773  001D74  0E06               	movlw	6
  9774  001D76  1601               	andwf	??_I2C1_ISR,f,c
  9775  001D78  0E00               	movlw	0
  9776  001D7A  1602               	andwf	??_I2C1_ISR+1,f,c
  9777  001D7C  0EF0               	movlw	240
  9778  001D7E  1001               	iorwf	??_I2C1_ISR,w,c
  9779  001D80  6E47               	movwf	I2C1_ISR@i2c_address,c
  9780  001D82  5002               	movf	??_I2C1_ISR+1,w,c
  9781  001D84  6E48               	movwf	I2C1_ISR@i2c_address+1,c
  9782                           
  9783                           ;i2c1.c: 360: i2c_address |= 0x0001;
  9784  001D86  8047               	bsf	I2C1_ISR@i2c_address,0,c
  9785                           
  9786                           ;i2c1.c: 363: i2c_10bit_address_restart = 1;
  9787  001D88  0E01               	movlw	1
  9788  001D8A  6E3D               	movwf	I2C1_ISR@i2c_10bit_address_restart,c
  9789                           
  9790                           ;i2c1.c: 366: i2c1_state = S_MASTER_SEND_ADDR;
  9791  001D8C  0E02               	movlw	2
  9792  001D8E  6E40               	movwf	_i2c1_state,c
  9793                           
  9794                           ;i2c1.c: 367: }
  9795                           ;i2c1.c: 369: break;
  9796  001D90  0012               	return	
  9797  001D92                     
  9798                           ;i2c1.c: 384: if(i2c_10bit_address_restart != 1)
  9799  001D92  043D               	decf	I2C1_ISR@i2c_10bit_address_restart,w,c
  9800  001D94  B4D8               	btfsc	status,2,c
  9801  001D96  D01C               	goto	i2l379
  9802                           
  9803                           ;i2c1.c: 385: {
  9804                           ;i2c1.c: 387: i2c_address = p_i2c1_trb_current->address;
  9805  001D98  C0B7  FFD9         	movff	_p_i2c1_trb_current,fsr2l
  9806  001D9C  C0B8  FFDA         	movff	_p_i2c1_trb_current+1,fsr2h
  9807  001DA0  CFDE F047          	movff	postinc2,I2C1_ISR@i2c_address
  9808  001DA4  CFDD F048          	movff	postdec2,I2C1_ISR@i2c_address+1
  9809                           
  9810                           ;i2c1.c: 388: pi2c_buf_ptr = p_i2c1_trb_current->pbuffer;
  9811  001DA8  0100               	movlb	0	; () banked
  9812  001DAA  EE20 F003          	lfsr	2,3
  9813  001DAE  51B7               	movf	_p_i2c1_trb_current& (0+255),w,b
  9814  001DB0  26D9               	addwf	fsr2l,f,c
  9815  001DB2  51B8               	movf	(_p_i2c1_trb_current+1)& (0+255),w,b
  9816  001DB4  22DA               	addwfc	fsr2h,f,c
  9817  001DB6  CFDE F0B3          	movff	postinc2,I2C1_ISR@pi2c_buf_ptr
  9818  001DBA  CFDD F0B4          	movff	postdec2,I2C1_ISR@pi2c_buf_ptr+1
  9819                           
  9820                           ; BSR set to: 0
  9821                           ;i2c1.c: 389: i2c_bytes_left = p_i2c1_trb_current->length;
  9822  001DBE  0100               	movlb	0	; () banked
  9823  001DC0  EE20 F002          	lfsr	2,2
  9824  001DC4  51B7               	movf	_p_i2c1_trb_current& (0+255),w,b
  9825  001DC6  26D9               	addwf	fsr2l,f,c
  9826  001DC8  51B8               	movf	(_p_i2c1_trb_current+1)& (0+255),w,b
  9827  001DCA  22DA               	addwfc	fsr2h,f,c
  9828  001DCC  50DF               	movf	indf2,w,c
  9829  001DCE  6E3E               	movwf	I2C1_ISR@i2c_bytes_left,c
  9830  001DD0                     i2l379:
  9831                           
  9832                           ;i2c1.c: 412: else
  9833                           ;i2c1.c: 413: {
  9834                           ;i2c1.c: 415: SSPBUF = i2c_address;
  9835  001DD0  C047  FFC9         	movff	I2C1_ISR@i2c_address,4041	;volatile
  9836                           
  9837                           ;i2c1.c: 416: if(i2c_address & 0x01)
  9838  001DD4  A047               	btfss	I2C1_ISR@i2c_address,0,c
  9839  001DD6  D003               	goto	i2l383
  9840                           
  9841                           ;i2c1.c: 417: {
  9842                           ;i2c1.c: 419: i2c1_state = S_MASTER_ACK_ADDR;
  9843  001DD8  0E05               	movlw	5
  9844  001DDA  6E40               	movwf	_i2c1_state,c
  9845                           
  9846                           ;i2c1.c: 420: }
  9847  001DDC  0012               	return	
  9848  001DDE                     i2l383:
  9849                           
  9850                           ;i2c1.c: 421: else
  9851                           ;i2c1.c: 422: {
  9852                           ;i2c1.c: 424: i2c1_state = S_MASTER_SEND_DATA;
  9853  001DDE  0E03               	movlw	3
  9854  001DE0  6E40               	movwf	_i2c1_state,c
  9855                           
  9856                           ;i2c1.c: 425: }
  9857                           ;i2c1.c: 426: }
  9858                           ;i2c1.c: 427: break;
  9859  001DE2  0012               	return	
  9860  001DE4                     i2l385:
  9861                           
  9862                           ;i2c1.c: 432: if(SSPCON2bits.ACKSTAT)
  9863  001DE4  ACC5               	btfss	4037,6,c	;volatile
  9864  001DE6  D007               	goto	i2l386
  9865                           
  9866                           ;i2c1.c: 433: {
  9867                           ;i2c1.c: 435: i2c1_object.i2cErrors++;
  9868  001DE8  0100               	movlb	0	; () banked
  9869  001DEA  2BAA               	incf	(_i2c1_object+6)& (0+255),f,b
  9870                           
  9871                           ; BSR set to: 0
  9872                           ;i2c1.c: 438: SSPCON2bits.ACKSTAT = 0;
  9873  001DEC  9CC5               	bcf	4037,6,c	;volatile
  9874                           
  9875                           ; BSR set to: 0
  9876                           ;i2c1.c: 441: I2C1_Stop(I2C1_DATA_NO_ACK);
  9877  001DEE  0E05               	movlw	5
  9878  001DF0  EC28  F014         	call	_I2C1_Stop
  9879                           
  9880                           ;i2c1.c: 443: }
  9881  001DF4  0012               	return	
  9882  001DF6                     i2l386:
  9883                           
  9884                           ;i2c1.c: 444: else
  9885                           ;i2c1.c: 445: {
  9886                           ;i2c1.c: 447: if(i2c_bytes_left-- == 0U)
  9887  001DF6  063E               	decf	I2C1_ISR@i2c_bytes_left,f,c
  9888  001DF8  283E               	incf	I2C1_ISR@i2c_bytes_left,w,c
  9889  001DFA  A4D8               	btfss	status,2,c
  9890  001DFC  D00F               	goto	i2l388
  9891                           
  9892                           ;i2c1.c: 448: {
  9893                           ;i2c1.c: 452: p_i2c1_trb_current++;
  9894  001DFE  0E06               	movlw	6
  9895  001E00  0100               	movlb	0	; () banked
  9896  001E02  27B7               	addwf	_p_i2c1_trb_current& (0+255),f,b
  9897  001E04  0E00               	movlw	0
  9898  001E06  23B8               	addwfc	(_p_i2c1_trb_current+1)& (0+255),f,b
  9899                           
  9900                           ; BSR set to: 0
  9901                           ;i2c1.c: 455: if(--i2c1_trb_count == 0)
  9902  001E08  2E3F               	decfsz	_i2c1_trb_count,f,c
  9903  001E0A  D004               	goto	i2l389
  9904                           
  9905                           ; BSR set to: 0
  9906                           ;i2c1.c: 456: {
  9907                           ;i2c1.c: 457: I2C1_Stop(I2C1_MESSAGE_COMPLETE);
  9908  001E0C  0E00               	movlw	0
  9909  001E0E  EC28  F014         	call	_I2C1_Stop
  9910                           
  9911                           ;i2c1.c: 458: }
  9912  001E12  0012               	return	
  9913  001E14                     i2l389:
  9914                           
  9915                           ; BSR set to: 0
  9916                           ;i2c1.c: 459: else
  9917                           ;i2c1.c: 460: {
  9918                           ;i2c1.c: 467: SSPCON2bits.RSEN = 1;
  9919  001E14  82C5               	bsf	4037,1,c	;volatile
  9920                           
  9921                           ; BSR set to: 0
  9922                           ;i2c1.c: 470: i2c1_state = S_MASTER_SEND_ADDR;
  9923  001E16  0E02               	movlw	2
  9924  001E18  6E40               	movwf	_i2c1_state,c
  9925                           
  9926                           ; BSR set to: 0
  9927                           ;i2c1.c: 472: }
  9928                           ;i2c1.c: 473: }
  9929  001E1A  0012               	return	
  9930  001E1C                     i2l388:
  9931                           
  9932                           ;i2c1.c: 474: else
  9933                           ;i2c1.c: 475: {
  9934                           ;i2c1.c: 477: SSPBUF = *pi2c_buf_ptr++;
  9935                           
  9936                           ; BSR set to: 0
  9937  001E1C  C0B3  FFD9         	movff	I2C1_ISR@pi2c_buf_ptr,fsr2l
  9938  001E20  C0B4  FFDA         	movff	I2C1_ISR@pi2c_buf_ptr+1,fsr2h
  9939  001E24  50DF               	movf	indf2,w,c
  9940  001E26  6EC9               	movwf	4041,c	;volatile
  9941  001E28  0100               	movlb	0	; () banked
  9942  001E2A  4BB3               	infsnz	I2C1_ISR@pi2c_buf_ptr& (0+255),f,b
  9943  001E2C  2BB4               	incf	(I2C1_ISR@pi2c_buf_ptr+1)& (0+255),f,b
  9944                           
  9945                           ; BSR set to: 0
  9946                           ;i2c1.c: 478: }
  9947                           ;i2c1.c: 479: }
  9948                           ;i2c1.c: 480: break;
  9949                           
  9950                           ; BSR set to: 0
  9951  001E2E  0012               	return	
  9952  001E30                     i2l392:
  9953                           
  9954                           ;i2c1.c: 485: if(SSPCON2bits.ACKSTAT)
  9955  001E30  ACC5               	btfss	4037,6,c	;volatile
  9956  001E32  D007               	goto	i2l393
  9957                           
  9958                           ;i2c1.c: 486: {
  9959                           ;i2c1.c: 489: i2c1_object.i2cErrors++;
  9960  001E34  0100               	movlb	0	; () banked
  9961  001E36  2BAA               	incf	(_i2c1_object+6)& (0+255),f,b
  9962                           
  9963                           ; BSR set to: 0
  9964                           ;i2c1.c: 492: I2C1_Stop(I2C1_MESSAGE_ADDRESS_NO_ACK);
  9965  001E38  0E04               	movlw	4
  9966  001E3A  EC28  F014         	call	_I2C1_Stop
  9967                           
  9968                           ;i2c1.c: 495: SSPCON2bits.ACKSTAT = 0;
  9969  001E3E  9CC5               	bcf	4037,6,c	;volatile
  9970                           
  9971                           ;i2c1.c: 496: }
  9972  001E40  0012               	return	
  9973  001E42                     i2l393:
  9974                           
  9975                           ;i2c1.c: 497: else
  9976                           ;i2c1.c: 498: {
  9977                           ;i2c1.c: 499: SSPCON2bits.RCEN = 1;
  9978  001E42  86C5               	bsf	4037,3,c	;volatile
  9979                           
  9980                           ;i2c1.c: 500: i2c1_state = S_MASTER_ACK_RCV_DATA;
  9981  001E44  0E08               	movlw	8
  9982  001E46  6E40               	movwf	_i2c1_state,c
  9983                           
  9984                           ;i2c1.c: 501: }
  9985                           ;i2c1.c: 502: break;
  9986  001E48  0012               	return	
  9987  001E4A                     
  9988                           ;i2c1.c: 509: i2c1_state = S_MASTER_ACK_RCV_DATA;
  9989  001E4A  0E08               	movlw	8
  9990  001E4C  6E40               	movwf	_i2c1_state,c
  9991                           
  9992                           ;i2c1.c: 512: SSPCON2bits.RCEN = 1;
  9993  001E4E  86C5               	bsf	4037,3,c	;volatile
  9994                           
  9995                           ;i2c1.c: 514: break;
  9996  001E50  0012               	return	
  9997  001E52                     
  9998                           ;i2c1.c: 519: *pi2c_buf_ptr++ = SSPBUF;
  9999  001E52  C0B3  FFD9         	movff	I2C1_ISR@pi2c_buf_ptr,fsr2l
 10000  001E56  C0B4  FFDA         	movff	I2C1_ISR@pi2c_buf_ptr+1,fsr2h
 10001  001E5A  CFC9 FFDF          	movff	4041,indf2	;volatile
 10002  001E5E  0100               	movlb	0	; () banked
 10003  001E60  4BB3               	infsnz	I2C1_ISR@pi2c_buf_ptr& (0+255),f,b
 10004  001E62  2BB4               	incf	(I2C1_ISR@pi2c_buf_ptr+1)& (0+255),f,b
 10005                           
 10006                           ; BSR set to: 0
 10007                           ;i2c1.c: 522: if(--i2c_bytes_left)
 10008  001E64  0E01               	movlw	1
 10009  001E66  5E3E               	subwf	I2C1_ISR@i2c_bytes_left,f,c
 10010  001E68  B4D8               	btfsc	status,2,c
 10011  001E6A  D004               	goto	i2l397
 10012                           
 10013                           ; BSR set to: 0
 10014                           ;i2c1.c: 523: {
 10015                           ;i2c1.c: 529: SSPCON2bits.ACKDT = 0;
 10016  001E6C  9AC5               	bcf	4037,5,c	;volatile
 10017                           
 10018                           ; BSR set to: 0
 10019                           ;i2c1.c: 532: i2c1_state = S_MASTER_RCV_DATA;
 10020  001E6E  0E06               	movlw	6
 10021  001E70  6E40               	movwf	_i2c1_state,c
 10022                           
 10023                           ;i2c1.c: 533: }
 10024  001E72  D003               	goto	i2l398
 10025  001E74                     i2l397:
 10026                           
 10027                           ; BSR set to: 0
 10028                           ;i2c1.c: 534: else
 10029                           ;i2c1.c: 535: {
 10030                           ;i2c1.c: 539: SSPCON2bits.ACKDT = 1;
 10031  001E74  8AC5               	bsf	4037,5,c	;volatile
 10032                           
 10033                           ; BSR set to: 0
 10034                           ;i2c1.c: 541: I2C1_FunctionComplete();
 10035  001E76  ECC1  F013         	call	_I2C1_FunctionComplete	;wreg free
 10036  001E7A                     i2l398:
 10037                           
 10038                           ;i2c1.c: 542: }
 10039                           ;i2c1.c: 545: SSPCON2bits.ACKEN = 1;
 10040  001E7A  88C5               	bsf	4037,4,c	;volatile
 10041                           
 10042                           ;i2c1.c: 546: break;
 10043  001E7C  0012               	return	
 10044  001E7E                     
 10045                           ;i2c1.c: 549: case S_MASTER_SEND_STOP:
 10046                           ;i2c1.c: 552: I2C1_Stop(I2C1_MESSAGE_COMPLETE);
 10047  001E7E  0E00               	movlw	0
 10048  001E80  EC28  F014         	call	_I2C1_Stop
 10049                           
 10050                           ;i2c1.c: 553: break;
 10051  001E84  0012               	return	
 10052  001E86                     
 10053                           ;i2c1.c: 559: i2c1_object.i2cErrors++;
 10054  001E86  0100               	movlb	0	; () banked
 10055  001E88  2BAA               	incf	(_i2c1_object+6)& (0+255),f,b
 10056                           
 10057                           ; BSR set to: 0
 10058                           ;i2c1.c: 560: I2C1_Stop(I2C1_LOST_STATE);
 10059  001E8A  0E06               	movlw	6
 10060  001E8C  EC28  F014         	call	_I2C1_Stop
 10061                           
 10062                           ;i2c1.c: 563: }
 10063                           
 10064                           ;i2c1.c: 561: break;
 10065  001E90  0012               	return	
 10066  001E92                     i2l362:
 10067  001E92  5040               	movf	_i2c1_state,w,c
 10068                           
 10069                           ; Switch size 1, requested type "space"
 10070                           ; Number of cases is 11, Range of values is 0 to 11
 10071                           ; switch strategies available:
 10072                           ; Name         Instructions Cycles
 10073                           ; simple_byte           34    18 (average)
 10074                           ;	Chosen strategy is simple_byte
 10075  001E94  0A00               	xorlw	0	; case 0
 10076  001E96  B4D8               	btfsc	status,2,c
 10077  001E98  D703               	goto	i2l363
 10078  001E9A  0A01               	xorlw	1	; case 1
 10079  001E9C  B4D8               	btfsc	status,2,c
 10080  001E9E  D73F               	goto	i2l368
 10081  001EA0  0A03               	xorlw	3	; case 2
 10082  001EA2  B4D8               	btfsc	status,2,c
 10083  001EA4  D776               	goto	i2l377
 10084  001EA6  0A01               	xorlw	1	; case 3
 10085  001EA8  B4D8               	btfsc	status,2,c
 10086  001EAA  D79C               	goto	i2l385
 10087  001EAC  0A07               	xorlw	7	; case 4
 10088  001EAE  B4D8               	btfsc	status,2,c
 10089  001EB0  D7E6               	goto	i2l399
 10090  001EB2  0A01               	xorlw	1	; case 5
 10091  001EB4  B4D8               	btfsc	status,2,c
 10092  001EB6  D7BC               	goto	i2l392
 10093  001EB8  0A03               	xorlw	3	; case 6
 10094  001EBA  B4D8               	btfsc	status,2,c
 10095  001EBC  D7C6               	goto	i2l395
 10096  001EBE  0A01               	xorlw	1	; case 7
 10097  001EC0  B4D8               	btfsc	status,2,c
 10098  001EC2  D7DD               	goto	i2l399
 10099  001EC4  0A0F               	xorlw	15	; case 8
 10100  001EC6  B4D8               	btfsc	status,2,c
 10101  001EC8  D7C4               	goto	i2l396
 10102  001ECA  0A02               	xorlw	2	; case 10
 10103  001ECC  B4D8               	btfsc	status,2,c
 10104  001ECE  D72B               	goto	i2l369
 10105  001ED0  0A01               	xorlw	1	; case 11
 10106  001ED2  B4D8               	btfsc	status,2,c
 10107  001ED4  D73F               	goto	i2l374
 10108  001ED6  D7D7               	goto	i2l401
 10109  001ED8                     __end_of_I2C1_ISR:
 10110                           	opt stack 0
 10111                           tosu	equ	0xFFF
 10112                           tosh	equ	0xFFE
 10113                           tosl	equ	0xFFD
 10114                           pclatu	equ	0xFFB
 10115                           pclath	equ	0xFFA
 10116                           tblptru	equ	0xFF8
 10117                           tblptrh	equ	0xFF7
 10118                           tblptrl	equ	0xFF6
 10119                           tablat	equ	0xFF5
 10120                           prodh	equ	0xFF4
 10121                           prodl	equ	0xFF3
 10122                           intcon	equ	0xFF2
 10123                           intcon2	equ	0xFF1
 10124                           intcon3	equ	0xFF0
 10125                           indf0	equ	0xFEF
 10126                           postinc0	equ	0xFEE
 10127                           fsr0h	equ	0xFEA
 10128                           fsr0l	equ	0xFE9
 10129                           wreg	equ	0xFE8
 10130                           postdec1	equ	0xFE5
 10131                           fsr1h	equ	0xFE2
 10132                           fsr1l	equ	0xFE1
 10133                           indf2	equ	0xFDF
 10134                           postinc2	equ	0xFDE
 10135                           postdec2	equ	0xFDD
 10136                           fsr2h	equ	0xFDA
 10137                           fsr2l	equ	0xFD9
 10138                           status	equ	0xFD8
 10139                           
 10140 ;; *************** function _I2C1_Stop *****************
 10141 ;; Defined at:
 10142 ;;		line 584 in file "i2c1.c"
 10143 ;; Parameters:    Size  Location     Type
 10144 ;;  completion_c    1    wreg     enum E5248
 10145 ;; Auto vars:     Size  Location     Type
 10146 ;;  completion_c    1    0[COMRAM] enum E5248
 10147 ;; Return value:  Size  Location     Type
 10148 ;;                  1    wreg      void 
 10149 ;; Registers used:
 10150 ;;		wreg, fsr2l, fsr2h, status,2, status,0
 10151 ;; Tracked objects:
 10152 ;;		On entry : 0/0
 10153 ;;		On exit  : 0/0
 10154 ;;		Unchanged: 0/0
 10155 ;; Data sizes:     COMRAM   BANK0   BANK1   BANK2   BANK3   BANK4   BANK5   BANK6   BANK7
 10156 ;;      Params:         0       0       0       0       0       0       0       0       0
 10157 ;;      Locals:         0       0       0       0       0       0       0       0       0
 10158 ;;      Temps:          0       0       0       0       0       0       0       0       0
 10159 ;;      Totals:         0       0       0       0       0       0       0       0       0
 10160 ;;Total ram usage:        0 bytes
 10161 ;; Hardware stack levels used:    1
 10162 ;; This function calls:
 10163 ;;		Nothing
 10164 ;; This function is called by:
 10165 ;;		_I2C1_ISR
 10166 ;; This function uses a non-reentrant model
 10167 ;;
 10168                           
 10169                           	psect	text43
 10170  002850                     __ptext43:
 10171                           	opt stack 0
 10172  002850                     _I2C1_Stop:
 10173                           	opt stack 21
 10174                           
 10175                           ;i2c1.c: 587: SSPCON2bits.PEN = 1;
 10176                           
 10177                           ;incstack = 0
 10178  002850  84C5               	bsf	4037,2,c	;volatile
 10179                           
 10180                           ;i2c1.c: 594: }
 10181                           ;i2c1.c: 597: i2c1_state = S_MASTER_IDLE;
 10182  002852  0E00               	movlw	0
 10183  002854  6E40               	movwf	_i2c1_state,c
 10184  002856  0012               	return		;funcret
 10185  002858                     __end_of_I2C1_Stop:
 10186                           	opt stack 0
 10187                           tosu	equ	0xFFF
 10188                           tosh	equ	0xFFE
 10189                           tosl	equ	0xFFD
 10190                           pclatu	equ	0xFFB
 10191                           pclath	equ	0xFFA
 10192                           tblptru	equ	0xFF8
 10193                           tblptrh	equ	0xFF7
 10194                           tblptrl	equ	0xFF6
 10195                           tablat	equ	0xFF5
 10196                           prodh	equ	0xFF4
 10197                           prodl	equ	0xFF3
 10198                           intcon	equ	0xFF2
 10199                           intcon2	equ	0xFF1
 10200                           intcon3	equ	0xFF0
 10201                           indf0	equ	0xFEF
 10202                           postinc0	equ	0xFEE
 10203                           fsr0h	equ	0xFEA
 10204                           fsr0l	equ	0xFE9
 10205                           wreg	equ	0xFE8
 10206                           postdec1	equ	0xFE5
 10207                           fsr1h	equ	0xFE2
 10208                           fsr1l	equ	0xFE1
 10209                           indf2	equ	0xFDF
 10210                           postinc2	equ	0xFDE
 10211                           postdec2	equ	0xFDD
 10212                           fsr2h	equ	0xFDA
 10213                           fsr2l	equ	0xFD9
 10214                           status	equ	0xFD8
 10215                           
 10216 ;; *************** function _I2C1_FunctionComplete *****************
 10217 ;; Defined at:
 10218 ;;		line 566 in file "i2c1.c"
 10219 ;; Parameters:    Size  Location     Type
 10220 ;;		None
 10221 ;; Auto vars:     Size  Location     Type
 10222 ;;		None
 10223 ;; Return value:  Size  Location     Type
 10224 ;;                  1    wreg      void 
 10225 ;; Registers used:
 10226 ;;		wreg, status,2, status,0
 10227 ;; Tracked objects:
 10228 ;;		On entry : 0/0
 10229 ;;		On exit  : 0/0
 10230 ;;		Unchanged: 0/0
 10231 ;; Data sizes:     COMRAM   BANK0   BANK1   BANK2   BANK3   BANK4   BANK5   BANK6   BANK7
 10232 ;;      Params:         0       0       0       0       0       0       0       0       0
 10233 ;;      Locals:         0       0       0       0       0       0       0       0       0
 10234 ;;      Temps:          0       0       0       0       0       0       0       0       0
 10235 ;;      Totals:         0       0       0       0       0       0       0       0       0
 10236 ;;Total ram usage:        0 bytes
 10237 ;; Hardware stack levels used:    1
 10238 ;; This function calls:
 10239 ;;		Nothing
 10240 ;; This function is called by:
 10241 ;;		_I2C1_ISR
 10242 ;; This function uses a non-reentrant model
 10243 ;;
 10244                           
 10245                           	psect	text44
 10246  002782                     __ptext44:
 10247                           	opt stack 0
 10248  002782                     _I2C1_FunctionComplete:
 10249                           	opt stack 21
 10250                           
 10251                           ;i2c1.c: 570: p_i2c1_trb_current++;
 10252                           
 10253                           ;incstack = 0
 10254  002782  0E06               	movlw	6
 10255  002784  0100               	movlb	0	; () banked
 10256  002786  27B7               	addwf	_p_i2c1_trb_current& (0+255),f,b
 10257  002788  0E00               	movlw	0
 10258  00278A  23B8               	addwfc	(_p_i2c1_trb_current+1)& (0+255),f,b
 10259                           
 10260                           ; BSR set to: 0
 10261                           ;i2c1.c: 573: if(--i2c1_trb_count == 0)
 10262  00278C  2E3F               	decfsz	_i2c1_trb_count,f,c
 10263  00278E  D003               	goto	i2l404
 10264                           
 10265                           ; BSR set to: 0
 10266                           ;i2c1.c: 574: {
 10267                           ;i2c1.c: 575: i2c1_state = S_MASTER_SEND_STOP;
 10268  002790  0E04               	movlw	4
 10269  002792  6E40               	movwf	_i2c1_state,c
 10270                           
 10271                           ;i2c1.c: 576: }
 10272  002794  0012               	return	
 10273  002796                     i2l404:
 10274                           
 10275                           ; BSR set to: 0
 10276                           ;i2c1.c: 577: else
 10277                           ;i2c1.c: 578: {
 10278                           ;i2c1.c: 579: i2c1_state = S_MASTER_RESTART;
 10279                           
 10280                           ; BSR set to: 0
 10281  002796  0E01               	movlw	1
 10282  002798  6E40               	movwf	_i2c1_state,c
 10283  00279A  0012               	return	
 10284  00279C                     __end_of_I2C1_FunctionComplete:
 10285                           	opt stack 0
 10286                           tosu	equ	0xFFF
 10287                           tosh	equ	0xFFE
 10288                           tosl	equ	0xFFD
 10289                           pclatu	equ	0xFFB
 10290                           pclath	equ	0xFFA
 10291                           tblptru	equ	0xFF8
 10292                           tblptrh	equ	0xFF7
 10293                           tblptrl	equ	0xFF6
 10294                           tablat	equ	0xFF5
 10295                           prodh	equ	0xFF4
 10296                           prodl	equ	0xFF3
 10297                           intcon	equ	0xFF2
 10298                           intcon2	equ	0xFF1
 10299                           intcon3	equ	0xFF0
 10300                           indf0	equ	0xFEF
 10301                           postinc0	equ	0xFEE
 10302                           fsr0h	equ	0xFEA
 10303                           fsr0l	equ	0xFE9
 10304                           wreg	equ	0xFE8
 10305                           postdec1	equ	0xFE5
 10306                           fsr1h	equ	0xFE2
 10307                           fsr1l	equ	0xFE1
 10308                           indf2	equ	0xFDF
 10309                           postinc2	equ	0xFDE
 10310                           postdec2	equ	0xFDD
 10311                           fsr2h	equ	0xFDA
 10312                           fsr2l	equ	0xFD9
 10313                           status	equ	0xFD8
 10314                           
 10315 ;; *************** function _I2C1_BusCollisionISR *****************
 10316 ;; Defined at:
 10317 ;;		line 731 in file "i2c1.c"
 10318 ;; Parameters:    Size  Location     Type
 10319 ;;		None
 10320 ;; Auto vars:     Size  Location     Type
 10321 ;;		None
 10322 ;; Return value:  Size  Location     Type
 10323 ;;                  1    wreg      void 
 10324 ;; Registers used:
 10325 ;;		None
 10326 ;; Tracked objects:
 10327 ;;		On entry : 0/0
 10328 ;;		On exit  : 0/0
 10329 ;;		Unchanged: 0/0
 10330 ;; Data sizes:     COMRAM   BANK0   BANK1   BANK2   BANK3   BANK4   BANK5   BANK6   BANK7
 10331 ;;      Params:         0       0       0       0       0       0       0       0       0
 10332 ;;      Locals:         0       0       0       0       0       0       0       0       0
 10333 ;;      Temps:          0       0       0       0       0       0       0       0       0
 10334 ;;      Totals:         0       0       0       0       0       0       0       0       0
 10335 ;;Total ram usage:        0 bytes
 10336 ;; Hardware stack levels used:    1
 10337 ;; This function calls:
 10338 ;;		Nothing
 10339 ;; This function is called by:
 10340 ;;		_INTERRUPT_InterruptManager
 10341 ;; This function uses a non-reentrant model
 10342 ;;
 10343                           
 10344                           	psect	text45
 10345  00286C                     __ptext45:
 10346                           	opt stack 0
 10347  00286C                     _I2C1_BusCollisionISR:
 10348                           	opt stack 22
 10349                           
 10350                           ; BSR set to: 0
 10351                           ;incstack = 0
 10352  00286C  0012               	return		;funcret
 10353  00286E                     __end_of_I2C1_BusCollisionISR:
 10354                           	opt stack 0
 10355                           tosu	equ	0xFFF
 10356                           tosh	equ	0xFFE
 10357                           tosl	equ	0xFFD
 10358                           pclatu	equ	0xFFB
 10359                           pclath	equ	0xFFA
 10360                           tblptru	equ	0xFF8
 10361                           tblptrh	equ	0xFF7
 10362                           tblptrl	equ	0xFF6
 10363                           tablat	equ	0xFF5
 10364                           prodh	equ	0xFF4
 10365                           prodl	equ	0xFF3
 10366                           intcon	equ	0xFF2
 10367                           intcon2	equ	0xFF1
 10368                           intcon3	equ	0xFF0
 10369                           indf0	equ	0xFEF
 10370                           postinc0	equ	0xFEE
 10371                           fsr0h	equ	0xFEA
 10372                           fsr0l	equ	0xFE9
 10373                           wreg	equ	0xFE8
 10374                           postdec1	equ	0xFE5
 10375                           fsr1h	equ	0xFE2
 10376                           fsr1l	equ	0xFE1
 10377                           indf2	equ	0xFDF
 10378                           postinc2	equ	0xFDE
 10379                           postdec2	equ	0xFDD
 10380                           fsr2h	equ	0xFDA
 10381                           fsr2l	equ	0xFD9
 10382                           status	equ	0xFD8
 10383                           
 10384 ;; *************** function _EUSART1_Transmit_ISR *****************
 10385 ;; Defined at:
 10386 ;;		line 149 in file "eusart1.c"
 10387 ;; Parameters:    Size  Location     Type
 10388 ;;		None
 10389 ;; Auto vars:     Size  Location     Type
 10390 ;;		None
 10391 ;; Return value:  Size  Location     Type
 10392 ;;                  1    wreg      void 
 10393 ;; Registers used:
 10394 ;;		wreg, fsr2l, fsr2h, status,2, status,0, prodl, prodh
 10395 ;; Tracked objects:
 10396 ;;		On entry : 0/0
 10397 ;;		On exit  : 0/0
 10398 ;;		Unchanged: 0/0
 10399 ;; Data sizes:     COMRAM   BANK0   BANK1   BANK2   BANK3   BANK4   BANK5   BANK6   BANK7
 10400 ;;      Params:         0       0       0       0       0       0       0       0       0
 10401 ;;      Locals:         0       0       0       0       0       0       0       0       0
 10402 ;;      Temps:          0       0       0       0       0       0       0       0       0
 10403 ;;      Totals:         0       0       0       0       0       0       0       0       0
 10404 ;;Total ram usage:        0 bytes
 10405 ;; Hardware stack levels used:    1
 10406 ;; This function calls:
 10407 ;;		Nothing
 10408 ;; This function is called by:
 10409 ;;		_INTERRUPT_InterruptManager
 10410 ;; This function uses a non-reentrant model
 10411 ;;
 10412                           
 10413                           	psect	text46
 10414  00271E                     __ptext46:
 10415                           	opt stack 0
 10416  00271E                     _EUSART1_Transmit_ISR:
 10417                           	opt stack 22
 10418                           
 10419                           ;eusart1.c: 153: if(sizeof(eusart1TxBuffer) > eusart1TxBufferRemaining)
 10420                           
 10421                           ;incstack = 0
 10422  00271E  0E08               	movlw	8
 10423  002720  6043               	cpfslt	_eusart1TxBufferRemaining,c	;volatile
 10424  002722  D012               	goto	i2l286
 10425                           
 10426                           ;eusart1.c: 154: {
 10427                           ;eusart1.c: 155: TXREG1 = eusart1TxBuffer[eusart1TxTail++];
 10428  002724  5044               	movf	_eusart1TxTail,w,c
 10429  002726  0D01               	mullw	1
 10430  002728  0E9C               	movlw	low _eusart1TxBuffer
 10431  00272A  24F3               	addwf	prodl,w,c
 10432  00272C  6ED9               	movwf	fsr2l,c
 10433  00272E  0E00               	movlw	high _eusart1TxBuffer
 10434  002730  20F4               	addwfc	prodh,w,c
 10435  002732  6EDA               	movwf	fsr2h,c
 10436  002734  50DF               	movf	indf2,w,c
 10437  002736  6EAD               	movwf	4013,c	;volatile
 10438  002738  2A44               	incf	_eusart1TxTail,f,c
 10439                           
 10440                           ;eusart1.c: 156: if(sizeof(eusart1TxBuffer) <= eusart1TxTail)
 10441  00273A  0E07               	movlw	7
 10442  00273C  6444               	cpfsgt	_eusart1TxTail,c
 10443  00273E  D002               	goto	i2l287
 10444                           
 10445                           ;eusart1.c: 157: {
 10446                           ;eusart1.c: 158: eusart1TxTail = 0;
 10447  002740  0E00               	movlw	0
 10448  002742  6E44               	movwf	_eusart1TxTail,c
 10449  002744                     i2l287:
 10450                           
 10451                           ;eusart1.c: 159: }
 10452                           ;eusart1.c: 160: eusart1TxBufferRemaining++;
 10453  002744  2A43               	incf	_eusart1TxBufferRemaining,f,c	;volatile
 10454                           
 10455                           ;eusart1.c: 161: }
 10456  002746  0012               	return	
 10457  002748                     i2l286:
 10458                           
 10459                           ;eusart1.c: 162: else
 10460                           ;eusart1.c: 163: {
 10461                           ;eusart1.c: 164: PIE1bits.TX1IE = 0;
 10462  002748  989D               	bcf	3997,4,c	;volatile
 10463  00274A  0012               	return	
 10464  00274C                     __end_of_EUSART1_Transmit_ISR:
 10465                           	opt stack 0
 10466                           tosu	equ	0xFFF
 10467                           tosh	equ	0xFFE
 10468                           tosl	equ	0xFFD
 10469                           pclatu	equ	0xFFB
 10470                           pclath	equ	0xFFA
 10471                           tblptru	equ	0xFF8
 10472                           tblptrh	equ	0xFF7
 10473                           tblptrl	equ	0xFF6
 10474                           tablat	equ	0xFF5
 10475                           prodh	equ	0xFF4
 10476                           prodl	equ	0xFF3
 10477                           intcon	equ	0xFF2
 10478                           intcon2	equ	0xFF1
 10479                           intcon3	equ	0xFF0
 10480                           indf0	equ	0xFEF
 10481                           postinc0	equ	0xFEE
 10482                           fsr0h	equ	0xFEA
 10483                           fsr0l	equ	0xFE9
 10484                           wreg	equ	0xFE8
 10485                           postdec1	equ	0xFE5
 10486                           fsr1h	equ	0xFE2
 10487                           fsr1l	equ	0xFE1
 10488                           indf2	equ	0xFDF
 10489                           postinc2	equ	0xFDE
 10490                           postdec2	equ	0xFDD
 10491                           fsr2h	equ	0xFDA
 10492                           fsr2l	equ	0xFD9
 10493                           status	equ	0xFD8
 10494                           
 10495 ;; *************** function _EUSART1_Receive_ISR *****************
 10496 ;; Defined at:
 10497 ;;		line 168 in file "eusart1.c"
 10498 ;; Parameters:    Size  Location     Type
 10499 ;;		None
 10500 ;; Auto vars:     Size  Location     Type
 10501 ;;		None
 10502 ;; Return value:  Size  Location     Type
 10503 ;;                  1    wreg      void 
 10504 ;; Registers used:
 10505 ;;		None
 10506 ;; Tracked objects:
 10507 ;;		On entry : 0/0
 10508 ;;		On exit  : 0/0
 10509 ;;		Unchanged: 0/0
 10510 ;; Data sizes:     COMRAM   BANK0   BANK1   BANK2   BANK3   BANK4   BANK5   BANK6   BANK7
 10511 ;;      Params:         0       0       0       0       0       0       0       0       0
 10512 ;;      Locals:         0       0       0       0       0       0       0       0       0
 10513 ;;      Temps:          0       0       0       0       0       0       0       0       0
 10514 ;;      Totals:         0       0       0       0       0       0       0       0       0
 10515 ;;Total ram usage:        0 bytes
 10516 ;; Hardware stack levels used:    1
 10517 ;; This function calls:
 10518 ;;		Nothing
 10519 ;; This function is called by:
 10520 ;;		_INTERRUPT_InterruptManager
 10521 ;; This function uses a non-reentrant model
 10522 ;;
 10523                           
 10524                           	psect	text47
 10525  00283E                     __ptext47:
 10526                           	opt stack 0
 10527  00283E                     _EUSART1_Receive_ISR:
 10528                           	opt stack 22
 10529                           
 10530                           ;eusart1.c: 173: if(1 == RCSTA1bits.OERR)
 10531                           
 10532                           ;incstack = 0
 10533  00283E  A2AB               	btfss	4011,1,c	;volatile
 10534  002840  0012               	return	
 10535                           
 10536                           ;eusart1.c: 174: {
 10537                           ;eusart1.c: 177: RCSTA1bits.SPEN = 0;
 10538  002842  9EAB               	bcf	4011,7,c	;volatile
 10539                           
 10540                           ;eusart1.c: 178: RCSTA1bits.SPEN = 1;
 10541  002844  8EAB               	bsf	4011,7,c	;volatile
 10542  002846  0012               	return	
 10543  002848                     __end_of_EUSART1_Receive_ISR:
 10544                           	opt stack 0
 10545                           tosu	equ	0xFFF
 10546                           tosh	equ	0xFFE
 10547                           tosl	equ	0xFFD
 10548                           pclatu	equ	0xFFB
 10549                           pclath	equ	0xFFA
 10550                           tblptru	equ	0xFF8
 10551                           tblptrh	equ	0xFF7
 10552                           tblptrl	equ	0xFF6
 10553                           tablat	equ	0xFF5
 10554                           prodh	equ	0xFF4
 10555                           prodl	equ	0xFF3
 10556                           intcon	equ	0xFF2
 10557                           intcon2	equ	0xFF1
 10558                           intcon3	equ	0xFF0
 10559                           indf0	equ	0xFEF
 10560                           postinc0	equ	0xFEE
 10561                           fsr0h	equ	0xFEA
 10562                           fsr0l	equ	0xFE9
 10563                           wreg	equ	0xFE8
 10564                           postdec1	equ	0xFE5
 10565                           fsr1h	equ	0xFE2
 10566                           fsr1l	equ	0xFE1
 10567                           indf2	equ	0xFDF
 10568                           postinc2	equ	0xFDE
 10569                           postdec2	equ	0xFDD
 10570                           fsr2h	equ	0xFDA
 10571                           fsr2l	equ	0xFD9
 10572                           status	equ	0xFD8
 10573                           
 10574 ;; *************** function _ADC_ISR *****************
 10575 ;; Defined at:
 10576 ;;		line 132 in file "adc.c"
 10577 ;; Parameters:    Size  Location     Type
 10578 ;;		None
 10579 ;; Auto vars:     Size  Location     Type
 10580 ;;		None
 10581 ;; Return value:  Size  Location     Type
 10582 ;;                  1    wreg      void 
 10583 ;; Registers used:
 10584 ;;		None
 10585 ;; Tracked objects:
 10586 ;;		On entry : 0/0
 10587 ;;		On exit  : 0/0
 10588 ;;		Unchanged: 0/0
 10589 ;; Data sizes:     COMRAM   BANK0   BANK1   BANK2   BANK3   BANK4   BANK5   BANK6   BANK7
 10590 ;;      Params:         0       0       0       0       0       0       0       0       0
 10591 ;;      Locals:         0       0       0       0       0       0       0       0       0
 10592 ;;      Temps:          0       0       0       0       0       0       0       0       0
 10593 ;;      Totals:         0       0       0       0       0       0       0       0       0
 10594 ;;Total ram usage:        0 bytes
 10595 ;; Hardware stack levels used:    1
 10596 ;; This function calls:
 10597 ;;		Nothing
 10598 ;; This function is called by:
 10599 ;;		_INTERRUPT_InterruptManager
 10600 ;; This function uses a non-reentrant model
 10601 ;;
 10602                           
 10603                           	psect	text48
 10604  00286E                     __ptext48:
 10605                           	opt stack 0
 10606  00286E                     _ADC_ISR:
 10607                           	opt stack 22
 10608                           
 10609                           ;incstack = 0
 10610  00286E  0012               	return		;funcret
 10611  002870                     __end_of_ADC_ISR:
 10612                           	opt stack 0
 10613                           tosu	equ	0xFFF
 10614                           tosh	equ	0xFFE
 10615                           tosl	equ	0xFFD
 10616                           pclatu	equ	0xFFB
 10617                           pclath	equ	0xFFA
 10618                           tblptru	equ	0xFF8
 10619                           tblptrh	equ	0xFF7
 10620                           tblptrl	equ	0xFF6
 10621                           tablat	equ	0xFF5
 10622                           prodh	equ	0xFF4
 10623                           prodl	equ	0xFF3
 10624                           intcon	equ	0xFF2
 10625                           intcon2	equ	0xFF1
 10626                           intcon3	equ	0xFF0
 10627                           indf0	equ	0xFEF
 10628                           postinc0	equ	0xFEE
 10629                           fsr0h	equ	0xFEA
 10630                           fsr0l	equ	0xFE9
 10631                           wreg	equ	0xFE8
 10632                           postdec1	equ	0xFE5
 10633                           fsr1h	equ	0xFE2
 10634                           fsr1l	equ	0xFE1
 10635                           indf2	equ	0xFDF
 10636                           postinc2	equ	0xFDE
 10637                           postdec2	equ	0xFDD
 10638                           fsr2h	equ	0xFDA
 10639                           fsr2l	equ	0xFD9
 10640                           status	equ	0xFD8
 10641                           tosu	equ	0xFFF
 10642                           tosh	equ	0xFFE
 10643                           tosl	equ	0xFFD
 10644                           pclatu	equ	0xFFB
 10645                           pclath	equ	0xFFA
 10646                           tblptru	equ	0xFF8
 10647                           tblptrh	equ	0xFF7
 10648                           tblptrl	equ	0xFF6
 10649                           tablat	equ	0xFF5
 10650                           prodh	equ	0xFF4
 10651                           prodl	equ	0xFF3
 10652                           intcon	equ	0xFF2
 10653                           intcon2	equ	0xFF1
 10654                           intcon3	equ	0xFF0
 10655                           indf0	equ	0xFEF
 10656                           postinc0	equ	0xFEE
 10657                           fsr0h	equ	0xFEA
 10658                           fsr0l	equ	0xFE9
 10659                           wreg	equ	0xFE8
 10660                           postdec1	equ	0xFE5
 10661                           fsr1h	equ	0xFE2
 10662                           fsr1l	equ	0xFE1
 10663                           indf2	equ	0xFDF
 10664                           postinc2	equ	0xFDE
 10665                           postdec2	equ	0xFDD
 10666                           fsr2h	equ	0xFDA
 10667                           fsr2l	equ	0xFD9
 10668                           status	equ	0xFD8
 10669                           
 10670                           	psect	text49
 10671  000000                     __ptext49:
 10672                           	opt stack 0
 10673                           tosu	equ	0xFFF
 10674                           tosh	equ	0xFFE
 10675                           tosl	equ	0xFFD
 10676                           pclatu	equ	0xFFB
 10677                           pclath	equ	0xFFA
 10678                           tblptru	equ	0xFF8
 10679                           tblptrh	equ	0xFF7
 10680                           tblptrl	equ	0xFF6
 10681                           tablat	equ	0xFF5
 10682                           prodh	equ	0xFF4
 10683                           prodl	equ	0xFF3
 10684                           intcon	equ	0xFF2
 10685                           intcon2	equ	0xFF1
 10686                           intcon3	equ	0xFF0
 10687                           indf0	equ	0xFEF
 10688                           postinc0	equ	0xFEE
 10689                           fsr0h	equ	0xFEA
 10690                           fsr0l	equ	0xFE9
 10691                           wreg	equ	0xFE8
 10692                           postdec1	equ	0xFE5
 10693                           fsr1h	equ	0xFE2
 10694                           fsr1l	equ	0xFE1
 10695                           indf2	equ	0xFDF
 10696                           postinc2	equ	0xFDE
 10697                           postdec2	equ	0xFDD
 10698                           fsr2h	equ	0xFDA
 10699                           fsr2l	equ	0xFD9
 10700                           status	equ	0xFD8
 10701                           
 10702                           	psect	rparam
 10703  0000                     tosu	equ	0xFFF
 10704                           tosh	equ	0xFFE
 10705                           tosl	equ	0xFFD
 10706                           pclatu	equ	0xFFB
 10707                           pclath	equ	0xFFA
 10708                           tblptru	equ	0xFF8
 10709                           tblptrh	equ	0xFF7
 10710                           tblptrl	equ	0xFF6
 10711                           tablat	equ	0xFF5
 10712                           prodh	equ	0xFF4
 10713                           prodl	equ	0xFF3
 10714                           intcon	equ	0xFF2
 10715                           intcon2	equ	0xFF1
 10716                           intcon3	equ	0xFF0
 10717                           indf0	equ	0xFEF
 10718                           postinc0	equ	0xFEE
 10719                           fsr0h	equ	0xFEA
 10720                           fsr0l	equ	0xFE9
 10721                           wreg	equ	0xFE8
 10722                           postdec1	equ	0xFE5
 10723                           fsr1h	equ	0xFE2
 10724                           fsr1l	equ	0xFE1
 10725                           indf2	equ	0xFDF
 10726                           postinc2	equ	0xFDE
 10727                           postdec2	equ	0xFDD
 10728                           fsr2h	equ	0xFDA
 10729                           fsr2l	equ	0xFD9
 10730                           status	equ	0xFD8
 10731                           
 10732                           	psect	temp
 10733  000049                     btemp:
 10734                           	opt stack 0
 10735  000049                     	ds	1
 10736  0000                     int$flags	set	btemp
 10737  0000                     wtemp6	set	btemp+1
 10738                           tosu	equ	0xFFF
 10739                           tosh	equ	0xFFE
 10740                           tosl	equ	0xFFD
 10741                           pclatu	equ	0xFFB
 10742                           pclath	equ	0xFFA
 10743                           tblptru	equ	0xFF8
 10744                           tblptrh	equ	0xFF7
 10745                           tblptrl	equ	0xFF6
 10746                           tablat	equ	0xFF5
 10747                           prodh	equ	0xFF4
 10748                           prodl	equ	0xFF3
 10749                           intcon	equ	0xFF2
 10750                           intcon2	equ	0xFF1
 10751                           intcon3	equ	0xFF0
 10752                           indf0	equ	0xFEF
 10753                           postinc0	equ	0xFEE
 10754                           fsr0h	equ	0xFEA
 10755                           fsr0l	equ	0xFE9
 10756                           wreg	equ	0xFE8
 10757                           postdec1	equ	0xFE5
 10758                           fsr1h	equ	0xFE2
 10759                           fsr1l	equ	0xFE1
 10760                           indf2	equ	0xFDF
 10761                           postinc2	equ	0xFDE
 10762                           postdec2	equ	0xFDD
 10763                           fsr2h	equ	0xFDA
 10764                           fsr2l	equ	0xFD9
 10765                           status	equ	0xFD8


Data Sizes:
    Strings     286
    Constant    10
    Data        16
    BSS         137
    Persistent  0
    Stack       0

Auto Spaces:
    Space          Size  Autos    Used
    COMRAM           94     51      72
    BANK0           160     22     154
    BANK1           256      0       0
    BANK2           256      0       0
    BANK3           256      0       0
    BANK4           256      0       0
    BANK5           256      0       0
    BANK6           256      0       0
    BANK7           256      0       0

Pointer List with Targets:

    i2c1_tr_queue.ptrb_list.pbuffer	PTR unsigned char  size(2) Largest target is 0

    i2c1_tr_queue.pTrFlag	PTR enum E5248 size(2) Largest target is 0

    i2c1_tr_queue.ptrb_list	PTR struct . size(2) Largest target is 0
		 -> I2C1_MasterRead@trBlock(BANK0[6]), I2C1_MasterWrite@trBlock(BANK0[6]), 

    TMR1_InterruptHandler	PTR FTN()void  size(2) Largest target is 1
		 -> Absolute function(), 

    sprintf@f	PTR const unsigned char  size(2) Largest target is 3
		 -> STR_3(CODE[3]), STR_2(CODE[3]), 

    sprintf@sp	PTR unsigned char  size(2) Largest target is 10
		 -> changeStages@buffer(BANK0[10]), printscore@buffer2(BANK0[10]), 

    sprintf@ap	PTR void [1] size(2) Largest target is 2
		 -> ?_sprintf(COMRAM[2]), 

    TMR3_InterruptHandler	PTR FTN()void  size(2) Largest target is 1
		 -> Absolute function(), TMR3_DefaultInterruptHandler(), 

    TMR2_InterruptHandler	PTR FTN()void  size(2) Largest target is 1
		 -> Absolute function(), 

    changeStages@parameter2	PTR unsigned char  size(2) Largest target is 13
		 -> STR_243(CODE[13]), STR_241(CODE[13]), STR_239(CODE[13]), STR_237(CODE[13]), 
		 -> STR_235(CODE[13]), STR_233(CODE[13]), STR_231(CODE[13]), STR_229(CODE[13]), 
		 -> STR_227(CODE[13]), STR_225(CODE[12]), STR_223(CODE[12]), STR_221(CODE[12]), 
		 -> STR_219(CODE[12]), STR_217(CODE[12]), STR_215(CODE[12]), STR_213(CODE[12]), 
		 -> STR_211(CODE[12]), STR_209(CODE[12]), STR_207(CODE[12]), STR_205(CODE[12]), 
		 -> STR_203(CODE[12]), STR_201(CODE[12]), STR_199(CODE[12]), STR_197(CODE[12]), 
		 -> STR_195(CODE[12]), STR_193(CODE[12]), STR_191(CODE[12]), STR_189(CODE[12]), 
		 -> STR_187(CODE[12]), STR_185(CODE[12]), STR_183(CODE[13]), STR_181(CODE[13]), 
		 -> STR_179(CODE[13]), STR_177(CODE[13]), STR_175(CODE[13]), STR_173(CODE[13]), 
		 -> STR_171(CODE[13]), STR_169(CODE[13]), STR_167(CODE[13]), STR_165(CODE[12]), 
		 -> STR_163(CODE[12]), STR_161(CODE[12]), STR_159(CODE[12]), STR_157(CODE[12]), 
		 -> STR_155(CODE[12]), STR_153(CODE[12]), STR_151(CODE[12]), STR_149(CODE[12]), 
		 -> STR_147(CODE[12]), STR_145(CODE[12]), STR_143(CODE[12]), STR_141(CODE[12]), 
		 -> STR_139(CODE[12]), STR_137(CODE[12]), STR_135(CODE[12]), STR_133(CODE[12]), 
		 -> STR_131(CODE[12]), STR_129(CODE[12]), STR_127(CODE[12]), STR_125(CODE[12]), 
		 -> STR_123(CODE[13]), STR_121(CODE[13]), STR_119(CODE[13]), STR_117(CODE[13]), 
		 -> STR_115(CODE[13]), STR_113(CODE[13]), STR_111(CODE[13]), STR_109(CODE[13]), 
		 -> STR_107(CODE[13]), STR_105(CODE[12]), STR_103(CODE[12]), STR_101(CODE[12]), 
		 -> STR_99(CODE[12]), STR_97(CODE[12]), STR_95(CODE[12]), STR_93(CODE[12]), 
		 -> STR_91(CODE[12]), STR_89(CODE[12]), STR_87(CODE[12]), STR_85(CODE[12]), 
		 -> STR_83(CODE[12]), STR_81(CODE[12]), STR_79(CODE[12]), STR_77(CODE[12]), 
		 -> STR_75(CODE[12]), STR_73(CODE[12]), STR_71(CODE[12]), STR_69(CODE[12]), 
		 -> STR_67(CODE[12]), STR_65(CODE[12]), STR_63(CODE[13]), STR_61(CODE[13]), 
		 -> STR_59(CODE[13]), STR_57(CODE[13]), STR_55(CODE[13]), STR_53(CODE[13]), 
		 -> STR_51(CODE[13]), STR_49(CODE[13]), STR_47(CODE[13]), STR_45(CODE[12]), 
		 -> STR_43(CODE[12]), STR_41(CODE[12]), STR_39(CODE[12]), STR_37(CODE[12]), 
		 -> STR_35(CODE[12]), STR_33(CODE[12]), STR_31(CODE[12]), STR_29(CODE[12]), 
		 -> STR_27(CODE[12]), STR_25(CODE[12]), STR_23(CODE[12]), STR_21(CODE[12]), 
		 -> STR_19(CODE[12]), STR_17(CODE[12]), STR_15(CODE[12]), STR_13(CODE[12]), 
		 -> STR_11(CODE[12]), STR_9(CODE[12]), STR_7(CODE[12]), STR_5(CODE[12]), 

    changeStages@parameter1	PTR unsigned char  size(2) Largest target is 12
		 -> STR_242(CODE[11]), STR_240(CODE[11]), STR_238(CODE[11]), STR_236(CODE[11]), 
		 -> STR_234(CODE[11]), STR_232(CODE[11]), STR_230(CODE[11]), STR_228(CODE[11]), 
		 -> STR_226(CODE[11]), STR_224(CODE[12]), STR_222(CODE[12]), STR_220(CODE[12]), 
		 -> STR_218(CODE[12]), STR_216(CODE[12]), STR_214(CODE[12]), STR_212(CODE[12]), 
		 -> STR_210(CODE[12]), STR_208(CODE[12]), STR_206(CODE[12]), STR_204(CODE[12]), 
		 -> STR_202(CODE[12]), STR_200(CODE[12]), STR_198(CODE[12]), STR_196(CODE[12]), 
		 -> STR_194(CODE[12]), STR_192(CODE[12]), STR_190(CODE[12]), STR_188(CODE[12]), 
		 -> STR_186(CODE[12]), STR_184(CODE[12]), STR_182(CODE[11]), STR_180(CODE[11]), 
		 -> STR_178(CODE[11]), STR_176(CODE[11]), STR_174(CODE[11]), STR_172(CODE[11]), 
		 -> STR_170(CODE[11]), STR_168(CODE[11]), STR_166(CODE[11]), STR_164(CODE[12]), 
		 -> STR_162(CODE[12]), STR_160(CODE[12]), STR_158(CODE[12]), STR_156(CODE[12]), 
		 -> STR_154(CODE[12]), STR_152(CODE[12]), STR_150(CODE[12]), STR_148(CODE[12]), 
		 -> STR_146(CODE[12]), STR_144(CODE[12]), STR_142(CODE[12]), STR_140(CODE[12]), 
		 -> STR_138(CODE[12]), STR_136(CODE[12]), STR_134(CODE[12]), STR_132(CODE[12]), 
		 -> STR_130(CODE[12]), STR_128(CODE[12]), STR_126(CODE[12]), STR_124(CODE[12]), 
		 -> STR_122(CODE[11]), STR_120(CODE[11]), STR_118(CODE[11]), STR_116(CODE[11]), 
		 -> STR_114(CODE[11]), STR_112(CODE[11]), STR_110(CODE[11]), STR_108(CODE[11]), 
		 -> STR_106(CODE[11]), STR_104(CODE[12]), STR_102(CODE[12]), STR_100(CODE[12]), 
		 -> STR_98(CODE[12]), STR_96(CODE[12]), STR_94(CODE[12]), STR_92(CODE[12]), 
		 -> STR_90(CODE[12]), STR_88(CODE[12]), STR_86(CODE[12]), STR_84(CODE[12]), 
		 -> STR_82(CODE[12]), STR_80(CODE[12]), STR_78(CODE[12]), STR_76(CODE[12]), 
		 -> STR_74(CODE[12]), STR_72(CODE[12]), STR_70(CODE[12]), STR_68(CODE[12]), 
		 -> STR_66(CODE[12]), STR_64(CODE[12]), STR_62(CODE[11]), STR_60(CODE[11]), 
		 -> STR_58(CODE[11]), STR_56(CODE[11]), STR_54(CODE[11]), STR_52(CODE[11]), 
		 -> STR_50(CODE[11]), STR_48(CODE[11]), STR_46(CODE[11]), STR_44(CODE[12]), 
		 -> STR_42(CODE[12]), STR_40(CODE[12]), STR_38(CODE[12]), STR_36(CODE[12]), 
		 -> STR_34(CODE[12]), STR_32(CODE[12]), STR_30(CODE[12]), STR_28(CODE[12]), 
		 -> STR_26(CODE[12]), STR_24(CODE[12]), STR_22(CODE[12]), STR_20(CODE[12]), 
		 -> STR_18(CODE[12]), STR_16(CODE[12]), STR_14(CODE[12]), STR_12(CODE[12]), 
		 -> STR_10(CODE[12]), STR_8(CODE[12]), STR_6(CODE[12]), STR_4(CODE[12]), 

    createCharacter@data	PTR unsigned char  size(2) Largest target is 8
		 -> data1(BANK0[8]), data0(BANK0[8]), 

    I2C1_MasterWriteTRBBuild@ptrb.pbuffer	PTR unsigned char  size(2) Largest target is 0

    I2C1_MasterReadTRBBuild@ptrb.pbuffer	PTR unsigned char  size(2) Largest target is 0

    i2c1_object.pTrTail.ptrb_list.pbuffer	PTR unsigned char  size(2) Largest target is 0

    i2c1_object.pTrTail.pTrFlag	PTR enum E5248 size(2) Largest target is 0

    i2c1_object.pTrTail.ptrb_list	PTR struct . size(2) Largest target is 6
		 -> I2C1_MasterRead@trBlock(BANK0[6]), I2C1_MasterWrite@trBlock(BANK0[6]), 

    F5594.pbuffer	PTR unsigned char  size(2) Largest target is 0

    F5589.pbuffer	PTR unsigned char  size(2) Largest target is 0

    I2C1_ISR@pi2c_buf_ptr	PTR unsigned char  size(2) Largest target is 0
		 -> NULL(NULL[0]), 

    p_i2c1_trb_current.pbuffer	PTR unsigned char  size(2) Largest target is 0

    p_i2c1_trb_current	PTR struct . size(2) Largest target is 6
		 -> I2C1_MasterRead@trBlock(BANK0[6]), I2C1_MasterWrite@trBlock(BANK0[6]), NULL(NULL[0]), 

    i2c1_object.pTrHead.pTrFlag	PTR enum E5248 size(2) Largest target is 0

    i2c1_object.pTrHead.ptrb_list	PTR struct . size(2) Largest target is 6
		 -> I2C1_MasterRead@trBlock(BANK0[6]), I2C1_MasterWrite@trBlock(BANK0[6]), 

    S1111$pbuffer	PTR unsigned char  size(2) Largest target is 0

    p_i2c1_current.pbuffer	PTR unsigned char  size(2) Largest target is 0

    S1123$pTrFlag	PTR enum E5248 size(2) Largest target is 0

    p_i2c1_current.pTrFlag	PTR enum E5248 size(2) Largest target is 0

    S1123$ptrb_list	PTR struct . size(2) Largest target is 6
		 -> I2C1_MasterRead@trBlock(BANK0[6]), I2C1_MasterWrite@trBlock(BANK0[6]), 

    p_i2c1_current.ptrb_list	PTR struct . size(2) Largest target is 6
		 -> I2C1_MasterRead@trBlock(BANK0[6]), I2C1_MasterWrite@trBlock(BANK0[6]), 

    p_i2c1_current	PTR struct . size(2) Largest target is 7
		 -> i2c1_tr_queue(BANK0[6]), NULL(NULL[0]), 

    S1134$pTrHead	PTR struct . size(2) Largest target is 7
		 -> i2c1_tr_queue(BANK0[6]), 

    i2c1_object.pTrHead	PTR struct . size(2) Largest target is 7
		 -> i2c1_tr_queue(BANK0[6]), 

    S1134$pTrTail	PTR struct . size(2) Largest target is 7
		 -> i2c1_tr_queue(BANK0[6]), 

    i2c1_object.pTrTail	PTR struct . size(2) Largest target is 7
		 -> i2c1_tr_queue(BANK0[6]), 

    putsXLCD@buffer	PTR unsigned char  size(2) Largest target is 16
		 -> STR_243(CODE[13]), STR_242(CODE[11]), STR_241(CODE[13]), STR_240(CODE[11]), 
		 -> STR_239(CODE[13]), STR_238(CODE[11]), STR_237(CODE[13]), STR_236(CODE[11]), 
		 -> STR_235(CODE[13]), STR_234(CODE[11]), STR_233(CODE[13]), STR_232(CODE[11]), 
		 -> STR_231(CODE[13]), STR_230(CODE[11]), STR_229(CODE[13]), STR_228(CODE[11]), 
		 -> STR_227(CODE[13]), STR_226(CODE[11]), STR_225(CODE[12]), STR_224(CODE[12]), 
		 -> STR_223(CODE[12]), STR_222(CODE[12]), STR_221(CODE[12]), STR_220(CODE[12]), 
		 -> STR_219(CODE[12]), STR_218(CODE[12]), STR_217(CODE[12]), STR_216(CODE[12]), 
		 -> STR_215(CODE[12]), STR_214(CODE[12]), STR_213(CODE[12]), STR_212(CODE[12]), 
		 -> STR_211(CODE[12]), STR_210(CODE[12]), STR_209(CODE[12]), STR_208(CODE[12]), 
		 -> STR_207(CODE[12]), STR_206(CODE[12]), STR_205(CODE[12]), STR_204(CODE[12]), 
		 -> STR_203(CODE[12]), STR_202(CODE[12]), STR_201(CODE[12]), STR_200(CODE[12]), 
		 -> STR_199(CODE[12]), STR_198(CODE[12]), STR_197(CODE[12]), STR_196(CODE[12]), 
		 -> STR_195(CODE[12]), STR_194(CODE[12]), STR_193(CODE[12]), STR_192(CODE[12]), 
		 -> STR_191(CODE[12]), STR_190(CODE[12]), STR_189(CODE[12]), STR_188(CODE[12]), 
		 -> STR_187(CODE[12]), STR_186(CODE[12]), STR_185(CODE[12]), STR_184(CODE[12]), 
		 -> STR_183(CODE[13]), STR_182(CODE[11]), STR_181(CODE[13]), STR_180(CODE[11]), 
		 -> STR_179(CODE[13]), STR_178(CODE[11]), STR_177(CODE[13]), STR_176(CODE[11]), 
		 -> STR_175(CODE[13]), STR_174(CODE[11]), STR_173(CODE[13]), STR_172(CODE[11]), 
		 -> STR_171(CODE[13]), STR_170(CODE[11]), STR_169(CODE[13]), STR_168(CODE[11]), 
		 -> STR_167(CODE[13]), STR_166(CODE[11]), STR_165(CODE[12]), STR_164(CODE[12]), 
		 -> STR_163(CODE[12]), STR_162(CODE[12]), STR_161(CODE[12]), STR_160(CODE[12]), 
		 -> STR_159(CODE[12]), STR_158(CODE[12]), STR_157(CODE[12]), STR_156(CODE[12]), 
		 -> STR_155(CODE[12]), STR_154(CODE[12]), STR_153(CODE[12]), STR_152(CODE[12]), 
		 -> STR_151(CODE[12]), STR_150(CODE[12]), STR_149(CODE[12]), STR_148(CODE[12]), 
		 -> STR_147(CODE[12]), STR_146(CODE[12]), STR_145(CODE[12]), STR_144(CODE[12]), 
		 -> STR_143(CODE[12]), STR_142(CODE[12]), STR_141(CODE[12]), STR_140(CODE[12]), 
		 -> STR_139(CODE[12]), STR_138(CODE[12]), STR_137(CODE[12]), STR_136(CODE[12]), 
		 -> STR_135(CODE[12]), STR_134(CODE[12]), STR_133(CODE[12]), STR_132(CODE[12]), 
		 -> STR_131(CODE[12]), STR_130(CODE[12]), STR_129(CODE[12]), STR_128(CODE[12]), 
		 -> STR_127(CODE[12]), STR_126(CODE[12]), STR_125(CODE[12]), STR_124(CODE[12]), 
		 -> STR_123(CODE[13]), STR_122(CODE[11]), STR_121(CODE[13]), STR_120(CODE[11]), 
		 -> STR_119(CODE[13]), STR_118(CODE[11]), STR_117(CODE[13]), STR_116(CODE[11]), 
		 -> STR_115(CODE[13]), STR_114(CODE[11]), STR_113(CODE[13]), STR_112(CODE[11]), 
		 -> STR_111(CODE[13]), STR_110(CODE[11]), STR_109(CODE[13]), STR_108(CODE[11]), 
		 -> STR_107(CODE[13]), STR_106(CODE[11]), STR_105(CODE[12]), STR_104(CODE[12]), 
		 -> STR_103(CODE[12]), STR_102(CODE[12]), STR_101(CODE[12]), STR_100(CODE[12]), 
		 -> STR_99(CODE[12]), STR_98(CODE[12]), STR_97(CODE[12]), STR_96(CODE[12]), 
		 -> STR_95(CODE[12]), STR_94(CODE[12]), STR_93(CODE[12]), STR_92(CODE[12]), 
		 -> STR_91(CODE[12]), STR_90(CODE[12]), STR_89(CODE[12]), STR_88(CODE[12]), 
		 -> STR_87(CODE[12]), STR_86(CODE[12]), STR_85(CODE[12]), STR_84(CODE[12]), 
		 -> STR_83(CODE[12]), STR_82(CODE[12]), STR_81(CODE[12]), STR_80(CODE[12]), 
		 -> STR_79(CODE[12]), STR_78(CODE[12]), STR_77(CODE[12]), STR_76(CODE[12]), 
		 -> STR_75(CODE[12]), STR_74(CODE[12]), STR_73(CODE[12]), STR_72(CODE[12]), 
		 -> STR_71(CODE[12]), STR_70(CODE[12]), STR_69(CODE[12]), STR_68(CODE[12]), 
		 -> STR_67(CODE[12]), STR_66(CODE[12]), STR_65(CODE[12]), STR_64(CODE[12]), 
		 -> STR_63(CODE[13]), STR_62(CODE[11]), STR_61(CODE[13]), STR_60(CODE[11]), 
		 -> STR_59(CODE[13]), STR_58(CODE[11]), STR_57(CODE[13]), STR_56(CODE[11]), 
		 -> STR_55(CODE[13]), STR_54(CODE[11]), STR_53(CODE[13]), STR_52(CODE[11]), 
		 -> STR_51(CODE[13]), STR_50(CODE[11]), STR_49(CODE[13]), STR_48(CODE[11]), 
		 -> STR_47(CODE[13]), STR_46(CODE[11]), STR_45(CODE[12]), STR_44(CODE[12]), 
		 -> STR_43(CODE[12]), STR_42(CODE[12]), STR_41(CODE[12]), STR_40(CODE[12]), 
		 -> STR_39(CODE[12]), STR_38(CODE[12]), STR_37(CODE[12]), STR_36(CODE[12]), 
		 -> STR_35(CODE[12]), STR_34(CODE[12]), STR_33(CODE[12]), STR_32(CODE[12]), 
		 -> STR_31(CODE[12]), STR_30(CODE[12]), STR_29(CODE[12]), STR_28(CODE[12]), 
		 -> STR_27(CODE[12]), STR_26(CODE[12]), STR_25(CODE[12]), STR_24(CODE[12]), 
		 -> STR_23(CODE[12]), STR_22(CODE[12]), STR_21(CODE[12]), STR_20(CODE[12]), 
		 -> STR_19(CODE[12]), STR_18(CODE[12]), STR_17(CODE[12]), STR_16(CODE[12]), 
		 -> STR_15(CODE[12]), STR_14(CODE[12]), STR_13(CODE[12]), STR_12(CODE[12]), 
		 -> STR_11(CODE[12]), STR_10(CODE[12]), STR_9(CODE[12]), STR_8(CODE[12]), 
		 -> STR_7(CODE[12]), STR_6(CODE[12]), STR_5(CODE[12]), STR_4(CODE[12]), 
		 -> changeStages@buffer(BANK0[10]), printscore@buffer2(BANK0[10]), STR_1(CODE[16]), 


Critical Paths under _main in COMRAM

    _main->_juego4
    _printscore->_sprintf
    _changeStages->_sprintf
    _sprintf->___lwmod
    ___lwmod->___lwdiv
    _putsXLCD->_WriteDataXLCD
    _printCharacter->_WriteDataXLCD
    _XLCD_Initialize->_OpenXLCD
    _OpenXLCD->_SetDDRamAddr
    _TMR0_Initialize->_TMR0_WriteTimer
    _createCharacter->_WriteCmdXLCD
    _createCharacter->_WriteDataXLCD

Critical Paths under _INTERRUPT_InterruptManager in COMRAM

    _INTERRUPT_InterruptManager->_I2C1_ISR
    _TMR0_ISR->i2_TMR0_WriteTimer

Critical Paths under _main in BANK0

    _main->_juego4
    _juego4->_changeStages
    _juego3->_changeStages
    _juego2->_changeStages
    _juego1->_changeStages

Critical Paths under _INTERRUPT_InterruptManager in BANK0

    None.

Critical Paths under _main in BANK1

    None.

Critical Paths under _INTERRUPT_InterruptManager in BANK1

    None.

Critical Paths under _main in BANK2

    None.

Critical Paths under _INTERRUPT_InterruptManager in BANK2

    None.

Critical Paths under _main in BANK3

    None.

Critical Paths under _INTERRUPT_InterruptManager in BANK3

    None.

Critical Paths under _main in BANK4

    None.

Critical Paths under _INTERRUPT_InterruptManager in BANK4

    None.

Critical Paths under _main in BANK5

    None.

Critical Paths under _INTERRUPT_InterruptManager in BANK5

    None.

Critical Paths under _main in BANK6

    None.

Critical Paths under _INTERRUPT_InterruptManager in BANK6

    None.

Critical Paths under _main in BANK7

    None.

Critical Paths under _INTERRUPT_InterruptManager in BANK7

    None.

Call Graph Tables:

 ---------------------------------------------------------------------------------
 (Depth) Function   	        Calls       Base Space   Used Autos Params    Refs
 ---------------------------------------------------------------------------------
 (0) _main                                                 2     2      0  147858
                                             20 BANK0      2     2      0
                  _SYSTEM_Initialize
                    _createCharacter
                             _juego1
                             _juego2
                             _juego3
                             _juego4
                         _printscore
 ---------------------------------------------------------------------------------
 (1) _printscore                                          12    10      2    2741
                                             47 COMRAM     2     0      2
                                              0 BANK0     10    10      0
                           _BusyXLCD
                       _SetDDRamAddr
                           _putsXLCD
                            _sprintf
 ---------------------------------------------------------------------------------
 (1) _juego4                                               8     6      2   36005
                                             47 COMRAM     4     2      2
                                             18 BANK0      2     2      0
                       _changeStages
 ---------------------------------------------------------------------------------
 (1) _juego3                                               4     4      0   35971
                                             47 COMRAM     2     2      0
                       _changeStages
 ---------------------------------------------------------------------------------
 (1) _juego2                                               4     4      0   35971
                                             47 COMRAM     2     2      0
                       _changeStages
 ---------------------------------------------------------------------------------
 (1) _juego1                                               4     4      0   35971
                                             47 COMRAM     2     2      0
                       _changeStages
 ---------------------------------------------------------------------------------
 (2) _changeStages                                        18    12      6   35971
                                              0 BANK0     18    12      6
                  _ADC_GetConversion
                           _BusyXLCD
                  _SYSTEM_Initialize
                       _SetDDRamAddr
                     _printCharacter
                           _putsXLCD
                            _sprintf
 ---------------------------------------------------------------------------------
 (2) _sprintf                                             23    17      6    1889
                                             33 COMRAM    14     8      6
                            ___lwdiv
                            ___lwmod
 ---------------------------------------------------------------------------------
 (3) ___lwmod                                              5     1      4     412
                                             28 COMRAM     5     1      4
                            ___lwdiv (ARG)
 ---------------------------------------------------------------------------------
 (3) ___lwdiv                                              7     3      4     421
                                             21 COMRAM     7     3      4
 ---------------------------------------------------------------------------------
 (2) _putsXLCD                                             2     0      2     577
                                             22 COMRAM     2     0      2
                           _BusyXLCD
                      _WriteDataXLCD
 ---------------------------------------------------------------------------------
 (3) _printCharacter                                       2     0      2     273
                                             22 COMRAM     2     0      2
                           _BusyXLCD
                      _WriteDataXLCD
 ---------------------------------------------------------------------------------
 (3) _SYSTEM_Initialize                                    0     0      0     517
               _INTERRUPT_Initialize
              _OSCILLATOR_Initialize
             _PIN_MANAGER_Initialize
                    _TMR0_Initialize
                    _XLCD_Initialize
 ---------------------------------------------------------------------------------
 (4) _XLCD_Initialize                                      0     0      0     310
                           _BusyXLCD
                           _OpenXLCD
                       _SetDDRamAddr
                       _WriteCmdXLCD
 ---------------------------------------------------------------------------------
 (5) _OpenXLCD                                             1     1      0     186
                                             25 COMRAM     1     1      0
                           _BusyXLCD
                       _Delay10KTCYx
                       _DelayPORXLCD
                       _SetDDRamAddr
                       _WriteCmdXLCD
 ---------------------------------------------------------------------------------
 (2) _SetDDRamAddr                                         4     4      0      62
                                             21 COMRAM     4     4      0
                      _DelayFor18TCY
 ---------------------------------------------------------------------------------
 (6) _DelayPORXLCD                                         1     1      0       0
                                             21 COMRAM     1     1      0
 ---------------------------------------------------------------------------------
 (6) _Delay10KTCYx                                         2     2      0      31
                                             21 COMRAM     2     2      0
 ---------------------------------------------------------------------------------
 (4) _TMR0_Initialize                                      0     0      0     207
                    _TMR0_StartTimer
                    _TMR0_WriteTimer
 ---------------------------------------------------------------------------------
 (5) _TMR0_WriteTimer                                      2     0      2     207
                                             21 COMRAM     2     0      2
 ---------------------------------------------------------------------------------
 (5) _TMR0_StartTimer                                      0     0      0       0
 ---------------------------------------------------------------------------------
 (4) _PIN_MANAGER_Initialize                               0     0      0       0
 ---------------------------------------------------------------------------------
 (4) _OSCILLATOR_Initialize                                0     0      0       0
 ---------------------------------------------------------------------------------
 (4) _INTERRUPT_Initialize                                 0     0      0       0
 ---------------------------------------------------------------------------------
 (3) _ADC_GetConversion                                    5     3      2      31
                                             21 COMRAM     5     3      2
 ---------------------------------------------------------------------------------
 (1) _createCharacter                                      6     3      3     648
                                             22 COMRAM     6     3      3
                           _BusyXLCD
                       _WriteCmdXLCD
                      _WriteDataXLCD
 ---------------------------------------------------------------------------------
 (3) _WriteDataXLCD                                        1     1      0      62
                                             21 COMRAM     1     1      0
                      _DelayFor18TCY
 ---------------------------------------------------------------------------------
 (5) _WriteCmdXLCD                                         1     1      0      62
                                             21 COMRAM     1     1      0
                      _DelayFor18TCY
 ---------------------------------------------------------------------------------
 (3) _BusyXLCD                                             0     0      0       0
                      _DelayFor18TCY
 ---------------------------------------------------------------------------------
 (4) _DelayFor18TCY                                        0     0      0       0
 ---------------------------------------------------------------------------------
 Estimated maximum stack depth 6
 ---------------------------------------------------------------------------------
 (Depth) Function   	        Calls       Base Space   Used Autos Params    Refs
 ---------------------------------------------------------------------------------
 (8) _INTERRUPT_InterruptManager                          19    19      0      71
                                              2 COMRAM    19    19      0
                            _ADC_ISR
                _EUSART1_Receive_ISR
               _EUSART1_Transmit_ISR
               _I2C1_BusCollisionISR
                           _I2C1_ISR
                         _MEMORY_ISR
                   _PIN_MANAGER_INT0
                   _PIN_MANAGER_INT1
                   _PIN_MANAGER_INT2
                    _PIN_MANAGER_IOC
                           _TMR0_ISR
                           _TMR1_ISR
                           _TMR2_ISR
                           _TMR3_ISR
 ---------------------------------------------------------------------------------
 (9) _TMR3_ISR                                             0     0      0       0
                   Absolute function *
       _TMR3_DefaultInterruptHandler *
 ---------------------------------------------------------------------------------
 (10) _TMR3_DefaultInterruptHandler                        0     0      0       0
 ---------------------------------------------------------------------------------
 (10) Absolute function(Fake)                              0     0      0       0
 ---------------------------------------------------------------------------------
 (9) _TMR2_ISR                                             0     0      0       0
 ---------------------------------------------------------------------------------
 (9) _TMR1_ISR                                             0     0      0       0
 ---------------------------------------------------------------------------------
 (9) _TMR0_ISR                                             0     0      0      70
                  i2_TMR0_WriteTimer
 ---------------------------------------------------------------------------------
 (10) i2_TMR0_WriteTimer                                   2     0      2      70
                                              0 COMRAM     2     0      2
 ---------------------------------------------------------------------------------
 (9) _PIN_MANAGER_IOC                                      0     0      0       0
 ---------------------------------------------------------------------------------
 (9) _PIN_MANAGER_INT2                                     0     0      0       0
 ---------------------------------------------------------------------------------
 (9) _PIN_MANAGER_INT1                                     0     0      0       0
 ---------------------------------------------------------------------------------
 (9) _PIN_MANAGER_INT0                                     0     0      0       0
 ---------------------------------------------------------------------------------
 (9) _MEMORY_ISR                                           0     0      0       0
 ---------------------------------------------------------------------------------
 (9) _I2C1_ISR                                             2     2      0       0
                                              0 COMRAM     2     2      0
              _I2C1_FunctionComplete
                          _I2C1_Stop
 ---------------------------------------------------------------------------------
 (10) _I2C1_Stop                                           1     1      0       0
 ---------------------------------------------------------------------------------
 (10) _I2C1_FunctionComplete                               0     0      0       0
 ---------------------------------------------------------------------------------
 (9) _I2C1_BusCollisionISR                                 0     0      0       0
 ---------------------------------------------------------------------------------
 (9) _EUSART1_Transmit_ISR                                 0     0      0       0
 ---------------------------------------------------------------------------------
 (9) _EUSART1_Receive_ISR                                  0     0      0       0
 ---------------------------------------------------------------------------------
 (9) _ADC_ISR                                              0     0      0       0
 ---------------------------------------------------------------------------------
 Estimated maximum stack depth 10
 ---------------------------------------------------------------------------------

 Call Graph Graphs:

 _main (ROOT)
   _SYSTEM_Initialize
     _INTERRUPT_Initialize
     _OSCILLATOR_Initialize
     _PIN_MANAGER_Initialize
     _TMR0_Initialize
       _TMR0_StartTimer
       _TMR0_WriteTimer
     _XLCD_Initialize
       _BusyXLCD
         _DelayFor18TCY
       _OpenXLCD
         _BusyXLCD
           _DelayFor18TCY
         _Delay10KTCYx
         _DelayPORXLCD
         _SetDDRamAddr
           _DelayFor18TCY
         _WriteCmdXLCD
           _DelayFor18TCY
       _SetDDRamAddr
         _DelayFor18TCY
       _WriteCmdXLCD
         _DelayFor18TCY
   _createCharacter
     _BusyXLCD
       _DelayFor18TCY
     _WriteCmdXLCD
       _DelayFor18TCY
     _WriteDataXLCD
       _DelayFor18TCY
   _juego1
     _changeStages
       _ADC_GetConversion
       _BusyXLCD
         _DelayFor18TCY
       _SYSTEM_Initialize
         _INTERRUPT_Initialize
         _OSCILLATOR_Initialize
         _PIN_MANAGER_Initialize
         _TMR0_Initialize
           _TMR0_StartTimer
           _TMR0_WriteTimer
         _XLCD_Initialize
           _BusyXLCD
             _DelayFor18TCY
           _OpenXLCD
             _BusyXLCD
               _DelayFor18TCY
             _Delay10KTCYx
             _DelayPORXLCD
             _SetDDRamAddr
               _DelayFor18TCY
             _WriteCmdXLCD
               _DelayFor18TCY
           _SetDDRamAddr
             _DelayFor18TCY
           _WriteCmdXLCD
             _DelayFor18TCY
       _SetDDRamAddr
         _DelayFor18TCY
       _printCharacter
         _BusyXLCD
           _DelayFor18TCY
         _WriteDataXLCD
           _DelayFor18TCY
       _putsXLCD
         _BusyXLCD
           _DelayFor18TCY
         _WriteDataXLCD
           _DelayFor18TCY
       _sprintf
         ___lwdiv
         ___lwmod
           ___lwdiv (ARG)
   _juego2
     _changeStages
       _ADC_GetConversion
       _BusyXLCD
         _DelayFor18TCY
       _SYSTEM_Initialize
         _INTERRUPT_Initialize
         _OSCILLATOR_Initialize
         _PIN_MANAGER_Initialize
         _TMR0_Initialize
           _TMR0_StartTimer
           _TMR0_WriteTimer
         _XLCD_Initialize
           _BusyXLCD
             _DelayFor18TCY
           _OpenXLCD
             _BusyXLCD
               _DelayFor18TCY
             _Delay10KTCYx
             _DelayPORXLCD
             _SetDDRamAddr
               _DelayFor18TCY
             _WriteCmdXLCD
               _DelayFor18TCY
           _SetDDRamAddr
             _DelayFor18TCY
           _WriteCmdXLCD
             _DelayFor18TCY
       _SetDDRamAddr
         _DelayFor18TCY
       _printCharacter
         _BusyXLCD
           _DelayFor18TCY
         _WriteDataXLCD
           _DelayFor18TCY
       _putsXLCD
         _BusyXLCD
           _DelayFor18TCY
         _WriteDataXLCD
           _DelayFor18TCY
       _sprintf
         ___lwdiv
         ___lwmod
           ___lwdiv (ARG)
   _juego3
     _changeStages
       _ADC_GetConversion
       _BusyXLCD
         _DelayFor18TCY
       _SYSTEM_Initialize
         _INTERRUPT_Initialize
         _OSCILLATOR_Initialize
         _PIN_MANAGER_Initialize
         _TMR0_Initialize
           _TMR0_StartTimer
           _TMR0_WriteTimer
         _XLCD_Initialize
           _BusyXLCD
             _DelayFor18TCY
           _OpenXLCD
             _BusyXLCD
               _DelayFor18TCY
             _Delay10KTCYx
             _DelayPORXLCD
             _SetDDRamAddr
               _DelayFor18TCY
             _WriteCmdXLCD
               _DelayFor18TCY
           _SetDDRamAddr
             _DelayFor18TCY
           _WriteCmdXLCD
             _DelayFor18TCY
       _SetDDRamAddr
         _DelayFor18TCY
       _printCharacter
         _BusyXLCD
           _DelayFor18TCY
         _WriteDataXLCD
           _DelayFor18TCY
       _putsXLCD
         _BusyXLCD
           _DelayFor18TCY
         _WriteDataXLCD
           _DelayFor18TCY
       _sprintf
         ___lwdiv
         ___lwmod
           ___lwdiv (ARG)
   _juego4
     _changeStages
       _ADC_GetConversion
       _BusyXLCD
         _DelayFor18TCY
       _SYSTEM_Initialize
         _INTERRUPT_Initialize
         _OSCILLATOR_Initialize
         _PIN_MANAGER_Initialize
         _TMR0_Initialize
           _TMR0_StartTimer
           _TMR0_WriteTimer
         _XLCD_Initialize
           _BusyXLCD
             _DelayFor18TCY
           _OpenXLCD
             _BusyXLCD
               _DelayFor18TCY
             _Delay10KTCYx
             _DelayPORXLCD
             _SetDDRamAddr
               _DelayFor18TCY
             _WriteCmdXLCD
               _DelayFor18TCY
           _SetDDRamAddr
             _DelayFor18TCY
           _WriteCmdXLCD
             _DelayFor18TCY
       _SetDDRamAddr
         _DelayFor18TCY
       _printCharacter
         _BusyXLCD
           _DelayFor18TCY
         _WriteDataXLCD
           _DelayFor18TCY
       _putsXLCD
         _BusyXLCD
           _DelayFor18TCY
         _WriteDataXLCD
           _DelayFor18TCY
       _sprintf
         ___lwdiv
         ___lwmod
           ___lwdiv (ARG)
   _printscore
     _BusyXLCD
       _DelayFor18TCY
     _SetDDRamAddr
       _DelayFor18TCY
     _putsXLCD
       _BusyXLCD
         _DelayFor18TCY
       _WriteDataXLCD
         _DelayFor18TCY
     _sprintf
       ___lwdiv
       ___lwmod
         ___lwdiv (ARG)

 _INTERRUPT_InterruptManager (ROOT)
   _ADC_ISR
   _EUSART1_Receive_ISR
   _EUSART1_Transmit_ISR
   _I2C1_BusCollisionISR
   _I2C1_ISR
     _I2C1_FunctionComplete
     _I2C1_Stop
   _MEMORY_ISR
   _PIN_MANAGER_INT0
   _PIN_MANAGER_INT1
   _PIN_MANAGER_INT2
   _PIN_MANAGER_IOC
   _TMR0_ISR
     i2_TMR0_WriteTimer
   _TMR1_ISR
   _TMR2_ISR
   _TMR3_ISR
     Absolute function(Fake) *
     _TMR3_DefaultInterruptHandler *

 Address spaces:
Name               Size   Autos  Total    Cost      Usage
BIGRAM             7FF      0       0      21        0.0%
EEDATA             100      0       0       0        0.0%
BITBANK7           100      0       0      18        0.0%
BANK7              100      0       0      19        0.0%
BITBANK6           100      0       0      16        0.0%
BANK6              100      0       0      17        0.0%
BITBANK5           100      0       0      14        0.0%
BANK5              100      0       0      15        0.0%
BITBANK4           100      0       0      12        0.0%
BANK4              100      0       0      13        0.0%
BITBANK3           100      0       0      10        0.0%
BANK3              100      0       0      11        0.0%
BITBANK2           100      0       0       8        0.0%
BANK2              100      0       0       9        0.0%
BITBANK1           100      0       0       6        0.0%
BANK1              100      0       0       7        0.0%
BITBANK0            A0      0       0       4        0.0%
BANK0               A0     16      9A       5       96.3%
BITCOMRAM           5E      0       0       0        0.0%
COMRAM              5E     33      48       1       76.6%
BITSFR               0      0       0     200        0.0%
SFR                  0      0       0     200        0.0%
STACK                0      0       0       2        0.0%
NULL                 0      0       0       0        0.0%
ABS                  0      0      E2      20        0.0%
DATA                 0      0      E2       3        0.0%
CODE                 0      0       0       0        0.0%


Microchip Technology PIC18 Macro Assembler V1.43 build -156212558 
Symbol Table                                                                                   Fri Nov 27 19:04:51 2020

             _eusart1TxBufferRemaining 0043                            _SSPSTATbits 000FC7  
                                   l41 26AC                                     l71 22E8  
                                   l80 2318                                     l65 22CE  
                                   l74 22F8                                     l83 2328  
                                   l77 2308                    changeStages@enemPos 00D8  
                          __CFG_BORV$3 000000                        _timer0ReloadVal 0038  
                         __CFG_CP0$OFF 000000                           __CFG_CP1$OFF 000000  
                         __CFG_CP2$OFF 000000                           __CFG_CP3$OFF 000000  
                          ?_MEMORY_ISR 0001                                    l105 23CE  
                                  l106 239C                   __end_of_changeStages 2296  
                                  l215 26D8                                    l620 247E  
                                  l625 24A0                                    l618 2450  
                                  l660 2238                                    l652 218A  
                                  l636 238C                                    l646 2412  
                                  l655 21A6                                    l658 21DE  
                                  l668 2280                           __CFG_CPB$OFF 000000  
                                  _RB0 007C08                                    _RB1 007C09  
                                  _RB2 007C0A                                    _RB3 007C0B  
                                  _PR2 000FCB                           __CFG_CPD$OFF 000000  
                         __CFG_BOR$OFF 000000                        _timer1ReloadVal 0036  
                      __end_of_ADC_ISR 2870                  __size_of_WriteCmdXLCD 003E  
                                  prod 000FF3                                    tosl 000FFD  
                                  wreg 000FE8                           __CFG_LVP$OFF 000000  
                     __end_of_I2C1_ISR 1ED8                           __CFG_WDT$OFF 000000  
                                 l1011 2654                                   l1014 2664  
                                 l1017 2674                        _timer3ReloadVal 0034  
                                 l1550 2106                                   l1542 208C  
                                 l1535 2048                                   l1544 20B4  
                                 l1536 2062                                   l1548 2100  
                                 l1549 2158                                   l1755 27CC  
                                 l1964 24C0                                   l1965 24B8  
                                 l1974 25A2                                   l1975 259A  
                                 l1968 24E0                                   l1969 24EA  
                                 l1978 25BA                                   l1979 25C4  
                                 l5690 20B8                                   l5782 246E  
                                 l5768 2280                                   STR_1 7EE1  
                                 STR_2 7FFC                                   STR_3 7FFC  
                                 STR_4 7FD8                                   STR_5 7EF2  
                                 STR_6 7FB4                                   STR_7 7EF2  
                                 STR_8 7F90                                   STR_9 7EF2  
                                 u4007 07DA                                   u4017 0816  
                                 u4107 0A32                                   u4027 0852  
                                 u4117 0A6E                                   u4037 088E  
                                 u5007 1856                                   u4207 0C8A  
                                 u4127 0AAA                                   u4047 08CA  
                                 u3520 22D8                                   _IPEN 007E87  
                                 u5017 1892                                   u4217 0CC6  
                                 u4137 0AE6                                   u4057 0906  
                                 u3515 250A                                   u5107 1AAE  
                                 u5027 18CE                                   u4307 0098  
                                 u4227 0D02                                   u4147 0B22  
                                 u4067 0942                                   u3700 23EE  
                                 u5117 1AEA                                   u5037 190A  
                                 u4317 00D6                                   u4237 0D3E  
                                 u4157 0B5E                                   u4077 097E  
                                 u3630 24C4                                   u5207 284A  
                                 u5127 1B26                                   u5047 1946  
                                 u4407 0304                                   u4327 0114  
                                 u4247 0D7A                                   u4167 0B9A  
                                 u4087 09BA                                   u3800 2160  
                                 u5137 1B62                                   u5057 1982  
                                 u4417 0342                                   u4337 0152  
                                 u4257 0DB6                                   u4177 0BD6  
                                 u4097 09F6                                   u3810 2178  
                                 u3707 23E4                                   u5147 1B9E  
                                 u5067 19BE                                   u4507 0570  
                                 u4427 0380                                   u4347 0190  
                                 u4267 0DF2                                   u4187 0C12  
                                 u3660 25A6                                   u5157 1BDA  
                                 u5077 19FA                                   u4517 05AE  
                                 u4437 03BE                                   u4357 01CE  
                                 u4277 0E2E                                   u4197 0C4E  
                                 u5167 1C16                                   u5087 1A36  
                                 u4607 0EF4                                   u4527 05EC  
                                 u4447 03FC                                   u4367 020C  
                                 u4287 001C                                   u5177 1C52  
                                 u5097 1A72                                   u4617 0F30  
                                 u4537 062A                                   u4457 043A  
                                 u4377 024A                                   u4297 005A  
                                 u3690 23C6                                   u3850 2212  
                                 u5187 27F8                                   u4707 114C  
                                 u4627 0F6C                                   u4547 0668  
                                 u4467 0478                                   u4387 0288  
                                 u3780 20E4                                   u5197 27D2  
                                 u4717 1188                                   u4637 0FA8  
                                 u4557 06A6                                   u4477 04B6  
                                 u4397 02C6                                   u4807 13A4  
                                 u4727 11C4                                   u4647 0FE4  
                                 u4567 06E4                                   u4487 04F4  
                                 u3697 23BC                                   u4817 13E0  
                                 u4737 1200                                   u4657 1020  
                                 u4577 0722                                   u4497 0532  
                                 u4907 15FE                                   u4827 141C  
                                 u4747 123C                                   u4667 105C  
                                 u4587 0E7C                                   u4917 163A  
                                 u4837 1458                                   u4757 1278  
                                 u4677 1098                                   u4597 0EB8  
                                 u4927 1676                                   u4847 1494  
                                 u4767 12B4                                   u4687 10D4  
                                 u4937 16B2                                   u4857 14D0  
                                 u4777 12F0                                   u4697 1110  
                                 u4947 16EE                                   u4867 150C  
                                 u4787 132C                                   u3987 0762  
                                 u4957 172A                                   u4877 1548  
                                 u4797 1368                                   u3997 079E  
                                 u4967 1766                                   u4887 1586  
                                 u4977 17A2                                   u4897 15C2  
                                 u4987 17DE                                   u4997 181A  
                                 _TMR2 000FCC                                   _TMR3 000FB2  
                         __CFG_PWRT$ON 000000                                   _Temp 00AB  
                                 _main 233A                        _TMR0_StartTimer 2858  
                                 fsr0h 000FEA                                   fsr1h 000FE2  
                                 indf0 000FEF                                   fsr2h 000FDA  
                                 fsr0l 000FE9                                   indf2 000FDF  
                                 fsr1l 000FE1                                   fsr2l 000FD9  
                                 btemp 0049                 __size_of_WriteDataXLCD 003E  
                                 prodh 000FF4                                   prodl 000FF3  
                                 start 000E                          __CFG_IESO$OFF 000000  
                        __CFG_MCLRE$ON 000000                           ___param_bank 000000  
                         _WriteCmdXLCD 260C                __end_of_TMR0_Initialize 2782  
                           _i2c1_state 0040                          __CFG_PLLDIV$5 000000  
       __size_of_OSCILLATOR_Initialize 000A          __end_of_OSCILLATOR_Initialize 2834  
                        ?_SetDDRamAddr 0001                                  ?_main 0001  
                    __end_of_I2C1_Stop 2858                                  _EEADR 000FA9  
                                STR_10 7F78                                  STR_11 7FD8  
                                STR_20 7F84                                  STR_12 7F60  
                                STR_13 7FB4                                  STR_21 7F48  
                                STR_14 7FF0                                  STR_22 7F6C  
                                STR_30 7F24                                  STR_15 7F90  
                                STR_31 7F9C                                  STR_23 7F3C  
                                STR_40 7FD8                                  STR_16 7FCC  
                                STR_24 7F54                                  STR_32 7F18  
                                STR_41 7F30                                  STR_33 7F78  
                                STR_17 7F78                                  STR_25 7F30  
                                STR_34 7F0C                                  STR_26 7F3C  
                                STR_50 7F61                                  STR_42 7FB4  
                                STR_18 7FA8                                  STR_43 7F24  
                                STR_35 7F60                                  STR_19 7F60  
                                STR_27 7FE4                                  STR_51 7EF1  
                                STR_36 7EF2                                  STR_60 7F19  
                                STR_28 7F30                                  STR_52 7F49  
                                STR_44 7F90                                  STR_61 7EF1  
                                STR_53 7EF1                                  STR_45 7F18  
                                STR_37 7F48                                  STR_29 7FC0  
                                STR_62 7EF3                                  STR_38 7EF2  
                                STR_54 7F3D                                  STR_70 7F78  
                                STR_46 7F91                                  STR_63 7EF1  
                                STR_55 7EF1                                  STR_39 7F3C  
                                STR_71 7FD8                                  STR_47 7F0B  
                                STR_56 7F31                                  STR_72 7F60  
                                STR_48 7F79                                  STR_80 7F84  
                                STR_64 7FD8                                  STR_65 7EF2  
                                STR_57 7EF1                                  STR_81 7F48  
                                STR_73 7FB4                                  STR_49 7EFE  
                                STR_58 7F25                                  STR_90 7F24  
                                STR_82 7F6C                                  STR_66 7FB4  
                                STR_74 7FF0                                  STR_67 7EF2  
                                STR_59 7EF1                                  STR_83 7F3C  
                                STR_75 7F90                                  STR_91 7F9C  
                                STR_92 7F18                                  STR_84 7F54  
                                STR_68 7F90                                  STR_76 7FCC  
                                STR_69 7EF2                                  STR_85 7F30  
                                STR_93 7F78                                  STR_77 7F78  
                                STR_94 7F0C                                  STR_86 7F3C  
                                STR_78 7FA8                                  STR_95 7F60  
                                STR_79 7F60                                  STR_87 7FE4  
                                STR_96 7EF2                                  STR_88 7F30  
                                STR_97 7F48                                  STR_89 7FC0  
                                STR_98 7EF2                                  STR_99 7F3C  
                                _T0CON 000FD5                                  _T1CON 000FCD  
                                _T2CON 000FCA                                  _T3CON 000FB1  
                      __end_of___lwdiv 24F4                        __end_of___lwmod 25CE  
                                i2l401 1E86                                  i2l404 2796  
                      _TMR0_WriteTimer 2820                                  i2l520 1F3E  
                                i2l362 1E92                                  i2l370 1D36  
                                i2l530 1F84                                  i2l522 1F4C  
                                i2l363 1CA0                                  i2l372 1D4E  
                                i2l540 1FCE                                  i2l532 1F92  
                                i2l524 1F5A                                  i2l365 1CF8  
                                i2l286 2748                                  i2l374 1D54  
                                i2l366 1D16                                  i2l542 1FD8  
                                i2l534 1FA4                                  i2l526 1F68  
                                i2l518 1F30                                  i2l287 2744  
                                i2l383 1DDE                                  i2l375 1D64  
                                i2l392 1E30                                  i2l368 1D1E  
                                i2l544 1FE6                                  i2l536 1FB2  
                                i2l528 1F76                                  i2l393 1E42  
                                i2l385 1DE4                                  i2l377 1D92  
                                i2l369 1D26                                  i2l386 1DF6  
                                i2l546 1FF2                                  i2l538 1FC0  
                                i2l395 1E4A                                  i2l379 1DD0  
                                i2l396 1E52                                  i2l388 1E1C  
                                i2l397 1E74                                  i2l389 1E14  
                                i2l398 1E7A                                  i2l399 1E7E  
                                _TMR0H 000FD7                                  _TMR1H 000FCF  
                                _TMR0L 000FD6                                  _TMR1L 000FCE  
                                _TMR3H 000FB3                                  _TMR3L 000FB2  
                                _PORTB 000F81                                  _PORTD 000F83  
                        __CFG_USBDIV$2 000000                                  _TRISB 000F93  
                                _TRISD 000F95                  __size_of_Delay10KTCYx 0016  
         __end_of_I2C1_BusCollisionISR 286E                          __CFG_WRT0$OFF 000000  
                        __CFG_WRT1$OFF 000000                          __CFG_WRT2$OFF 000000  
                        __CFG_WRT3$OFF 000000                   _EUSART1_Transmit_ISR 271E  
                       __CFG_EBTR0$OFF 000000                         __CFG_FCMEN$OFF 000000  
                       __CFG_EBTR1$OFF 000000                         __CFG_EBTR2$OFF 000000  
                       __CFG_EBTR3$OFF 000000                       __end_of_TMR0_ISR 27B4  
                     __end_of_TMR1_ISR 2862                       __end_of_TMR2_ISR 2860  
                        __CFG_WRTB$OFF 000000                       __end_of_TMR3_ISR 271E  
                        __CFG_WRTC$OFF 000000                          __CFG_WRTD$OFF 000000  
                                _data0 00F2                                  _data1 00EA  
                       __CFG_EBTRB$OFF 000000         ??_TMR3_DefaultInterruptHandler 0001  
              __end_of_PIN_MANAGER_IOC 2864                        __end_of_dpowers 7EE1  
                     ??_printCharacter 0019                                  pclath 000FFA  
                                tablat 000FF5                                  status 000FD8  
                                wtemp6 004A                        __end_of_sprintf 2186  
                       __CFG_ICPRT$OFF 000000                    __size_of_MEMORY_ISR 0002  
                    ??_createCharacter 001A                        __initialization 2546  
                         __end_of_main 239A                       __end_of_BusyXLCD 26C0  
                         _Delay10KTCYx 27CA                  __size_of_DelayPORXLCD 0012  
                            ??_ADC_ISR 0001            ?_INTERRUPT_InterruptManager 0001  
                       ??_SetDDRamAddr 0016                       __end_of_OpenXLCD 233A  
                          _i2c1_object 00A4                                 ??_main 0034  
                        __activetblptr 000002                          _WriteDataXLCD 25CE  
                _TMR3_InterruptHandler 00B9                  ?_EUSART1_Transmit_ISR 0001  
                      __CFG_CCP2MX$OFF 000000                __end_of_TMR0_StartTimer 285C  
                               _ADCON0 000FC2                                 _ADCON2 000FC0  
                       _Timer0_Counter 00C1                                 STR_100 7FD8  
                               STR_101 7F30                                 STR_110 7F61  
                               STR_102 7FB4                                 STR_111 7EF1  
                               STR_103 7F24                                 STR_120 7F19  
                               STR_112 7F49                                 STR_200 7F84  
                               STR_104 7F90                                 STR_121 7EF1  
                               STR_113 7EF1                                 STR_105 7F18  
                               STR_201 7F48                                 STR_122 7EF3  
                               STR_210 7F24                                 STR_114 7F3D  
                               STR_202 7F6C                                 STR_130 7F78  
                               STR_106 7F91                                 _ADRESH 000FC4  
                               STR_123 7EF1                                 STR_115 7EF1  
                               STR_107 7F0B                                 STR_203 7F3C  
                               STR_211 7F9C                                 STR_131 7FD8  
                               STR_212 7F18                                 STR_116 7F31  
                               STR_204 7F54                                 STR_132 7F60  
                               STR_108 7F79                                 STR_140 7F84  
                               STR_220 7FD8                                 STR_124 7FD8  
                               STR_125 7EF2                                 STR_117 7EF1  
                               STR_109 7EFE                                 STR_221 7F30  
                               STR_205 7F30                                 STR_141 7F48  
                               STR_213 7F78                                 STR_133 7FB4  
                               STR_214 7F0C                                 STR_118 7F25  
                               STR_150 7F24                                 STR_206 7F3C  
                               STR_230 7F61                                 STR_142 7F6C  
                               STR_222 7FB4                                 STR_126 7FB4  
                               STR_134 7FF0                                 _ADRESL 000FC3  
                               STR_127 7EF2                                 STR_231 7EF1  
                               STR_119 7EF1                                 STR_223 7F24  
                               STR_143 7F3C                                 STR_215 7F60  
                               STR_135 7F90                                 STR_151 7F9C  
                               STR_207 7FE4                                 STR_216 7EF2  
                               STR_240 7F19                                 STR_152 7F18  
                               STR_208 7F30                                 STR_232 7F49  
                               STR_144 7F54                                 STR_224 7F90  
                               STR_128 7F90                                 STR_136 7FCC  
                               STR_160 7FD8                                 STR_129 7EF2  
                               STR_241 7EF1                                 STR_233 7EF1  
                               STR_225 7F18                                 STR_161 7F30  
                               STR_145 7F30                                 STR_217 7F48  
                               STR_153 7F78                                 STR_137 7F78  
                               STR_209 7FC0                                 STR_242 7EF3  
                               STR_218 7EF2                                 STR_154 7F0C  
                               STR_234 7F3D                                 STR_146 7F3C  
                               STR_170 7F61                                 STR_226 7F91  
                               STR_138 7FA8                                 STR_162 7FB4  
                               STR_243 7EF1                                 STR_235 7EF1  
                               STR_171 7EF1                                 STR_227 7F0B  
                               STR_163 7F24                                 STR_219 7F3C  
                               STR_155 7F60                                 STR_139 7F60  
                               STR_147 7FE4                                 STR_156 7EF2  
                               STR_180 7F19                                 STR_236 7F31  
                               STR_148 7F30                                 STR_172 7F49  
                               STR_228 7F79                                 STR_164 7F90  
                               STR_237 7EF1                                 STR_181 7EF1  
                               STR_173 7EF1                                 STR_229 7EFE  
                               STR_165 7F18                                 STR_157 7F48  
                               STR_149 7FC0                                 _EEDATA 000FA8  
                               STR_182 7EF3                                 STR_158 7EF2  
                               STR_238 7F25                                 STR_174 7F3D  
                               STR_190 7F78                                 STR_166 7F91  
                               STR_239 7EF1                                 STR_183 7EF1  
                               STR_175 7EF1                                 STR_167 7F0B  
                               STR_159 7F3C                                 STR_191 7FD8  
                               STR_176 7F31                                 STR_192 7F60  
                               STR_168 7F79                                 STR_184 7FD8  
               changeStages@parameter1 00D4                                 STR_185 7EF2  
                               STR_177 7EF1                                 STR_169 7EFE  
                               STR_193 7FB4                 changeStages@parameter2 00D6  
                               STR_178 7F25                                 STR_186 7FB4  
                               STR_194 7FF0                                 STR_187 7EF2  
                               STR_179 7EF1                                 STR_195 7F90  
                               STR_188 7F90                                 STR_196 7FCC  
                               _CCPR2H 000FBC                                 STR_189 7EF2  
                               STR_197 7F78                                 STR_198 7FA8  
                               STR_199 7F60                                 _CCPR2L 000FBB  
                               _EECON2 000FA7               __size_of_XLCD_Initialize 003C  
                               i2l4556 1CF8                    createCharacter@data 0017  
                               _TABLAT 000FF5                                 _RCSTA1 000FAB  
                               _OSCCON 000FD3                                 _SPBRG1 000FAF  
                               _SPBRGH 000FB0                                 _SSPADD 000FC8  
                               _SSPBUF 000FC9                                 _TXREG1 000FAD  
                      changeStages@pos 00E4                                 _TXSTA1 000FAC  
                         _DelayPORXLCD 27F2                         __CFG_XINST$OFF 000000  
                       _p_i2c1_current 00B5                __end_of_TMR0_WriteTimer 282A  
                __size_of_changeStages 0110               __end_of_PIN_MANAGER_INT0 286A  
             __end_of_PIN_MANAGER_INT1 2868               __end_of_PIN_MANAGER_INT2 2866  
                            ??___lwdiv 001A                              ??___lwmod 0021  
            i2TMR0_WriteTimer@timerVal 0001                       ?_TMR0_Initialize 0001  
                               _juego1 157C                                 _juego2 0E72  
                               _juego3 0012                                 _juego4 0758  
                            ?_I2C1_ISR 0001                                 clear_0 256C  
                               clear_1 2578                         ?_WriteDataXLCD 0001  
                         __mediumconst 7ED6                                 tblptrh 000FF7  
                               tblptrl 000FF6                                 tblptru 000FF8  
             ADC_GetConversion@channel 001A                       __end_of_putsXLCD 23F6  
                     ?_PIN_MANAGER_IOC 0001                              ??_sprintf 0028  
                          juego4@score 00E6                        _eusart1RxBuffer 0060  
        __size_of_INTERRUPT_Initialize 001C                        _eusart1TxBuffer 009C  
                    _SYSTEM_Initialize 27B4                             __accesstop 0060  
              __end_of__initialization 257E                        __CFG_PBADEN$OFF 000000  
                   ?_SYSTEM_Initialize 0001                           _changeStages 2186  
                        ___rparam_used 000001                         _i2c1_trb_count 003F  
                _I2C1_FunctionComplete 2782                   _I2C1_BusCollisionISR 286C  
                       __pcstackCOMRAM 0001                    _timer0ReloadVal8bit 003C  
                         __pidataBANK0 2804                    ??_SYSTEM_Initialize 001B  
                            ?_TMR0_ISR 0001                              ?_TMR1_ISR 0001  
                            ?_TMR2_ISR 0001                              ?_TMR3_ISR 0001  
                           ??_I2C1_ISR 0001                           ??_MEMORY_ISR 0001  
               ??_EUSART1_Transmit_ISR 0001            __end_of_EUSART1_Receive_ISR 2848  
                     ?_TMR0_StartTimer 0001              __end_of_SYSTEM_Initialize 27CA  
               __size_of_DelayFor18TCY 0008                          _eusart1RxHead 00BF  
                        _eusart1TxHead 0045                          _eusart1RxTail 0042  
                           __pbssBANK0 0060                          _eusart1TxTail 0044  
                            ?_BusyXLCD 0001                        WriteCmdXLCD@cmd 0016  
                 __end_of_SetDDRamAddr 2546                      printscore@buffer2 00D4  
                            ?_OpenXLCD 0001                        WriteSWSPI@input 0046  
                    ??_XLCD_Initialize 001B                     __end_of_MEMORY_ISR 286C  
                ?_I2C1_BusCollisionISR 0001                      WriteDataXLCD@data 0016  
                           ??_TMR0_ISR 0003                             ??_TMR1_ISR 0001  
                           ??_TMR2_ISR 0001                             ??_TMR3_ISR 0001  
                     ?_TMR0_WriteTimer 0016                                _CCP2CON 000FBA  
                      ??_WriteDataXLCD 0016                                _ADC_ISR 286E  
                              _BAUDCON 000FB8                                ?_juego1 0001  
                              ?_juego2 0001                                ?_juego3 0001  
                              ?_juego4 0030                              _I2C1_Stop 2850  
                              _TBLPTRH 000FF7                                _TBLPTRL 000FF6  
                              _TBLPTRU 000FF8                                _OSCTUNE 000F9B  
                      _createCharacter 244C                                _SSPCON1 000FC6  
                              _SSPCON2 000FC5                                _SSPSTAT 000FC7  
                           ??_BusyXLCD 0016                        __CFG_VREGEN$OFF 000000  
                           ??_OpenXLCD 001A                              _ADC_Value 00B1  
               ?_I2C1_FunctionComplete 0001                            _Timer0_Flag 00C0  
                              __Hparam 0000                                __Lparam 0000  
                   _p_i2c1_trb_current 00B7                          _DelayFor18TCY 2848  
                            ?_putsXLCD 0017                                ___lwdiv 24A2  
                              ___lwmod 258C                        __CFG_STVREN$OFF 000000  
                              __pcinit 2546                        __size_of_juego1 070A  
                      __size_of_juego2 070A                        __size_of_juego3 0746  
                      __size_of_juego4 071A                                __ramtop 0800  
                              __ptext0 233A                                __ptext1 23F6  
                              __ptext2 0758                                __ptext3 0012  
                              __ptext4 0E72                                __ptext5 157C  
                              __ptext6 2186                                __ptext7 203E  
                              __ptext8 258C                                __ptext9 24A2  
                            _T0CONbits 000FD5                              _T1CONbits 000FCD  
                              _counter 003A                                _dpowers 7ED7  
                _OSCILLATOR_Initialize 282A                              _T2CONbits 000FCA  
                            _T3CONbits 000FB1               ??_PIN_MANAGER_Initialize 0016  
                           ?_I2C1_Stop 0001             __size_of_SYSTEM_Initialize 0016  
                              _sprintf 203E                   I2C1_ISR@pi2c_buf_ptr 00B3  
                       __pintcode_body 1ED8                   end_of_initialization 257E  
                        __Lmediumconst 7ED6                                int_func 1ED8  
               ??_I2C1_BusCollisionISR 0001                         ?_DelayFor18TCY 0001  
                              postdec1 000FE5                                postdec2 000FDD  
                              postinc0 000FEE                                postinc2 000FDE  
                           ??_putsXLCD 0019                      ?_PIN_MANAGER_INT0 0001  
                    ?_PIN_MANAGER_INT1 0001                      ?_PIN_MANAGER_INT2 0001  
                            _PORTBbits 000F81                     ??_PIN_MANAGER_INT0 0001  
                   ??_PIN_MANAGER_INT1 0001                     ??_PIN_MANAGER_INT2 0001  
              __end_of_createCharacter 24A2                      __size_of_I2C1_ISR 0252  
                           _printscore 23F6                              _TRISAbits 000F92  
                            _TRISBbits 000F93                              _TRISDbits 000F95  
                __size_of_SetDDRamAddr 0052                     changeStages@buffer 00DA  
    I2C1_ISR@i2c_10bit_address_restart 003D                __size_of_printCharacter 0012  
         __end_of_INTERRUPT_Initialize 2768                I2C1_MasterWrite@trBlock 00C8  
                    __size_of_TMR0_ISR 0018                      __size_of_TMR1_ISR 0002  
             I2C1_Stop@completion_code 0001                      __size_of_TMR2_ISR 0002  
                    __size_of_TMR3_ISR 002E                   printCharacter@number 0017  
               ?_OSCILLATOR_Initialize 0001                         __end_of_juego1 1C86  
                       __end_of_juego2 157C                         __end_of_juego3 0758  
                       __end_of_juego4 0E72                           _SetDDRamAddr 24F4  
                   SetDDRamAddr@DDaddr 0019                    start_initialization 2546  
                          ??_I2C1_Stop 0001               __size_of_TMR0_Initialize 001A  
      __size_of_PIN_MANAGER_Initialize 000C                        _XLCD_Initialize 264A  
                    __size_of_BusyXLCD 003A               __size_of_PIN_MANAGER_IOC 0002  
                      ??_DelayFor18TCY 0016                      __size_of_OpenXLCD 00A4  
                        ?_WriteCmdXLCD 0001                            __pdataBANK0 00EA  
                     __CFG_LPT1OSC$OFF 000000                               ?_ADC_ISR 0001  
                             ??_juego1 0030                               ??_juego2 0030  
                             ??_juego3 0030                               ??_juego4 0032  
                       _eusart1RxCount 0041                       ?_createCharacter 0017  
                          __pbssCOMRAM 0034                            ?_printscore 0030  
        __size_of_EUSART1_Transmit_ISR 002E                          __pcstackBANK0 00D4  
                        _i2c1_tr_queue 00CE    INTERRUPT_InterruptManager@__portb__ 0015  
                     createCharacter@i 001A                ??_I2C1_FunctionComplete 0001  
         __size_of_EUSART1_Receive_ISR 000A                            sprintf@flag 002B  
                          sprintf@prec 002C               __size_of_TMR0_StartTimer 0004  
                       putsXLCD@buffer 0017                       ___lwdiv@dividend 0016  
               _PIN_MANAGER_Initialize 2814                              __pintcode 0008  
                        __pmediumconst 7ED6                         ??_WriteCmdXLCD 0016  
                        ?_Delay10KTCYx 0001                               ?___lwdiv 0016  
                             ?___lwmod 001D                               _I2C1_ISR 1C86  
         ??_INTERRUPT_InterruptManager 0003                      __size_of_putsXLCD 005C  
                __end_of_WriteDataXLCD 260C                __end_of_XLCD_Initialize 2686  
             __size_of_TMR0_WriteTimer 000A                       ___lwdiv@quotient 001B  
                             ?_sprintf 0022                  createCharacter@i_1981 001B  
                 _INTERRUPT_Initialize 274C                 I2C1_MasterRead@trBlock 00C2  
                    ??_TMR0_Initialize 0018                               _LATDbits 000F8C  
                             _IPR1bits 000F9F                               _IPR2bits 000FA2  
                             _PIE1bits 000F9D                               _PIE2bits 000FA0  
                        ?_DelayPORXLCD 0001    __size_of_INTERRUPT_InterruptManager 2036  
                             _PIR1bits 000F9E                        OpenXLCD@lcdtype 001A  
                             _PIR2bits 000FA1                  createCharacter@number 0019  
                             i2u298_48 2708                    __size_of_printscore 0056  
                       _printCharacter 27E0                       __CFG_WDTPS$32768 000000  
                       ??_Delay10KTCYx 0016                               _TMR0_ISR 279C  
                             _TMR1_ISR 2860                               _TMR2_ISR 285E  
                             _TMR3_ISR 26F0                      ??_PIN_MANAGER_IOC 0001  
                     __size_of_ADC_ISR 0002                             _ADCON0bits 000FC2  
                           _ADCON1bits 000FC1                              main@score 00E8  
                    i2_TMR0_WriteTimer 2834                       Delay10KTCYx@unit 0017  
                   ?i2_TMR0_WriteTimer 0001                            _INTCON2bits 000FF1  
                          _INTCON3bits 000FF0                              copy_data0 255A  
                ?_INTERRUPT_Initialize 0001              __size_of_PIN_MANAGER_INT0 0002  
            __size_of_PIN_MANAGER_INT1 0002              __size_of_PIN_MANAGER_INT2 0002  
                             _BusyXLCD 2686                             _ADC_Buffer 0092  
                           _ADC_Value2 00AD                          ?_changeStages 00D4  
                       ??_DelayPORXLCD 0016                    ??i2_TMR0_WriteTimer 0003  
                           _EECON1bits 000FA6                               _OpenXLCD 2296  
               __end_of_printCharacter 27F2                               __Hrparam 0000  
        __size_of_I2C1_BusCollisionISR 0002                               __Lrparam 0000  
                    _ADC_GetConversion 26C0                 I2C1_ISR@i2c_bytes_left 003E  
              ??_OSCILLATOR_Initialize 0016                     ?_ADC_GetConversion 0016  
                    ??_TMR0_StartTimer 0016                       __size_of___lwdiv 0052  
                     __size_of___lwmod 0042                       ?_XLCD_Initialize 0001  
                _TMR1_InterruptHandler 00BD              __end_ofi2_TMR0_WriteTimer 283E  
                  ??_ADC_GetConversion 0018                             sprintf@val 002D  
                      printscore@score 0030                        ___lwdiv@divisor 0018  
                  I2C1_ISR@i2c_address 0047                        ___lwdiv@counter 001A  
                             __ptext10 239A                               __ptext11 27E0  
                             __ptext20 2858                               __ptext12 27B4  
                             __ptext21 2814                               __ptext13 264A  
                             __ptext22 282A                               __ptext14 2296  
                             __ptext31 26F0                               __ptext23 274C  
                             __ptext15 24F4                               __ptext40 2868  
                             __ptext32 285C                               __ptext24 26C0  
                             __ptext16 27F2                               __ptext41 286A  
                             __ptext33 285E                               __ptext25 244C  
                             __ptext17 27CA                               __ptext42 1C86  
                             __ptext34 2860                               __ptext26 25CE  
                             __ptext18 2768                               __ptext43 2850  
                             __ptext35 279C                               __ptext27 260C  
                             __ptext19 2820                               __ptext44 2782  
                             __ptext36 2834                               __ptext28 2686  
                             __ptext45 286C                               __ptext37 2862  
                             __ptext29 2848                               __ptext46 271E  
                             __ptext38 2864                               __ptext47 283E  
                             __ptext39 2866                               __ptext48 286E  
                             __ptext49 0000                   __end_of_WriteCmdXLCD 264A  
                     __size_of_sprintf 0148                TMR0_WriteTimer@timerVal 0016  
                    ??_TMR0_WriteTimer 0018                         ??_changeStages 0030  
                        __size_of_main 0060              __end_of_ADC_GetConversion 26F0  
                      ?_printCharacter 0017                               int$flags 0049  
                             _putsXLCD 239A                           _porcHumidity 00AF  
   __end_of_INTERRUPT_InterruptManager 203E             _INTERRUPT_InterruptManager 0008  
 __end_of_TMR3_DefaultInterruptHandler 285E  __size_of_TMR3_DefaultInterruptHandler 0002  
         _TMR3_DefaultInterruptHandler 285C                    _EUSART1_Receive_ISR 283E  
                __CFG_CPUDIV$OSC3_PLL4 000000                             _MEMORY_ISR 286A  
                           _INTCONbits 000FF2                           ??_printscore 0032  
               ??_INTERRUPT_Initialize 0016                   __end_of_Delay10KTCYx 27E0  
                             intlevel2 0000                              sprintf@ap 0029  
                            sprintf@sp 0022                   ?_EUSART1_Receive_ISR 0001  
                     ___lwmod@dividend 001D                ?_PIN_MANAGER_Initialize 0001  
       __size_of_I2C1_FunctionComplete 001A                             _RCSTA1bits 000FAB  
        __end_of_I2C1_FunctionComplete 279C           __end_of_EUSART1_Transmit_ISR 274C  
                __end_of_DelayFor18TCY 2850                     __end_of_printscore 244C  
                             sprintf@c 002F                               sprintf@f 0024  
           __size_ofi2_TMR0_WriteTimer 000A          ?_TMR3_DefaultInterruptHandler 0001  
                 __end_of_DelayPORXLCD 2804                        ___lwmod@divisor 001F  
                      _TMR0_Initialize 2768                        ___lwmod@counter 0021  
                          _SSPCON1bits 000FC6                            _SSPCON2bits 000FC5  
                     _PIN_MANAGER_INT0 2868                       _PIN_MANAGER_INT1 2866  
                     _PIN_MANAGER_INT2 2864               __size_of_createCharacter 0056  
                   __CFG_FOSC$HSPLL_HS 000000                  ??_EUSART1_Receive_ISR 0001  
       __end_of_PIN_MANAGER_Initialize 2820                     __size_of_I2C1_Stop 0008  
                      _PIN_MANAGER_IOC 2862                  _TMR2_InterruptHandler 00BB  
           __size_of_ADC_GetConversion 0030  
